ARM GAS  /tmp/ccQxVkpA.s 			page 1


   1              		.cpu cortex-m0
   2              		.eabi_attribute 20, 1
   3              		.eabi_attribute 21, 1
   4              		.eabi_attribute 23, 3
   5              		.eabi_attribute 24, 1
   6              		.eabi_attribute 25, 1
   7              		.eabi_attribute 26, 1
   8              		.eabi_attribute 30, 6
   9              		.eabi_attribute 34, 0
  10              		.eabi_attribute 18, 4
  11              		.file	"control.c"
  12              		.text
  13              	.Ltext0:
  14              		.cfi_sections	.debug_frame
  15              		.section	.bss.action,"aw",%nobits
  16              		.align	2
  19              	action:
  20 0000 00000000 		.space	4
  21              		.section	.bss.last_action,"aw",%nobits
  22              		.align	2
  25              	last_action:
  26 0000 00000000 		.space	4
  27              		.section	.bss.error,"aw",%nobits
  28              		.align	2
  31              	error:
  32 0000 00000000 		.space	4
  33              		.section	.bss.last_error,"aw",%nobits
  34              		.align	2
  37              	last_error:
  38 0000 00000000 		.space	4
  39              		.section	.bss.current_time,"aw",%nobits
  40              		.align	2
  43              	current_time:
  44 0000 00000000 		.space	4
  45              		.section	.bss.last_time,"aw",%nobits
  46              		.align	2
  49              	last_time:
  50 0000 00000000 		.space	4
  51              		.section	.data.kp,"aw",%progbits
  52              		.align	2
  55              	kp:
  56 0000 00001643 		.word	1125515264
  57              		.section	.data.ki,"aw",%progbits
  58              		.align	2
  61              	ki:
  62 0000 00001041 		.word	1091567616
  63              		.global	__aeabi_ui2f
  64              		.global	__aeabi_fdiv
  65              		.global	__aeabi_uidiv
  66              		.global	__aeabi_fsub
  67              		.global	__aeabi_fmul
  68              		.global	__aeabi_fadd
  69              		.global	__aeabi_fcmpgt
  70              		.global	__aeabi_fcmplt
  71              		.global	__aeabi_f2uiz
  72              		.section	.text.pi_action,"ax",%progbits
  73              		.align	1
ARM GAS  /tmp/ccQxVkpA.s 			page 2


  74              		.global	pi_action
  75              		.syntax unified
  76              		.code	16
  77              		.thumb_func
  78              		.fpu softvfp
  80              	pi_action:
  81              	.LFB37:
  82              		.file 1 "src/control.c"
   1:src/control.c **** #include <stdint.h>
   2:src/control.c **** 
   3:src/control.c **** #include "stm32f0xx_hal.h"
   4:src/control.c **** 
   5:src/control.c **** #include "control.h"
   6:src/control.c **** #include "fans.h"
   7:src/control.c **** #include "power_resistors.h"
   8:src/control.c **** #include "sensors.h"
   9:src/control.c **** 
  10:src/control.c **** #define SETPOINT_TEMPERATURE 33
  11:src/control.c **** #define NMAX 10
  12:src/control.c **** 
  13:src/control.c **** static float action = 0;
  14:src/control.c **** static float last_action = 0;
  15:src/control.c **** static float error = 0;
  16:src/control.c **** static float last_error = 0;
  17:src/control.c **** 
  18:src/control.c **** static float current_time = 0;
  19:src/control.c **** static float last_time = 0;
  20:src/control.c **** 
  21:src/control.c **** // pi control constants
  22:src/control.c **** static float kp = 150;
  23:src/control.c **** static float ki = 9;
  24:src/control.c **** 
  25:src/control.c **** void pi_action(void) {
  83              		.loc 1 25 0
  84              		.cfi_startproc
  85              		@ args = 0, pretend = 0, frame = 8
  86              		@ frame_needed = 1, uses_anonymous_args = 0
  87 0000 90B5     		push	{r4, r7, lr}
  88              		.cfi_def_cfa_offset 12
  89              		.cfi_offset 4, -12
  90              		.cfi_offset 7, -8
  91              		.cfi_offset 14, -4
  92 0002 83B0     		sub	sp, sp, #12
  93              		.cfi_def_cfa_offset 24
  94 0004 00AF     		add	r7, sp, #0
  95              		.cfi_def_cfa_register 7
  96              	.L13:
  97              	.LBB2:
  26:src/control.c ****     for (;;) {
  27:src/control.c ****         float current_temperature = (float) temperature[1] / 10;
  98              		.loc 1 27 0
  99 0006 684B     		ldr	r3, .L21
 100 0008 5B68     		ldr	r3, [r3, #4]
 101 000a 1800     		movs	r0, r3
 102 000c FFF7FEFF 		bl	__aeabi_ui2f
 103              	.LVL0:
 104 0010 031C     		adds	r3, r0, #0
ARM GAS  /tmp/ccQxVkpA.s 			page 3


 105 0012 6649     		ldr	r1, .L21+4
 106 0014 181C     		adds	r0, r3, #0
 107 0016 FFF7FEFF 		bl	__aeabi_fdiv
 108              	.LVL1:
 109 001a 031C     		adds	r3, r0, #0
 110 001c 7B60     		str	r3, [r7, #4]
  28:src/control.c **** 
  29:src/control.c ****         current_time = HAL_GetTick() / 1000;
 111              		.loc 1 29 0
 112 001e FFF7FEFF 		bl	HAL_GetTick
 113 0022 0200     		movs	r2, r0
 114 0024 FA23     		movs	r3, #250
 115 0026 9900     		lsls	r1, r3, #2
 116 0028 1000     		movs	r0, r2
 117 002a FFF7FEFF 		bl	__aeabi_uidiv
 118              	.LVL2:
 119 002e 0300     		movs	r3, r0
 120 0030 1800     		movs	r0, r3
 121 0032 FFF7FEFF 		bl	__aeabi_ui2f
 122              	.LVL3:
 123 0036 021C     		adds	r2, r0, #0
 124 0038 5D4B     		ldr	r3, .L21+8
 125 003a 1A60     		str	r2, [r3]
  30:src/control.c ****         error = SETPOINT_TEMPERATURE - current_temperature;
 126              		.loc 1 30 0
 127 003c 7968     		ldr	r1, [r7, #4]
 128 003e 5D48     		ldr	r0, .L21+12
 129 0040 FFF7FEFF 		bl	__aeabi_fsub
 130              	.LVL4:
 131 0044 031C     		adds	r3, r0, #0
 132 0046 1A1C     		adds	r2, r3, #0
 133 0048 5B4B     		ldr	r3, .L21+16
 134 004a 1A60     		str	r2, [r3]
  31:src/control.c ****         action = last_action + kp * (error - last_error) + ki * (current_time - last_time) * error;
 135              		.loc 1 31 0
 136 004c 5A4B     		ldr	r3, .L21+16
 137 004e 1A68     		ldr	r2, [r3]
 138 0050 5A4B     		ldr	r3, .L21+20
 139 0052 1B68     		ldr	r3, [r3]
 140 0054 191C     		adds	r1, r3, #0
 141 0056 101C     		adds	r0, r2, #0
 142 0058 FFF7FEFF 		bl	__aeabi_fsub
 143              	.LVL5:
 144 005c 031C     		adds	r3, r0, #0
 145 005e 1A1C     		adds	r2, r3, #0
 146 0060 574B     		ldr	r3, .L21+24
 147 0062 1B68     		ldr	r3, [r3]
 148 0064 191C     		adds	r1, r3, #0
 149 0066 101C     		adds	r0, r2, #0
 150 0068 FFF7FEFF 		bl	__aeabi_fmul
 151              	.LVL6:
 152 006c 031C     		adds	r3, r0, #0
 153 006e 1A1C     		adds	r2, r3, #0
 154 0070 544B     		ldr	r3, .L21+28
 155 0072 1B68     		ldr	r3, [r3]
 156 0074 191C     		adds	r1, r3, #0
 157 0076 101C     		adds	r0, r2, #0
ARM GAS  /tmp/ccQxVkpA.s 			page 4


 158 0078 FFF7FEFF 		bl	__aeabi_fadd
 159              	.LVL7:
 160 007c 031C     		adds	r3, r0, #0
 161 007e 1C1C     		adds	r4, r3, #0
 162 0080 4B4B     		ldr	r3, .L21+8
 163 0082 1A68     		ldr	r2, [r3]
 164 0084 504B     		ldr	r3, .L21+32
 165 0086 1B68     		ldr	r3, [r3]
 166 0088 191C     		adds	r1, r3, #0
 167 008a 101C     		adds	r0, r2, #0
 168 008c FFF7FEFF 		bl	__aeabi_fsub
 169              	.LVL8:
 170 0090 031C     		adds	r3, r0, #0
 171 0092 1A1C     		adds	r2, r3, #0
 172 0094 4D4B     		ldr	r3, .L21+36
 173 0096 1B68     		ldr	r3, [r3]
 174 0098 191C     		adds	r1, r3, #0
 175 009a 101C     		adds	r0, r2, #0
 176 009c FFF7FEFF 		bl	__aeabi_fmul
 177              	.LVL9:
 178 00a0 031C     		adds	r3, r0, #0
 179 00a2 1A1C     		adds	r2, r3, #0
 180 00a4 444B     		ldr	r3, .L21+16
 181 00a6 1B68     		ldr	r3, [r3]
 182 00a8 191C     		adds	r1, r3, #0
 183 00aa 101C     		adds	r0, r2, #0
 184 00ac FFF7FEFF 		bl	__aeabi_fmul
 185              	.LVL10:
 186 00b0 031C     		adds	r3, r0, #0
 187 00b2 191C     		adds	r1, r3, #0
 188 00b4 201C     		adds	r0, r4, #0
 189 00b6 FFF7FEFF 		bl	__aeabi_fadd
 190              	.LVL11:
 191 00ba 031C     		adds	r3, r0, #0
 192 00bc 1A1C     		adds	r2, r3, #0
 193 00be 444B     		ldr	r3, .L21+40
 194 00c0 1A60     		str	r2, [r3]
  32:src/control.c ****         last_time = current_time;
 195              		.loc 1 32 0
 196 00c2 3B4B     		ldr	r3, .L21+8
 197 00c4 1A68     		ldr	r2, [r3]
 198 00c6 404B     		ldr	r3, .L21+32
 199 00c8 1A60     		str	r2, [r3]
  33:src/control.c **** 
  34:src/control.c ****         // limit action value
  35:src/control.c ****         if (action > 1000) {
 200              		.loc 1 35 0
 201 00ca 414B     		ldr	r3, .L21+40
 202 00cc 1B68     		ldr	r3, [r3]
 203 00ce 4149     		ldr	r1, .L21+44
 204 00d0 181C     		adds	r0, r3, #0
 205 00d2 FFF7FEFF 		bl	__aeabi_fcmpgt
 206              	.LVL12:
 207 00d6 031E     		subs	r3, r0, #0
 208 00d8 03D0     		beq	.L19
  36:src/control.c ****             action = 1000;
 209              		.loc 1 36 0
ARM GAS  /tmp/ccQxVkpA.s 			page 5


 210 00da 3D4B     		ldr	r3, .L21+40
 211 00dc 3D4A     		ldr	r2, .L21+44
 212 00de 1A60     		str	r2, [r3]
 213 00e0 0AE0     		b	.L4
 214              	.L19:
  37:src/control.c ****         } else if (action < -1000) {
 215              		.loc 1 37 0
 216 00e2 3B4B     		ldr	r3, .L21+40
 217 00e4 1B68     		ldr	r3, [r3]
 218 00e6 3C49     		ldr	r1, .L21+48
 219 00e8 181C     		adds	r0, r3, #0
 220 00ea FFF7FEFF 		bl	__aeabi_fcmplt
 221              	.LVL13:
 222 00ee 031E     		subs	r3, r0, #0
 223 00f0 02D0     		beq	.L4
  38:src/control.c ****             action = -1000;
 224              		.loc 1 38 0
 225 00f2 374B     		ldr	r3, .L21+40
 226 00f4 384A     		ldr	r2, .L21+48
 227 00f6 1A60     		str	r2, [r3]
 228              	.L4:
  39:src/control.c ****         }
  40:src/control.c **** 
  41:src/control.c ****         if (action < 0 && temperature[0] < temperature[1]) {
 229              		.loc 1 41 0
 230 00f8 354B     		ldr	r3, .L21+40
 231 00fa 1B68     		ldr	r3, [r3]
 232 00fc 0021     		movs	r1, #0
 233 00fe 181C     		adds	r0, r3, #0
 234 0100 FFF7FEFF 		bl	__aeabi_fcmplt
 235              	.LVL14:
 236 0104 031E     		subs	r3, r0, #0
 237 0106 18D0     		beq	.L6
 238              		.loc 1 41 0 is_stmt 0 discriminator 1
 239 0108 274B     		ldr	r3, .L21
 240 010a 1A68     		ldr	r2, [r3]
 241 010c 264B     		ldr	r3, .L21
 242 010e 5B68     		ldr	r3, [r3, #4]
 243 0110 9A42     		cmp	r2, r3
 244 0112 12D2     		bcs	.L6
  42:src/control.c ****             set_fan(TOP_FAN, action);
 245              		.loc 1 42 0 is_stmt 1
 246 0114 2E4B     		ldr	r3, .L21+40
 247 0116 1B68     		ldr	r3, [r3]
 248 0118 181C     		adds	r0, r3, #0
 249 011a FFF7FEFF 		bl	__aeabi_f2uiz
 250              	.LVL15:
 251 011e 0300     		movs	r3, r0
 252 0120 9BB2     		uxth	r3, r3
 253 0122 1900     		movs	r1, r3
 254 0124 0020     		movs	r0, #0
 255 0126 FFF7FEFF 		bl	set_fan
  43:src/control.c ****             set_fan(BOTTOM_FAN, 0);
 256              		.loc 1 43 0
 257 012a 0021     		movs	r1, #0
 258 012c 0120     		movs	r0, #1
 259 012e FFF7FEFF 		bl	set_fan
ARM GAS  /tmp/ccQxVkpA.s 			page 6


  44:src/control.c ****             resistors_state(OFF);
 260              		.loc 1 44 0
 261 0132 0120     		movs	r0, #1
 262 0134 FFF7FEFF 		bl	resistors_state
 263 0138 2DE0     		b	.L8
 264              	.L6:
  45:src/control.c ****         } else if (action > 0) {
 265              		.loc 1 45 0
 266 013a 254B     		ldr	r3, .L21+40
 267 013c 1B68     		ldr	r3, [r3]
 268 013e 0021     		movs	r1, #0
 269 0140 181C     		adds	r0, r3, #0
 270 0142 FFF7FEFF 		bl	__aeabi_fcmpgt
 271              	.LVL16:
 272 0146 031E     		subs	r3, r0, #0
 273 0148 1AD0     		beq	.L20
  46:src/control.c ****             if (error > 5) {
 274              		.loc 1 46 0
 275 014a 1B4B     		ldr	r3, .L21+16
 276 014c 1B68     		ldr	r3, [r3]
 277 014e 2349     		ldr	r1, .L21+52
 278 0150 181C     		adds	r0, r3, #0
 279 0152 FFF7FEFF 		bl	__aeabi_fcmpgt
 280              	.LVL17:
 281 0156 031E     		subs	r3, r0, #0
 282 0158 02D0     		beq	.L11
  47:src/control.c ****                 resistors_state(ON);
 283              		.loc 1 47 0
 284 015a 0020     		movs	r0, #0
 285 015c FFF7FEFF 		bl	resistors_state
 286              	.L11:
  48:src/control.c ****             }
  49:src/control.c ****             set_fan(TOP_FAN, 0);
 287              		.loc 1 49 0
 288 0160 0021     		movs	r1, #0
 289 0162 0020     		movs	r0, #0
 290 0164 FFF7FEFF 		bl	set_fan
  50:src/control.c ****             set_fan(BOTTOM_FAN, action);
 291              		.loc 1 50 0
 292 0168 194B     		ldr	r3, .L21+40
 293 016a 1B68     		ldr	r3, [r3]
 294 016c 181C     		adds	r0, r3, #0
 295 016e FFF7FEFF 		bl	__aeabi_f2uiz
 296              	.LVL18:
 297 0172 0300     		movs	r3, r0
 298 0174 9BB2     		uxth	r3, r3
 299 0176 1900     		movs	r1, r3
 300 0178 0120     		movs	r0, #1
 301 017a FFF7FEFF 		bl	set_fan
 302 017e 0AE0     		b	.L8
 303              	.L20:
  51:src/control.c ****         } else {
  52:src/control.c ****             set_fan(TOP_FAN, 0);
 304              		.loc 1 52 0
 305 0180 0021     		movs	r1, #0
 306 0182 0020     		movs	r0, #0
 307 0184 FFF7FEFF 		bl	set_fan
ARM GAS  /tmp/ccQxVkpA.s 			page 7


  53:src/control.c ****             set_fan(BOTTOM_FAN, 0);
 308              		.loc 1 53 0
 309 0188 0021     		movs	r1, #0
 310 018a 0120     		movs	r0, #1
 311 018c FFF7FEFF 		bl	set_fan
  54:src/control.c ****             resistors_state(OFF);
 312              		.loc 1 54 0
 313 0190 0120     		movs	r0, #1
 314 0192 FFF7FEFF 		bl	resistors_state
 315              	.L8:
  55:src/control.c ****         }
  56:src/control.c **** 
  57:src/control.c ****         last_error = error;
 316              		.loc 1 57 0
 317 0196 084B     		ldr	r3, .L21+16
 318 0198 1A68     		ldr	r2, [r3]
 319 019a 084B     		ldr	r3, .L21+20
 320 019c 1A60     		str	r2, [r3]
  58:src/control.c ****         last_action = action;
 321              		.loc 1 58 0
 322 019e 0C4B     		ldr	r3, .L21+40
 323 01a0 1A68     		ldr	r2, [r3]
 324 01a2 084B     		ldr	r3, .L21+28
 325 01a4 1A60     		str	r2, [r3]
 326              	.LBE2:
  26:src/control.c ****         float current_temperature = (float) temperature[1] / 10;
 327              		.loc 1 26 0
 328 01a6 2EE7     		b	.L13
 329              	.L22:
 330              		.align	2
 331              	.L21:
 332 01a8 00000000 		.word	temperature
 333 01ac 00002041 		.word	1092616192
 334 01b0 00000000 		.word	current_time
 335 01b4 00000442 		.word	1107558400
 336 01b8 00000000 		.word	error
 337 01bc 00000000 		.word	last_error
 338 01c0 00000000 		.word	kp
 339 01c4 00000000 		.word	last_action
 340 01c8 00000000 		.word	last_time
 341 01cc 00000000 		.word	ki
 342 01d0 00000000 		.word	action
 343 01d4 00007A44 		.word	1148846080
 344 01d8 00007AC4 		.word	-998637568
 345 01dc 0000A040 		.word	1084227584
 346              		.cfi_endproc
 347              	.LFE37:
 349              		.text
 350              	.Letext0:
 351              		.file 2 "/home/lhaug/Applications/gcc-arm-none-eabi-7-2018-q2-update/arm-none-eabi/include/machine
 352              		.file 3 "/home/lhaug/Applications/gcc-arm-none-eabi-7-2018-q2-update/arm-none-eabi/include/sys/_st
 353              		.file 4 "cube/Drivers/CMSIS/Device/ST/STM32F0xx/Include/system_stm32f0xx.h"
 354              		.file 5 "/home/lhaug/Applications/gcc-arm-none-eabi-7-2018-q2-update/arm-none-eabi/include/sys/loc
 355              		.file 6 "/home/lhaug/Applications/gcc-arm-none-eabi-7-2018-q2-update/arm-none-eabi/include/sys/_ty
 356              		.file 7 "/home/lhaug/Applications/gcc-arm-none-eabi-7-2018-q2-update/lib/gcc/arm-none-eabi/7.3.1/i
 357              		.file 8 "/home/lhaug/Applications/gcc-arm-none-eabi-7-2018-q2-update/arm-none-eabi/include/sys/ree
 358              		.file 9 "inc/sensors.h"
ARM GAS  /tmp/ccQxVkpA.s 			page 8


 359              		.file 10 "inc/fans.h"
 360              		.file 11 "inc/power_resistors.h"
ARM GAS  /tmp/ccQxVkpA.s 			page 9


DEFINED SYMBOLS
                            *ABS*:0000000000000000 control.c
     /tmp/ccQxVkpA.s:16     .bss.action:0000000000000000 $d
     /tmp/ccQxVkpA.s:19     .bss.action:0000000000000000 action
     /tmp/ccQxVkpA.s:22     .bss.last_action:0000000000000000 $d
     /tmp/ccQxVkpA.s:25     .bss.last_action:0000000000000000 last_action
     /tmp/ccQxVkpA.s:28     .bss.error:0000000000000000 $d
     /tmp/ccQxVkpA.s:31     .bss.error:0000000000000000 error
     /tmp/ccQxVkpA.s:34     .bss.last_error:0000000000000000 $d
     /tmp/ccQxVkpA.s:37     .bss.last_error:0000000000000000 last_error
     /tmp/ccQxVkpA.s:40     .bss.current_time:0000000000000000 $d
     /tmp/ccQxVkpA.s:43     .bss.current_time:0000000000000000 current_time
     /tmp/ccQxVkpA.s:46     .bss.last_time:0000000000000000 $d
     /tmp/ccQxVkpA.s:49     .bss.last_time:0000000000000000 last_time
     /tmp/ccQxVkpA.s:52     .data.kp:0000000000000000 $d
     /tmp/ccQxVkpA.s:55     .data.kp:0000000000000000 kp
     /tmp/ccQxVkpA.s:58     .data.ki:0000000000000000 $d
     /tmp/ccQxVkpA.s:61     .data.ki:0000000000000000 ki
     /tmp/ccQxVkpA.s:73     .text.pi_action:0000000000000000 $t
     /tmp/ccQxVkpA.s:80     .text.pi_action:0000000000000000 pi_action
     /tmp/ccQxVkpA.s:332    .text.pi_action:00000000000001a8 $d
                           .group:0000000000000000 wm4.0.b7c3d577b02d87ac381ee43eef398462
                           .group:0000000000000000 wm4._newlib_version.h.4.875b979a44719054cd750d0952ad3fd6
                           .group:0000000000000000 wm4.features.h.33.d0b7f3cd6ee95f610104014bb3ed522a
                           .group:0000000000000000 wm4._default_types.h.15.247e5cd201eca3442cbf5404108c4935
                           .group:0000000000000000 wm4._intsup.h.10.cce27fed8484c08a33f522034c30d2b5
                           .group:0000000000000000 wm4._stdint.h.10.c24fa3af3bc1706662bb5593a907e841
                           .group:0000000000000000 wm4.stdint.h.23.d53047a68f4a85177f80b422d52785ed
                           .group:0000000000000000 wm4.main.h.42.3939338cba6ab0a8b761d08be8206d51
                           .group:0000000000000000 wm4.stm32f0xx_hal_conf.h.51.b0c07d2233f75e3b04f03d95093d88ca
                           .group:0000000000000000 wm4.stm32f0xx.h.55.6dda558900ae83b4ddf41af91bcbf2f5
                           .group:0000000000000000 wm4.stm32f072xb.h.53.c99f4c72149ed98740992cfc418a4d39
                           .group:0000000000000000 wm4.core_cm0.h.42.7022e4f00906b4c8e9c5322381e90c37
                           .group:0000000000000000 wm4.cmsis_gcc.h.36.5bb14fd68ce7855540fcfe2d9305ae16
                           .group:0000000000000000 wm4.core_cm0.h.175.2353140684a11cc8267b4125ac92735e
                           .group:0000000000000000 wm4.stm32f072xb.h.653.664388dc5ef2a697008be7ff13986fc5
                           .group:0000000000000000 wm4.stm32f0xx.h.186.8a2f1abf0fccd74c76b01fef06350694
                           .group:0000000000000000 wm4.newlib.h.8.f6e543eac3f2f65163ba2ffe3b04987b
                           .group:0000000000000000 wm4.ieeefp.h.77.220d9cccac42cd58761758bee2df4ce6
                           .group:0000000000000000 wm4.config.h.220.6cac6a9685cfce5e83c17784171638d9
                           .group:0000000000000000 wm4._ansi.h.31.de524f58584151836e90d8620a16f8e8
                           .group:0000000000000000 wm4.stdio.h.31.7c0e28c411445f3f9c5b11accf882760
                           .group:0000000000000000 wm4.stddef.h.187.2ff233552538c6ff9b8575ca8ea52cb3
                           .group:0000000000000000 wm4.cdefs.h.47.0bcdf94cb40e176393dd1404056825b4
                           .group:0000000000000000 wm4.stddef.h.39.ec95e8feac892e292b69dc7ae75b0d64
                           .group:0000000000000000 wm4.stdarg.h.34.3a23a216c0c293b3d2ea2e89281481e6
                           .group:0000000000000000 wm4.lock.h.2.1461d1fff82dffe8bfddc23307f6484f
                           .group:0000000000000000 wm4._types.h.125.5cf8a495f1f7ef36777ad868a1e32068
                           .group:0000000000000000 wm4.stddef.h.161.5349cb105733e8777bfb0cf53c4e3f34
                           .group:0000000000000000 wm4._types.h.184.03611d4f6b5bec9997bcf4279eceba07
                           .group:0000000000000000 wm4.reent.h.17.90c2574d4acdcfce933db5cb09ff35fe
                           .group:0000000000000000 wm4.types.h.40.e8c16e7ec36ba55f133d0616070e25fc
                           .group:0000000000000000 wm4.types.h.114.fb65732f4f5f288a036a25898de2c91f
                           .group:0000000000000000 wm4.stdio.h.2.4aa87247282eca6c8f36f9de33d8df1a
                           .group:0000000000000000 wm4.stdio.h.81.2a55589bfa3ee24eeb84e3c79458e4a9
                           .group:0000000000000000 wm4.stm32f0xx_hal_def.h.76.81362c22f1bfa407bb20bdc5ef2fe817
                           .group:0000000000000000 wm4.stm32f0xx_hal_rcc.h.64.1680b96367ed05251327e73e2ef7e0a0
ARM GAS  /tmp/ccQxVkpA.s 			page 10


                           .group:0000000000000000 wm4.stm32f0xx_hal_rcc_ex.h.38.fed157297eb0e49fa475a8f4d962b1a1
                           .group:0000000000000000 wm4.stm32f0xx_hal_gpio.h.38.5de46a121e30d1d136216266f57becb9
                           .group:0000000000000000 wm4.stm32f0xx_hal_gpio_ex.h.38.4ae096506dfd35e4cd1e2bfdbf19c71f
                           .group:0000000000000000 wm4.stm32f0xx_hal_dma.h.38.9bc992aa465d2468bc055502b51063f3
                           .group:0000000000000000 wm4.stm32f0xx_hal_dma_ex.h.38.c2269542e0bcc97944af39289a0a60b8
                           .group:0000000000000000 wm4.stm32f0xx_hal_dma.h.500.3b36a5be41f3e2ac138f4041ccf5cecb
                           .group:0000000000000000 wm4.stm32f0xx_hal_cortex.h.38.61b1088b7495d338bc65ee2571a0bb95
                           .group:0000000000000000 wm4.stm32f0xx_hal_adc.h.38.e3e4bca0d8b91dc0f73ca672bc0e5aca
                           .group:0000000000000000 wm4.stm32f0xx_hal_adc_ex.h.38.79c684f1976d63630feab98f4d82be4a
                           .group:0000000000000000 wm4.stm32f0xx_hal_flash.h.38.752a2d52b6ea91b900355f4ecd0538c0
                           .group:0000000000000000 wm4.stm32f0xx_hal_flash_ex.h.38.8097982a0077322c9b7a892e64a756d8
                           .group:0000000000000000 wm4.stm32f0xx_hal_i2c.h.38.387f38a4bc9cbea958e7081da9f60815
                           .group:0000000000000000 wm4.stm32f0xx_hal_i2c_ex.h.38.9a4523b2ddbaaa2727287ccab47d88d1
                           .group:0000000000000000 wm4.stm32f0xx_hal_i2c.h.625.1e7eff54876bba211f769007bbafd5f1
                           .group:0000000000000000 wm4.stm32f0xx_hal_pwr.h.38.2c4d8c2e90fc76cec57b78b078d485d1
                           .group:0000000000000000 wm4.stm32f0xx_hal_pwr_ex.h.38.e18331c4036598a45f5d1fd3922b2997
                           .group:0000000000000000 wm4.stm32f0xx_hal_tim.h.38.42f3ee0b54a54fc44c665553058edb38
                           .group:0000000000000000 wm4.stm32f0xx_hal_tim_ex.h.38.12cd16a4e412877272e70689edb6b518
                           .group:0000000000000000 wm4.stm32f0xx_hal_uart.h.38.e5eada3cdf37ca88de33bd21ddd21a5e
                           .group:0000000000000000 wm4.stm32f0xx_hal_uart_ex.h.38.9430c2ca5ec832677dbe7308c46115fd
                           .group:0000000000000000 wm4.stm32f0xx_hal.h.70.818459bc3b31dd9e51543930b5b3b8df
                           .group:0000000000000000 wm4.sensors.h.2.f28ea8c1f27d3bcba17595cfaf244921

UNDEFINED SYMBOLS
__aeabi_ui2f
__aeabi_fdiv
__aeabi_uidiv
__aeabi_fsub
__aeabi_fmul
__aeabi_fadd
__aeabi_fcmpgt
__aeabi_fcmplt
__aeabi_f2uiz
HAL_GetTick
set_fan
resistors_state
temperature
