ARM GAS  /tmp/cctie3E4.s 			page 1


   1              		.cpu cortex-m0
   2              		.eabi_attribute 20, 1
   3              		.eabi_attribute 21, 1
   4              		.eabi_attribute 23, 3
   5              		.eabi_attribute 24, 1
   6              		.eabi_attribute 25, 1
   7              		.eabi_attribute 26, 1
   8              		.eabi_attribute 30, 1
   9              		.eabi_attribute 34, 0
  10              		.eabi_attribute 18, 4
  11              		.file	"fans.c"
  12              		.text
  13              	.Ltext0:
  14              		.cfi_sections	.debug_frame
  15              		.section	.text.fans_init,"ax",%progbits
  16              		.align	1
  17              		.global	fans_init
  18              		.syntax unified
  19              		.code	16
  20              		.thumb_func
  21              		.fpu softvfp
  23              	fans_init:
  24              	.LFB37:
  25              		.file 1 "src/fans.c"
   1:src/fans.c    **** #include <stdbool.h>
   2:src/fans.c    **** #include <stdint.h>
   3:src/fans.c    **** 
   4:src/fans.c    **** #include "fans.h"
   5:src/fans.c    **** #include "gpio.h"
   6:src/fans.c    **** #include "tim.h"
   7:src/fans.c    **** #include "stm32f0xx_hal_tim.h"
   8:src/fans.c    **** 
   9:src/fans.c    **** bool fan_on = false;
  10:src/fans.c    **** 
  11:src/fans.c    **** void fans_init() {
  26              		.loc 1 11 0
  27              		.cfi_startproc
  28              		@ args = 0, pretend = 0, frame = 0
  29              		@ frame_needed = 0, uses_anonymous_args = 0
  30 0000 10B5     		push	{r4, lr}
  31              		.cfi_def_cfa_offset 8
  32              		.cfi_offset 4, -8
  33              		.cfi_offset 14, -4
  12:src/fans.c    ****     MX_TIM1_Init();
  34              		.loc 1 12 0
  35 0002 FFF7FEFF 		bl	MX_TIM1_Init
  36              	.LVL0:
  13:src/fans.c    ****     HAL_TIM_PWM_Start(&htim1, TIM_CHANNEL_1);
  37              		.loc 1 13 0
  38 0006 0B4C     		ldr	r4, .L2
  39 0008 0021     		movs	r1, #0
  40 000a 2000     		movs	r0, r4
  41 000c FFF7FEFF 		bl	HAL_TIM_PWM_Start
  42              	.LVL1:
  14:src/fans.c    ****     HAL_TIM_PWM_Start(&htim1, TIM_CHANNEL_2);
  43              		.loc 1 14 0
  44 0010 0421     		movs	r1, #4
ARM GAS  /tmp/cctie3E4.s 			page 2


  45 0012 2000     		movs	r0, r4
  46 0014 FFF7FEFF 		bl	HAL_TIM_PWM_Start
  47              	.LVL2:
  15:src/fans.c    **** 
  16:src/fans.c    ****     // primeira ponte H
  17:src/fans.c    ****     HAL_GPIO_WritePin(GPIOB, GPIO_PIN_10, GPIO_PIN_SET);
  48              		.loc 1 17 0
  49 0018 8021     		movs	r1, #128
  50 001a 074C     		ldr	r4, .L2+4
  51 001c 0122     		movs	r2, #1
  52 001e C900     		lsls	r1, r1, #3
  53 0020 2000     		movs	r0, r4
  54 0022 FFF7FEFF 		bl	HAL_GPIO_WritePin
  55              	.LVL3:
  18:src/fans.c    ****     HAL_GPIO_WritePin(GPIOB, GPIO_PIN_4, GPIO_PIN_RESET);
  56              		.loc 1 18 0
  57 0026 0022     		movs	r2, #0
  58 0028 1021     		movs	r1, #16
  59 002a 2000     		movs	r0, r4
  60 002c FFF7FEFF 		bl	HAL_GPIO_WritePin
  61              	.LVL4:
  19:src/fans.c    **** 
  20:src/fans.c    ****     // segunda ponte H - ver se é necessário, se pode usar o mesmo sinal do uC da primeira ponte
  21:src/fans.c    ****     // HAL_GPIO_WritePin(GPIOX, GPIO_PIN_X, GPIO_PIN_SET);
  22:src/fans.c    ****     // HAL_GPIO_WritePin(GPIOX, GPIO_PIN_X, GPIO_PIN_RESET);
  23:src/fans.c    **** }
  62              		.loc 1 23 0
  63              		@ sp needed
  64 0030 10BD     		pop	{r4, pc}
  65              	.L3:
  66 0032 C046     		.align	2
  67              	.L2:
  68 0034 00000000 		.word	htim1
  69 0038 00040048 		.word	1207960576
  70              		.cfi_endproc
  71              	.LFE37:
  73              		.section	.text.fan_speed,"ax",%progbits
  74              		.align	1
  75              		.global	fan_speed
  76              		.syntax unified
  77              		.code	16
  78              		.thumb_func
  79              		.fpu softvfp
  81              	fan_speed:
  82              	.LFB38:
  24:src/fans.c    **** 
  25:src/fans.c    **** void fan_speed(fan_t fan, uint16_t speed) {
  83              		.loc 1 25 0
  84              		.cfi_startproc
  85              		@ args = 0, pretend = 0, frame = 0
  86              		@ frame_needed = 0, uses_anonymous_args = 0
  87              		@ link register save eliminated.
  88              	.LVL5:
  26:src/fans.c    ****     switch (fan) {
  89              		.loc 1 26 0
  90 0000 0028     		cmp	r0, #0
  91 0002 02D0     		beq	.L6
ARM GAS  /tmp/cctie3E4.s 			page 3


  92 0004 0128     		cmp	r0, #1
  93 0006 04D0     		beq	.L7
  94              	.L4:
  27:src/fans.c    ****         case FAN_TOP:
  28:src/fans.c    ****             __HAL_TIM_SET_COMPARE(&htim1, TIM_CHANNEL_1, speed);
  29:src/fans.c    ****             break;
  30:src/fans.c    ****         case FAN_DOWN:
  31:src/fans.c    ****             __HAL_TIM_SET_COMPARE(&htim1, TIM_CHANNEL_2, speed);
  32:src/fans.c    ****             break;
  33:src/fans.c    ****     }
  34:src/fans.c    **** }
  95              		.loc 1 34 0
  96              		@ sp needed
  97 0008 7047     		bx	lr
  98              	.L6:
  28:src/fans.c    ****             break;
  99              		.loc 1 28 0
 100 000a 044B     		ldr	r3, .L8
 101 000c 1B68     		ldr	r3, [r3]
 102 000e 5963     		str	r1, [r3, #52]
  29:src/fans.c    ****         case FAN_DOWN:
 103              		.loc 1 29 0
 104 0010 FAE7     		b	.L4
 105              	.L7:
  31:src/fans.c    ****             break;
 106              		.loc 1 31 0
 107 0012 024B     		ldr	r3, .L8
 108 0014 1B68     		ldr	r3, [r3]
 109 0016 9963     		str	r1, [r3, #56]
 110              		.loc 1 34 0
 111 0018 F6E7     		b	.L4
 112              	.L9:
 113 001a C046     		.align	2
 114              	.L8:
 115 001c 00000000 		.word	htim1
 116              		.cfi_endproc
 117              	.LFE38:
 119              		.section	.text.HAL_GPIO_EXTI_Callback,"ax",%progbits
 120              		.align	1
 121              		.global	HAL_GPIO_EXTI_Callback
 122              		.syntax unified
 123              		.code	16
 124              		.thumb_func
 125              		.fpu softvfp
 127              	HAL_GPIO_EXTI_Callback:
 128              	.LFB39:
  35:src/fans.c    **** 
  36:src/fans.c    **** void HAL_GPIO_EXTI_Callback(uint16_t GPIO_Pin) {
 129              		.loc 1 36 0
 130              		.cfi_startproc
 131              		@ args = 0, pretend = 0, frame = 0
 132              		@ frame_needed = 0, uses_anonymous_args = 0
 133              	.LVL6:
 134 0000 10B5     		push	{r4, lr}
 135              		.cfi_def_cfa_offset 8
 136              		.cfi_offset 4, -8
 137              		.cfi_offset 14, -4
ARM GAS  /tmp/cctie3E4.s 			page 4


 138 0002 0400     		movs	r4, r0
  37:src/fans.c    ****     if (GPIO_Pin == GPIO_PIN_13 && fan_on == false) {
 139              		.loc 1 37 0
 140 0004 8023     		movs	r3, #128
 141 0006 9B01     		lsls	r3, r3, #6
 142 0008 9842     		cmp	r0, r3
 143 000a 09D0     		beq	.L13
 144              	.LVL7:
 145              	.L11:
  38:src/fans.c    ****         fan_speed(FAN_TOP, 1000);
  39:src/fans.c    ****     }
  40:src/fans.c    ****     if (GPIO_Pin == GPIO_PIN_13 && fan_on == true) {
 146              		.loc 1 40 0
 147 000c 8023     		movs	r3, #128
 148 000e 9B01     		lsls	r3, r3, #6
 149 0010 9C42     		cmp	r4, r3
 150 0012 0FD0     		beq	.L14
 151              	.L12:
  41:src/fans.c    ****         fan_speed(FAN_TOP, 0);
  42:src/fans.c    ****     }
  43:src/fans.c    ****     fan_on = !fan_on;
 152              		.loc 1 43 0
 153 0014 0C4A     		ldr	r2, .L15
 154 0016 1378     		ldrb	r3, [r2]
 155 0018 0121     		movs	r1, #1
 156 001a 4B40     		eors	r3, r1
 157 001c 1370     		strb	r3, [r2]
  44:src/fans.c    **** }
 158              		.loc 1 44 0
 159              		@ sp needed
 160 001e 10BD     		pop	{r4, pc}
 161              	.LVL8:
 162              	.L13:
  37:src/fans.c    ****         fan_speed(FAN_TOP, 1000);
 163              		.loc 1 37 0 discriminator 1
 164 0020 094B     		ldr	r3, .L15
 165 0022 1B78     		ldrb	r3, [r3]
 166 0024 002B     		cmp	r3, #0
 167 0026 F1D1     		bne	.L11
  38:src/fans.c    ****     }
 168              		.loc 1 38 0
 169 0028 FA21     		movs	r1, #250
 170 002a 8900     		lsls	r1, r1, #2
 171 002c 0020     		movs	r0, #0
 172              	.LVL9:
 173 002e FFF7FEFF 		bl	fan_speed
 174              	.LVL10:
 175 0032 EBE7     		b	.L11
 176              	.L14:
  40:src/fans.c    ****         fan_speed(FAN_TOP, 0);
 177              		.loc 1 40 0 discriminator 1
 178 0034 044B     		ldr	r3, .L15
 179 0036 1B78     		ldrb	r3, [r3]
 180 0038 002B     		cmp	r3, #0
 181 003a EBD0     		beq	.L12
  41:src/fans.c    ****     }
 182              		.loc 1 41 0
ARM GAS  /tmp/cctie3E4.s 			page 5


 183 003c 0021     		movs	r1, #0
 184 003e 0020     		movs	r0, #0
 185 0040 FFF7FEFF 		bl	fan_speed
 186              	.LVL11:
 187 0044 E6E7     		b	.L12
 188              	.L16:
 189 0046 C046     		.align	2
 190              	.L15:
 191 0048 00000000 		.word	.LANCHOR0
 192              		.cfi_endproc
 193              	.LFE39:
 195              		.global	fan_on
 196              		.section	.bss.fan_on,"aw",%nobits
 197              		.set	.LANCHOR0,. + 0
 200              	fan_on:
 201 0000 00       		.space	1
 202              		.text
 203              	.Letext0:
 204              		.file 2 "/home/lhaug/Applications/gcc-arm-none-eabi-7-2018-q2-update/arm-none-eabi/include/machine
 205              		.file 3 "/home/lhaug/Applications/gcc-arm-none-eabi-7-2018-q2-update/arm-none-eabi/include/sys/_st
 206              		.file 4 "inc/fans.h"
 207              		.file 5 "cube/Drivers/CMSIS/Device/ST/STM32F0xx/Include/system_stm32f0xx.h"
 208              		.file 6 "cube/Drivers/CMSIS/Device/ST/STM32F0xx/Include/stm32f072xb.h"
 209              		.file 7 "/home/lhaug/Applications/gcc-arm-none-eabi-7-2018-q2-update/arm-none-eabi/include/sys/loc
 210              		.file 8 "/home/lhaug/Applications/gcc-arm-none-eabi-7-2018-q2-update/arm-none-eabi/include/sys/_ty
 211              		.file 9 "/home/lhaug/Applications/gcc-arm-none-eabi-7-2018-q2-update/lib/gcc/arm-none-eabi/7.3.1/i
 212              		.file 10 "/home/lhaug/Applications/gcc-arm-none-eabi-7-2018-q2-update/arm-none-eabi/include/sys/re
 213              		.file 11 "cube/Drivers/STM32F0xx_HAL_Driver/Inc/stm32f0xx_hal_def.h"
 214              		.file 12 "cube/Drivers/STM32F0xx_HAL_Driver/Inc/stm32f0xx_hal_gpio.h"
 215              		.file 13 "cube/Drivers/STM32F0xx_HAL_Driver/Inc/stm32f0xx_hal_dma.h"
 216              		.file 14 "cube/Drivers/STM32F0xx_HAL_Driver/Inc/stm32f0xx_hal_tim.h"
 217              		.file 15 "cube/Inc/tim.h"
ARM GAS  /tmp/cctie3E4.s 			page 6


DEFINED SYMBOLS
                            *ABS*:0000000000000000 fans.c
     /tmp/cctie3E4.s:16     .text.fans_init:0000000000000000 $t
     /tmp/cctie3E4.s:23     .text.fans_init:0000000000000000 fans_init
     /tmp/cctie3E4.s:68     .text.fans_init:0000000000000034 $d
     /tmp/cctie3E4.s:74     .text.fan_speed:0000000000000000 $t
     /tmp/cctie3E4.s:81     .text.fan_speed:0000000000000000 fan_speed
     /tmp/cctie3E4.s:115    .text.fan_speed:000000000000001c $d
     /tmp/cctie3E4.s:120    .text.HAL_GPIO_EXTI_Callback:0000000000000000 $t
     /tmp/cctie3E4.s:127    .text.HAL_GPIO_EXTI_Callback:0000000000000000 HAL_GPIO_EXTI_Callback
     /tmp/cctie3E4.s:191    .text.HAL_GPIO_EXTI_Callback:0000000000000048 $d
     /tmp/cctie3E4.s:200    .bss.fan_on:0000000000000000 fan_on
     /tmp/cctie3E4.s:201    .bss.fan_on:0000000000000000 $d
                           .group:0000000000000000 wm4.0.f4162676b8f623651f7a1199aa7e48f7
                           .group:0000000000000000 wm4.stdbool.h.29.07dce69c3b78884144b7f7bd19483461
                           .group:0000000000000000 wm4._newlib_version.h.4.875b979a44719054cd750d0952ad3fd6
                           .group:0000000000000000 wm4.features.h.33.d0b7f3cd6ee95f610104014bb3ed522a
                           .group:0000000000000000 wm4._default_types.h.15.247e5cd201eca3442cbf5404108c4935
                           .group:0000000000000000 wm4._intsup.h.10.cce27fed8484c08a33f522034c30d2b5
                           .group:0000000000000000 wm4._stdint.h.10.c24fa3af3bc1706662bb5593a907e841
                           .group:0000000000000000 wm4.stdint.h.23.d53047a68f4a85177f80b422d52785ed
                           .group:0000000000000000 wm4.main.h.42.f591c98852cf8b31b9d28a7417223f7f
                           .group:0000000000000000 wm4.stm32f0xx_hal_conf.h.51.e02fa95cc55e74dee1039d0a6f374aae
                           .group:0000000000000000 wm4.stm32f0xx.h.55.6dda558900ae83b4ddf41af91bcbf2f5
                           .group:0000000000000000 wm4.stm32f072xb.h.53.c99f4c72149ed98740992cfc418a4d39
                           .group:0000000000000000 wm4.core_cm0.h.42.7022e4f00906b4c8e9c5322381e90c37
                           .group:0000000000000000 wm4.cmsis_gcc.h.36.5bb14fd68ce7855540fcfe2d9305ae16
                           .group:0000000000000000 wm4.core_cm0.h.175.2353140684a11cc8267b4125ac92735e
                           .group:0000000000000000 wm4.stm32f072xb.h.653.664388dc5ef2a697008be7ff13986fc5
                           .group:0000000000000000 wm4.stm32f0xx.h.186.8a2f1abf0fccd74c76b01fef06350694
                           .group:0000000000000000 wm4.newlib.h.8.f6e543eac3f2f65163ba2ffe3b04987b
                           .group:0000000000000000 wm4.ieeefp.h.77.220d9cccac42cd58761758bee2df4ce6
                           .group:0000000000000000 wm4.config.h.220.6cac6a9685cfce5e83c17784171638d9
                           .group:0000000000000000 wm4._ansi.h.31.de524f58584151836e90d8620a16f8e8
                           .group:0000000000000000 wm4.stdio.h.31.7c0e28c411445f3f9c5b11accf882760
                           .group:0000000000000000 wm4.stddef.h.187.2ff233552538c6ff9b8575ca8ea52cb3
                           .group:0000000000000000 wm4.cdefs.h.47.0bcdf94cb40e176393dd1404056825b4
                           .group:0000000000000000 wm4.stddef.h.39.ec95e8feac892e292b69dc7ae75b0d64
                           .group:0000000000000000 wm4.stdarg.h.34.3a23a216c0c293b3d2ea2e89281481e6
                           .group:0000000000000000 wm4.lock.h.2.1461d1fff82dffe8bfddc23307f6484f
                           .group:0000000000000000 wm4._types.h.125.5cf8a495f1f7ef36777ad868a1e32068
                           .group:0000000000000000 wm4.stddef.h.161.5349cb105733e8777bfb0cf53c4e3f34
                           .group:0000000000000000 wm4._types.h.184.03611d4f6b5bec9997bcf4279eceba07
                           .group:0000000000000000 wm4.reent.h.17.90c2574d4acdcfce933db5cb09ff35fe
                           .group:0000000000000000 wm4.types.h.40.e8c16e7ec36ba55f133d0616070e25fc
                           .group:0000000000000000 wm4.types.h.114.fb65732f4f5f288a036a25898de2c91f
                           .group:0000000000000000 wm4.stdio.h.2.4aa87247282eca6c8f36f9de33d8df1a
                           .group:0000000000000000 wm4.stdio.h.81.2a55589bfa3ee24eeb84e3c79458e4a9
                           .group:0000000000000000 wm4.stm32f0xx_hal_def.h.76.81362c22f1bfa407bb20bdc5ef2fe817
                           .group:0000000000000000 wm4.stm32f0xx_hal_rcc.h.64.1680b96367ed05251327e73e2ef7e0a0
                           .group:0000000000000000 wm4.stm32f0xx_hal_rcc_ex.h.38.fed157297eb0e49fa475a8f4d962b1a1
                           .group:0000000000000000 wm4.stm32f0xx_hal_gpio.h.38.5de46a121e30d1d136216266f57becb9
                           .group:0000000000000000 wm4.stm32f0xx_hal_gpio_ex.h.38.4ae096506dfd35e4cd1e2bfdbf19c71f
                           .group:0000000000000000 wm4.stm32f0xx_hal_dma.h.38.9bc992aa465d2468bc055502b51063f3
                           .group:0000000000000000 wm4.stm32f0xx_hal_dma_ex.h.38.c2269542e0bcc97944af39289a0a60b8
                           .group:0000000000000000 wm4.stm32f0xx_hal_dma.h.500.3b36a5be41f3e2ac138f4041ccf5cecb
                           .group:0000000000000000 wm4.stm32f0xx_hal_cortex.h.38.61b1088b7495d338bc65ee2571a0bb95
ARM GAS  /tmp/cctie3E4.s 			page 7


                           .group:0000000000000000 wm4.stm32f0xx_hal_adc.h.38.e3e4bca0d8b91dc0f73ca672bc0e5aca
                           .group:0000000000000000 wm4.stm32f0xx_hal_adc_ex.h.38.79c684f1976d63630feab98f4d82be4a
                           .group:0000000000000000 wm4.stm32f0xx_hal_flash.h.38.752a2d52b6ea91b900355f4ecd0538c0
                           .group:0000000000000000 wm4.stm32f0xx_hal_flash_ex.h.38.8097982a0077322c9b7a892e64a756d8
                           .group:0000000000000000 wm4.stm32f0xx_hal_i2c.h.38.387f38a4bc9cbea958e7081da9f60815
                           .group:0000000000000000 wm4.stm32f0xx_hal_i2c_ex.h.38.9a4523b2ddbaaa2727287ccab47d88d1
                           .group:0000000000000000 wm4.stm32f0xx_hal_i2c.h.625.1e7eff54876bba211f769007bbafd5f1
                           .group:0000000000000000 wm4.stm32f0xx_hal_pwr.h.38.2c4d8c2e90fc76cec57b78b078d485d1
                           .group:0000000000000000 wm4.stm32f0xx_hal_pwr_ex.h.38.e18331c4036598a45f5d1fd3922b2997
                           .group:0000000000000000 wm4.stm32f0xx_hal_tim.h.38.42f3ee0b54a54fc44c665553058edb38
                           .group:0000000000000000 wm4.stm32f0xx_hal_tim_ex.h.38.12cd16a4e412877272e70689edb6b518
                           .group:0000000000000000 wm4.stm32f0xx_hal.h.70.818459bc3b31dd9e51543930b5b3b8df

UNDEFINED SYMBOLS
MX_TIM1_Init
HAL_TIM_PWM_Start
HAL_GPIO_WritePin
htim1
