ARM GAS  /tmp/ccD0eAn7.s 			page 1


   1              		.cpu cortex-m0
   2              		.eabi_attribute 20, 1
   3              		.eabi_attribute 21, 1
   4              		.eabi_attribute 23, 3
   5              		.eabi_attribute 24, 1
   6              		.eabi_attribute 25, 1
   7              		.eabi_attribute 26, 1
   8              		.eabi_attribute 30, 6
   9              		.eabi_attribute 34, 0
  10              		.eabi_attribute 18, 4
  11              		.file	"gpio.c"
  12              		.text
  13              	.Ltext0:
  14              		.cfi_sections	.debug_frame
  15              		.section	.text.MX_GPIO_Init,"ax",%progbits
  16              		.align	1
  17              		.global	MX_GPIO_Init
  18              		.syntax unified
  19              		.code	16
  20              		.thumb_func
  21              		.fpu softvfp
  23              	MX_GPIO_Init:
  24              	.LFB37:
  25              		.file 1 "cube/Src/gpio.c"
   1:cube/Src/gpio.c **** /**
   2:cube/Src/gpio.c ****   ******************************************************************************
   3:cube/Src/gpio.c ****   * File Name          : gpio.c
   4:cube/Src/gpio.c ****   * Description        : This file provides code for the configuration
   5:cube/Src/gpio.c ****   *                      of all used GPIO pins.
   6:cube/Src/gpio.c ****   ******************************************************************************
   7:cube/Src/gpio.c ****   ** This notice applies to any and all portions of this file
   8:cube/Src/gpio.c ****   * that are not between comment pairs USER CODE BEGIN and
   9:cube/Src/gpio.c ****   * USER CODE END. Other portions of this file, whether 
  10:cube/Src/gpio.c ****   * inserted by the user or by software development tools
  11:cube/Src/gpio.c ****   * are owned by their respective copyright owners.
  12:cube/Src/gpio.c ****   *
  13:cube/Src/gpio.c ****   * COPYRIGHT(c) 2018 STMicroelectronics
  14:cube/Src/gpio.c ****   *
  15:cube/Src/gpio.c ****   * Redistribution and use in source and binary forms, with or without modification,
  16:cube/Src/gpio.c ****   * are permitted provided that the following conditions are met:
  17:cube/Src/gpio.c ****   *   1. Redistributions of source code must retain the above copyright notice,
  18:cube/Src/gpio.c ****   *      this list of conditions and the following disclaimer.
  19:cube/Src/gpio.c ****   *   2. Redistributions in binary form must reproduce the above copyright notice,
  20:cube/Src/gpio.c ****   *      this list of conditions and the following disclaimer in the documentation
  21:cube/Src/gpio.c ****   *      and/or other materials provided with the distribution.
  22:cube/Src/gpio.c ****   *   3. Neither the name of STMicroelectronics nor the names of its contributors
  23:cube/Src/gpio.c ****   *      may be used to endorse or promote products derived from this software
  24:cube/Src/gpio.c ****   *      without specific prior written permission.
  25:cube/Src/gpio.c ****   *
  26:cube/Src/gpio.c ****   * THIS SOFTWARE IS PROVIDED BY THE COPYRIGHT HOLDERS AND CONTRIBUTORS "AS IS"
  27:cube/Src/gpio.c ****   * AND ANY EXPRESS OR IMPLIED WARRANTIES, INCLUDING, BUT NOT LIMITED TO, THE
  28:cube/Src/gpio.c ****   * IMPLIED WARRANTIES OF MERCHANTABILITY AND FITNESS FOR A PARTICULAR PURPOSE ARE
  29:cube/Src/gpio.c ****   * DISCLAIMED. IN NO EVENT SHALL THE COPYRIGHT HOLDER OR CONTRIBUTORS BE LIABLE
  30:cube/Src/gpio.c ****   * FOR ANY DIRECT, INDIRECT, INCIDENTAL, SPECIAL, EXEMPLARY, OR CONSEQUENTIAL
  31:cube/Src/gpio.c ****   * DAMAGES (INCLUDING, BUT NOT LIMITED TO, PROCUREMENT OF SUBSTITUTE GOODS OR
  32:cube/Src/gpio.c ****   * SERVICES; LOSS OF USE, DATA, OR PROFITS; OR BUSINESS INTERRUPTION) HOWEVER
  33:cube/Src/gpio.c ****   * CAUSED AND ON ANY THEORY OF LIABILITY, WHETHER IN CONTRACT, STRICT LIABILITY,
ARM GAS  /tmp/ccD0eAn7.s 			page 2


  34:cube/Src/gpio.c ****   * OR TORT (INCLUDING NEGLIGENCE OR OTHERWISE) ARISING IN ANY WAY OUT OF THE USE
  35:cube/Src/gpio.c ****   * OF THIS SOFTWARE, EVEN IF ADVISED OF THE POSSIBILITY OF SUCH DAMAGE.
  36:cube/Src/gpio.c ****   *
  37:cube/Src/gpio.c ****   ******************************************************************************
  38:cube/Src/gpio.c ****   */
  39:cube/Src/gpio.c **** 
  40:cube/Src/gpio.c **** /* Includes ------------------------------------------------------------------*/
  41:cube/Src/gpio.c **** #include "gpio.h"
  42:cube/Src/gpio.c **** /* USER CODE BEGIN 0 */
  43:cube/Src/gpio.c **** 
  44:cube/Src/gpio.c **** /* USER CODE END 0 */
  45:cube/Src/gpio.c **** 
  46:cube/Src/gpio.c **** /*----------------------------------------------------------------------------*/
  47:cube/Src/gpio.c **** /* Configure GPIO                                                             */
  48:cube/Src/gpio.c **** /*----------------------------------------------------------------------------*/
  49:cube/Src/gpio.c **** /* USER CODE BEGIN 1 */
  50:cube/Src/gpio.c **** 
  51:cube/Src/gpio.c **** /* USER CODE END 1 */
  52:cube/Src/gpio.c **** 
  53:cube/Src/gpio.c **** /** Configure pins as 
  54:cube/Src/gpio.c ****         * Analog 
  55:cube/Src/gpio.c ****         * Input 
  56:cube/Src/gpio.c ****         * Output
  57:cube/Src/gpio.c ****         * EVENT_OUT
  58:cube/Src/gpio.c ****         * EXTI
  59:cube/Src/gpio.c **** */
  60:cube/Src/gpio.c **** void MX_GPIO_Init(void)
  61:cube/Src/gpio.c **** {
  26              		.loc 1 61 0
  27              		.cfi_startproc
  28              		@ args = 0, pretend = 0, frame = 32
  29              		@ frame_needed = 1, uses_anonymous_args = 0
  30 0000 90B5     		push	{r4, r7, lr}
  31              		.cfi_def_cfa_offset 12
  32              		.cfi_offset 4, -12
  33              		.cfi_offset 7, -8
  34              		.cfi_offset 14, -4
  35 0002 89B0     		sub	sp, sp, #36
  36              		.cfi_def_cfa_offset 48
  37 0004 00AF     		add	r7, sp, #0
  38              		.cfi_def_cfa_register 7
  39              	.LBB2:
  62:cube/Src/gpio.c **** 
  63:cube/Src/gpio.c ****   GPIO_InitTypeDef GPIO_InitStruct;
  64:cube/Src/gpio.c **** 
  65:cube/Src/gpio.c ****   /* GPIO Ports Clock Enable */
  66:cube/Src/gpio.c ****   __HAL_RCC_GPIOC_CLK_ENABLE();
  40              		.loc 1 66 0
  41 0006 684B     		ldr	r3, .L2
  42 0008 5A69     		ldr	r2, [r3, #20]
  43 000a 674B     		ldr	r3, .L2
  44 000c 8021     		movs	r1, #128
  45 000e 0903     		lsls	r1, r1, #12
  46 0010 0A43     		orrs	r2, r1
  47 0012 5A61     		str	r2, [r3, #20]
  48 0014 644B     		ldr	r3, .L2
  49 0016 5A69     		ldr	r2, [r3, #20]
ARM GAS  /tmp/ccD0eAn7.s 			page 3


  50 0018 8023     		movs	r3, #128
  51 001a 1B03     		lsls	r3, r3, #12
  52 001c 1340     		ands	r3, r2
  53 001e BB60     		str	r3, [r7, #8]
  54 0020 BB68     		ldr	r3, [r7, #8]
  55              	.LBE2:
  56              	.LBB3:
  67:cube/Src/gpio.c ****   __HAL_RCC_GPIOA_CLK_ENABLE();
  57              		.loc 1 67 0
  58 0022 614B     		ldr	r3, .L2
  59 0024 5A69     		ldr	r2, [r3, #20]
  60 0026 604B     		ldr	r3, .L2
  61 0028 8021     		movs	r1, #128
  62 002a 8902     		lsls	r1, r1, #10
  63 002c 0A43     		orrs	r2, r1
  64 002e 5A61     		str	r2, [r3, #20]
  65 0030 5D4B     		ldr	r3, .L2
  66 0032 5A69     		ldr	r2, [r3, #20]
  67 0034 8023     		movs	r3, #128
  68 0036 9B02     		lsls	r3, r3, #10
  69 0038 1340     		ands	r3, r2
  70 003a 7B60     		str	r3, [r7, #4]
  71 003c 7B68     		ldr	r3, [r7, #4]
  72              	.LBE3:
  73              	.LBB4:
  68:cube/Src/gpio.c ****   __HAL_RCC_GPIOB_CLK_ENABLE();
  74              		.loc 1 68 0
  75 003e 5A4B     		ldr	r3, .L2
  76 0040 5A69     		ldr	r2, [r3, #20]
  77 0042 594B     		ldr	r3, .L2
  78 0044 8021     		movs	r1, #128
  79 0046 C902     		lsls	r1, r1, #11
  80 0048 0A43     		orrs	r2, r1
  81 004a 5A61     		str	r2, [r3, #20]
  82 004c 564B     		ldr	r3, .L2
  83 004e 5A69     		ldr	r2, [r3, #20]
  84 0050 8023     		movs	r3, #128
  85 0052 DB02     		lsls	r3, r3, #11
  86 0054 1340     		ands	r3, r2
  87 0056 3B60     		str	r3, [r7]
  88 0058 3B68     		ldr	r3, [r7]
  89              	.LBE4:
  69:cube/Src/gpio.c **** 
  70:cube/Src/gpio.c ****   /*Configure GPIO pin Output Level */
  71:cube/Src/gpio.c ****   HAL_GPIO_WritePin(Relay___Power_Resistors_GPIO_Port, Relay___Power_Resistors_Pin, GPIO_PIN_RESET)
  90              		.loc 1 71 0
  91 005a 544B     		ldr	r3, .L2+4
  92 005c 0022     		movs	r2, #0
  93 005e 0221     		movs	r1, #2
  94 0060 1800     		movs	r0, r3
  95 0062 FFF7FEFF 		bl	HAL_GPIO_WritePin
  72:cube/Src/gpio.c **** 
  73:cube/Src/gpio.c ****   /*Configure GPIO pin Output Level */
  74:cube/Src/gpio.c ****   HAL_GPIO_WritePin(GPIOA, Green_Led_Pin|Lamps_Pin, GPIO_PIN_RESET);
  96              		.loc 1 74 0
  97 0066 8423     		movs	r3, #132
  98 0068 D900     		lsls	r1, r3, #3
ARM GAS  /tmp/ccD0eAn7.s 			page 4


  99 006a 9023     		movs	r3, #144
 100 006c DB05     		lsls	r3, r3, #23
 101 006e 0022     		movs	r2, #0
 102 0070 1800     		movs	r0, r3
 103 0072 FFF7FEFF 		bl	HAL_GPIO_WritePin
  75:cube/Src/gpio.c **** 
  76:cube/Src/gpio.c ****   /*Configure GPIO pin Output Level */
  77:cube/Src/gpio.c ****   HAL_GPIO_WritePin(GPIOB, H_Bridge_Pin|H_BridgeB4_Pin, GPIO_PIN_RESET);
 104              		.loc 1 77 0
 105 0076 8223     		movs	r3, #130
 106 0078 DB00     		lsls	r3, r3, #3
 107 007a 4D48     		ldr	r0, .L2+8
 108 007c 0022     		movs	r2, #0
 109 007e 1900     		movs	r1, r3
 110 0080 FFF7FEFF 		bl	HAL_GPIO_WritePin
  78:cube/Src/gpio.c **** 
  79:cube/Src/gpio.c ****   /*Configure GPIO pin : PtPin */
  80:cube/Src/gpio.c ****   GPIO_InitStruct.Pin = User_Button_Pin;
 111              		.loc 1 80 0
 112 0084 0C21     		movs	r1, #12
 113 0086 7B18     		adds	r3, r7, r1
 114 0088 8022     		movs	r2, #128
 115 008a 9201     		lsls	r2, r2, #6
 116 008c 1A60     		str	r2, [r3]
  81:cube/Src/gpio.c ****   GPIO_InitStruct.Mode = GPIO_MODE_IT_RISING;
 117              		.loc 1 81 0
 118 008e 7B18     		adds	r3, r7, r1
 119 0090 484A     		ldr	r2, .L2+12
 120 0092 5A60     		str	r2, [r3, #4]
  82:cube/Src/gpio.c ****   GPIO_InitStruct.Pull = GPIO_NOPULL;
 121              		.loc 1 82 0
 122 0094 7B18     		adds	r3, r7, r1
 123 0096 0022     		movs	r2, #0
 124 0098 9A60     		str	r2, [r3, #8]
  83:cube/Src/gpio.c ****   HAL_GPIO_Init(User_Button_GPIO_Port, &GPIO_InitStruct);
 125              		.loc 1 83 0
 126 009a 0C00     		movs	r4, r1
 127 009c 7B18     		adds	r3, r7, r1
 128 009e 434A     		ldr	r2, .L2+4
 129 00a0 1900     		movs	r1, r3
 130 00a2 1000     		movs	r0, r2
 131 00a4 FFF7FEFF 		bl	HAL_GPIO_Init
  84:cube/Src/gpio.c **** 
  85:cube/Src/gpio.c ****   /*Configure GPIO pin : PC14 */
  86:cube/Src/gpio.c ****   GPIO_InitStruct.Pin = GPIO_PIN_14;
 132              		.loc 1 86 0
 133 00a8 2100     		movs	r1, r4
 134 00aa 7B18     		adds	r3, r7, r1
 135 00ac 8022     		movs	r2, #128
 136 00ae D201     		lsls	r2, r2, #7
 137 00b0 1A60     		str	r2, [r3]
  87:cube/Src/gpio.c ****   GPIO_InitStruct.Mode = GPIO_MODE_INPUT;
 138              		.loc 1 87 0
 139 00b2 0C00     		movs	r4, r1
 140 00b4 3B19     		adds	r3, r7, r4
 141 00b6 0022     		movs	r2, #0
 142 00b8 5A60     		str	r2, [r3, #4]
ARM GAS  /tmp/ccD0eAn7.s 			page 5


  88:cube/Src/gpio.c ****   GPIO_InitStruct.Pull = GPIO_NOPULL;
 143              		.loc 1 88 0
 144 00ba 3B19     		adds	r3, r7, r4
 145 00bc 0022     		movs	r2, #0
 146 00be 9A60     		str	r2, [r3, #8]
  89:cube/Src/gpio.c ****   HAL_GPIO_Init(GPIOC, &GPIO_InitStruct);
 147              		.loc 1 89 0
 148 00c0 3B19     		adds	r3, r7, r4
 149 00c2 3A4A     		ldr	r2, .L2+4
 150 00c4 1900     		movs	r1, r3
 151 00c6 1000     		movs	r0, r2
 152 00c8 FFF7FEFF 		bl	HAL_GPIO_Init
  90:cube/Src/gpio.c **** 
  91:cube/Src/gpio.c ****   /*Configure GPIO pin : PtPin */
  92:cube/Src/gpio.c ****   GPIO_InitStruct.Pin = Relay___Power_Resistors_Pin;
 153              		.loc 1 92 0
 154 00cc 3B19     		adds	r3, r7, r4
 155 00ce 0222     		movs	r2, #2
 156 00d0 1A60     		str	r2, [r3]
  93:cube/Src/gpio.c ****   GPIO_InitStruct.Mode = GPIO_MODE_OUTPUT_PP;
 157              		.loc 1 93 0
 158 00d2 3B19     		adds	r3, r7, r4
 159 00d4 0122     		movs	r2, #1
 160 00d6 5A60     		str	r2, [r3, #4]
  94:cube/Src/gpio.c ****   GPIO_InitStruct.Pull = GPIO_PULLDOWN;
 161              		.loc 1 94 0
 162 00d8 3B19     		adds	r3, r7, r4
 163 00da 0222     		movs	r2, #2
 164 00dc 9A60     		str	r2, [r3, #8]
  95:cube/Src/gpio.c ****   GPIO_InitStruct.Speed = GPIO_SPEED_FREQ_LOW;
 165              		.loc 1 95 0
 166 00de 3B19     		adds	r3, r7, r4
 167 00e0 0022     		movs	r2, #0
 168 00e2 DA60     		str	r2, [r3, #12]
  96:cube/Src/gpio.c ****   HAL_GPIO_Init(Relay___Power_Resistors_GPIO_Port, &GPIO_InitStruct);
 169              		.loc 1 96 0
 170 00e4 3B19     		adds	r3, r7, r4
 171 00e6 314A     		ldr	r2, .L2+4
 172 00e8 1900     		movs	r1, r3
 173 00ea 1000     		movs	r0, r2
 174 00ec FFF7FEFF 		bl	HAL_GPIO_Init
  97:cube/Src/gpio.c **** 
  98:cube/Src/gpio.c ****   /*Configure GPIO pin : PtPin */
  99:cube/Src/gpio.c ****   GPIO_InitStruct.Pin = DHT11_Pin;
 175              		.loc 1 99 0
 176 00f0 3B19     		adds	r3, r7, r4
 177 00f2 1022     		movs	r2, #16
 178 00f4 1A60     		str	r2, [r3]
 100:cube/Src/gpio.c ****   GPIO_InitStruct.Mode = GPIO_MODE_INPUT;
 179              		.loc 1 100 0
 180 00f6 3B19     		adds	r3, r7, r4
 181 00f8 0022     		movs	r2, #0
 182 00fa 5A60     		str	r2, [r3, #4]
 101:cube/Src/gpio.c ****   GPIO_InitStruct.Pull = GPIO_NOPULL;
 183              		.loc 1 101 0
 184 00fc 3B19     		adds	r3, r7, r4
 185 00fe 0022     		movs	r2, #0
ARM GAS  /tmp/ccD0eAn7.s 			page 6


 186 0100 9A60     		str	r2, [r3, #8]
 102:cube/Src/gpio.c ****   HAL_GPIO_Init(DHT11_GPIO_Port, &GPIO_InitStruct);
 187              		.loc 1 102 0
 188 0102 3A19     		adds	r2, r7, r4
 189 0104 9023     		movs	r3, #144
 190 0106 DB05     		lsls	r3, r3, #23
 191 0108 1100     		movs	r1, r2
 192 010a 1800     		movs	r0, r3
 193 010c FFF7FEFF 		bl	HAL_GPIO_Init
 103:cube/Src/gpio.c **** 
 104:cube/Src/gpio.c ****   /*Configure GPIO pin : PtPin */
 105:cube/Src/gpio.c ****   GPIO_InitStruct.Pin = Green_Led_Pin;
 194              		.loc 1 105 0
 195 0110 2100     		movs	r1, r4
 196 0112 7B18     		adds	r3, r7, r1
 197 0114 2022     		movs	r2, #32
 198 0116 1A60     		str	r2, [r3]
 106:cube/Src/gpio.c ****   GPIO_InitStruct.Mode = GPIO_MODE_OUTPUT_PP;
 199              		.loc 1 106 0
 200 0118 7B18     		adds	r3, r7, r1
 201 011a 0122     		movs	r2, #1
 202 011c 5A60     		str	r2, [r3, #4]
 107:cube/Src/gpio.c ****   GPIO_InitStruct.Pull = GPIO_PULLDOWN;
 203              		.loc 1 107 0
 204 011e 7B18     		adds	r3, r7, r1
 205 0120 0222     		movs	r2, #2
 206 0122 9A60     		str	r2, [r3, #8]
 108:cube/Src/gpio.c ****   GPIO_InitStruct.Speed = GPIO_SPEED_FREQ_LOW;
 207              		.loc 1 108 0
 208 0124 7B18     		adds	r3, r7, r1
 209 0126 0022     		movs	r2, #0
 210 0128 DA60     		str	r2, [r3, #12]
 109:cube/Src/gpio.c ****   HAL_GPIO_Init(Green_Led_GPIO_Port, &GPIO_InitStruct);
 211              		.loc 1 109 0
 212 012a 0C00     		movs	r4, r1
 213 012c 7A18     		adds	r2, r7, r1
 214 012e 9023     		movs	r3, #144
 215 0130 DB05     		lsls	r3, r3, #23
 216 0132 1100     		movs	r1, r2
 217 0134 1800     		movs	r0, r3
 218 0136 FFF7FEFF 		bl	HAL_GPIO_Init
 110:cube/Src/gpio.c **** 
 111:cube/Src/gpio.c ****   /*Configure GPIO pins : PBPin PBPin */
 112:cube/Src/gpio.c ****   GPIO_InitStruct.Pin = H_Bridge_Pin|H_BridgeB4_Pin;
 219              		.loc 1 112 0
 220 013a 2100     		movs	r1, r4
 221 013c 7B18     		adds	r3, r7, r1
 222 013e 8222     		movs	r2, #130
 223 0140 D200     		lsls	r2, r2, #3
 224 0142 1A60     		str	r2, [r3]
 113:cube/Src/gpio.c ****   GPIO_InitStruct.Mode = GPIO_MODE_OUTPUT_PP;
 225              		.loc 1 113 0
 226 0144 7B18     		adds	r3, r7, r1
 227 0146 0122     		movs	r2, #1
 228 0148 5A60     		str	r2, [r3, #4]
 114:cube/Src/gpio.c ****   GPIO_InitStruct.Pull = GPIO_PULLDOWN;
 229              		.loc 1 114 0
ARM GAS  /tmp/ccD0eAn7.s 			page 7


 230 014a 7B18     		adds	r3, r7, r1
 231 014c 0222     		movs	r2, #2
 232 014e 9A60     		str	r2, [r3, #8]
 115:cube/Src/gpio.c ****   GPIO_InitStruct.Speed = GPIO_SPEED_FREQ_LOW;
 233              		.loc 1 115 0
 234 0150 7B18     		adds	r3, r7, r1
 235 0152 0022     		movs	r2, #0
 236 0154 DA60     		str	r2, [r3, #12]
 116:cube/Src/gpio.c ****   HAL_GPIO_Init(GPIOB, &GPIO_InitStruct);
 237              		.loc 1 116 0
 238 0156 0C00     		movs	r4, r1
 239 0158 7B18     		adds	r3, r7, r1
 240 015a 154A     		ldr	r2, .L2+8
 241 015c 1900     		movs	r1, r3
 242 015e 1000     		movs	r0, r2
 243 0160 FFF7FEFF 		bl	HAL_GPIO_Init
 117:cube/Src/gpio.c **** 
 118:cube/Src/gpio.c ****   /*Configure GPIO pin : PtPin */
 119:cube/Src/gpio.c ****   GPIO_InitStruct.Pin = Lamps_Pin;
 244              		.loc 1 119 0
 245 0164 2100     		movs	r1, r4
 246 0166 7B18     		adds	r3, r7, r1
 247 0168 8022     		movs	r2, #128
 248 016a D200     		lsls	r2, r2, #3
 249 016c 1A60     		str	r2, [r3]
 120:cube/Src/gpio.c ****   GPIO_InitStruct.Mode = GPIO_MODE_OUTPUT_PP;
 250              		.loc 1 120 0
 251 016e 7B18     		adds	r3, r7, r1
 252 0170 0122     		movs	r2, #1
 253 0172 5A60     		str	r2, [r3, #4]
 121:cube/Src/gpio.c ****   GPIO_InitStruct.Pull = GPIO_NOPULL;
 254              		.loc 1 121 0
 255 0174 7B18     		adds	r3, r7, r1
 256 0176 0022     		movs	r2, #0
 257 0178 9A60     		str	r2, [r3, #8]
 122:cube/Src/gpio.c ****   GPIO_InitStruct.Speed = GPIO_SPEED_FREQ_LOW;
 258              		.loc 1 122 0
 259 017a 7B18     		adds	r3, r7, r1
 260 017c 0022     		movs	r2, #0
 261 017e DA60     		str	r2, [r3, #12]
 123:cube/Src/gpio.c ****   HAL_GPIO_Init(Lamps_GPIO_Port, &GPIO_InitStruct);
 262              		.loc 1 123 0
 263 0180 7A18     		adds	r2, r7, r1
 264 0182 9023     		movs	r3, #144
 265 0184 DB05     		lsls	r3, r3, #23
 266 0186 1100     		movs	r1, r2
 267 0188 1800     		movs	r0, r3
 268 018a FFF7FEFF 		bl	HAL_GPIO_Init
 124:cube/Src/gpio.c **** 
 125:cube/Src/gpio.c ****   /* EXTI interrupt init*/
 126:cube/Src/gpio.c ****   HAL_NVIC_SetPriority(EXTI4_15_IRQn, 0, 0);
 269              		.loc 1 126 0
 270 018e 0022     		movs	r2, #0
 271 0190 0021     		movs	r1, #0
 272 0192 0720     		movs	r0, #7
 273 0194 FFF7FEFF 		bl	HAL_NVIC_SetPriority
 127:cube/Src/gpio.c ****   HAL_NVIC_EnableIRQ(EXTI4_15_IRQn);
ARM GAS  /tmp/ccD0eAn7.s 			page 8


 274              		.loc 1 127 0
 275 0198 0720     		movs	r0, #7
 276 019a FFF7FEFF 		bl	HAL_NVIC_EnableIRQ
 128:cube/Src/gpio.c **** 
 129:cube/Src/gpio.c **** }
 277              		.loc 1 129 0
 278 019e C046     		nop
 279 01a0 BD46     		mov	sp, r7
 280 01a2 09B0     		add	sp, sp, #36
 281              		@ sp needed
 282 01a4 90BD     		pop	{r4, r7, pc}
 283              	.L3:
 284 01a6 C046     		.align	2
 285              	.L2:
 286 01a8 00100240 		.word	1073876992
 287 01ac 00080048 		.word	1207961600
 288 01b0 00040048 		.word	1207960576
 289 01b4 00001110 		.word	269549568
 290              		.cfi_endproc
 291              	.LFE37:
 293              		.text
 294              	.Letext0:
 295              		.file 2 "/home/lhaug/Applications/gcc-arm-none-eabi-7-2018-q2-update/arm-none-eabi/include/machine
 296              		.file 3 "/home/lhaug/Applications/gcc-arm-none-eabi-7-2018-q2-update/arm-none-eabi/include/sys/_st
 297              		.file 4 "cube/Drivers/CMSIS/Device/ST/STM32F0xx/Include/system_stm32f0xx.h"
 298              		.file 5 "cube/Drivers/CMSIS/Device/ST/STM32F0xx/Include/stm32f072xb.h"
 299              		.file 6 "/home/lhaug/Applications/gcc-arm-none-eabi-7-2018-q2-update/arm-none-eabi/include/sys/loc
 300              		.file 7 "/home/lhaug/Applications/gcc-arm-none-eabi-7-2018-q2-update/arm-none-eabi/include/sys/_ty
 301              		.file 8 "/home/lhaug/Applications/gcc-arm-none-eabi-7-2018-q2-update/lib/gcc/arm-none-eabi/7.3.1/i
 302              		.file 9 "/home/lhaug/Applications/gcc-arm-none-eabi-7-2018-q2-update/arm-none-eabi/include/sys/ree
 303              		.file 10 "cube/Drivers/STM32F0xx_HAL_Driver/Inc/stm32f0xx_hal_gpio.h"
ARM GAS  /tmp/ccD0eAn7.s 			page 9

