ARM GAS  /tmp/ccYNyljk.s 			page 1


   1              		.cpu cortex-m0
   2              		.eabi_attribute 20, 1
   3              		.eabi_attribute 21, 1
   4              		.eabi_attribute 23, 3
   5              		.eabi_attribute 24, 1
   6              		.eabi_attribute 25, 1
   7              		.eabi_attribute 26, 1
   8              		.eabi_attribute 30, 6
   9              		.eabi_attribute 34, 0
  10              		.eabi_attribute 18, 4
  11              		.file	"leds.c"
  12              		.text
  13              	.Ltext0:
  14              		.cfi_sections	.debug_frame
  15              		.section	.text.lamps_state,"ax",%progbits
  16              		.align	1
  17              		.global	lamps_state
  18              		.syntax unified
  19              		.code	16
  20              		.thumb_func
  21              		.fpu softvfp
  23              	lamps_state:
  24              	.LFB37:
  25              		.file 1 "src/leds.c"
   1:src/leds.c    **** #include "leds.h"
   2:src/leds.c    **** #include "gpio.h"
   3:src/leds.c    **** 
   4:src/leds.c    **** void lamps_state(leds_state_t state) {
  26              		.loc 1 4 0
  27              		.cfi_startproc
  28              		@ args = 0, pretend = 0, frame = 8
  29              		@ frame_needed = 1, uses_anonymous_args = 0
  30 0000 80B5     		push	{r7, lr}
  31              		.cfi_def_cfa_offset 8
  32              		.cfi_offset 7, -8
  33              		.cfi_offset 14, -4
  34 0002 82B0     		sub	sp, sp, #8
  35              		.cfi_def_cfa_offset 16
  36 0004 00AF     		add	r7, sp, #0
  37              		.cfi_def_cfa_register 7
  38 0006 0200     		movs	r2, r0
  39 0008 FB1D     		adds	r3, r7, #7
  40 000a 1A70     		strb	r2, [r3]
   5:src/leds.c    ****     switch (state) {
  41              		.loc 1 5 0
  42 000c FB1D     		adds	r3, r7, #7
  43 000e 1B78     		ldrb	r3, [r3]
  44 0010 012B     		cmp	r3, #1
  45 0012 0DD0     		beq	.L3
  46 0014 022B     		cmp	r3, #2
  47 0016 14D0     		beq	.L4
  48 0018 002B     		cmp	r3, #0
  49 001a 00D0     		beq	.L5
   6:src/leds.c    ****         case ON:
   7:src/leds.c    ****             HAL_GPIO_WritePin(GPIOA, GPIO_PIN_10, SET);
   8:src/leds.c    ****             break;
   9:src/leds.c    ****         case OFF:
ARM GAS  /tmp/ccYNyljk.s 			page 2


  10:src/leds.c    ****             HAL_GPIO_WritePin(GPIOA, GPIO_PIN_10, RESET);
  11:src/leds.c    ****             break;
  12:src/leds.c    ****         case TOGGLE:
  13:src/leds.c    ****             HAL_GPIO_TogglePin(GPIOA, GPIO_PIN_10);
  14:src/leds.c    ****             break;
  15:src/leds.c    ****     }
  16:src/leds.c    **** }
  50              		.loc 1 16 0
  51 001c 1AE0     		b	.L6
  52              	.L5:
   7:src/leds.c    ****             break;
  53              		.loc 1 7 0
  54 001e 8023     		movs	r3, #128
  55 0020 D900     		lsls	r1, r3, #3
  56 0022 9023     		movs	r3, #144
  57 0024 DB05     		lsls	r3, r3, #23
  58 0026 0122     		movs	r2, #1
  59 0028 1800     		movs	r0, r3
  60 002a FFF7FEFF 		bl	HAL_GPIO_WritePin
   8:src/leds.c    ****         case OFF:
  61              		.loc 1 8 0
  62 002e 11E0     		b	.L2
  63              	.L3:
  10:src/leds.c    ****             break;
  64              		.loc 1 10 0
  65 0030 8023     		movs	r3, #128
  66 0032 D900     		lsls	r1, r3, #3
  67 0034 9023     		movs	r3, #144
  68 0036 DB05     		lsls	r3, r3, #23
  69 0038 0022     		movs	r2, #0
  70 003a 1800     		movs	r0, r3
  71 003c FFF7FEFF 		bl	HAL_GPIO_WritePin
  11:src/leds.c    ****         case TOGGLE:
  72              		.loc 1 11 0
  73 0040 08E0     		b	.L2
  74              	.L4:
  13:src/leds.c    ****             break;
  75              		.loc 1 13 0
  76 0042 8023     		movs	r3, #128
  77 0044 DA00     		lsls	r2, r3, #3
  78 0046 9023     		movs	r3, #144
  79 0048 DB05     		lsls	r3, r3, #23
  80 004a 1100     		movs	r1, r2
  81 004c 1800     		movs	r0, r3
  82 004e FFF7FEFF 		bl	HAL_GPIO_TogglePin
  14:src/leds.c    ****     }
  83              		.loc 1 14 0
  84 0052 C046     		nop
  85              	.L2:
  86              	.L6:
  87              		.loc 1 16 0
  88 0054 C046     		nop
  89 0056 BD46     		mov	sp, r7
  90 0058 02B0     		add	sp, sp, #8
  91              		@ sp needed
  92 005a 80BD     		pop	{r7, pc}
  93              		.cfi_endproc
ARM GAS  /tmp/ccYNyljk.s 			page 3


  94              	.LFE37:
  96              		.section	.text.control_led_state,"ax",%progbits
  97              		.align	1
  98              		.global	control_led_state
  99              		.syntax unified
 100              		.code	16
 101              		.thumb_func
 102              		.fpu softvfp
 104              	control_led_state:
 105              	.LFB38:
  17:src/leds.c    **** 
  18:src/leds.c    **** void control_led_state(leds_state_t state) {
 106              		.loc 1 18 0
 107              		.cfi_startproc
 108              		@ args = 0, pretend = 0, frame = 8
 109              		@ frame_needed = 1, uses_anonymous_args = 0
 110 0000 80B5     		push	{r7, lr}
 111              		.cfi_def_cfa_offset 8
 112              		.cfi_offset 7, -8
 113              		.cfi_offset 14, -4
 114 0002 82B0     		sub	sp, sp, #8
 115              		.cfi_def_cfa_offset 16
 116 0004 00AF     		add	r7, sp, #0
 117              		.cfi_def_cfa_register 7
 118 0006 0200     		movs	r2, r0
 119 0008 FB1D     		adds	r3, r7, #7
 120 000a 1A70     		strb	r2, [r3]
  19:src/leds.c    ****     switch (state) {
 121              		.loc 1 19 0
 122 000c FB1D     		adds	r3, r7, #7
 123 000e 1B78     		ldrb	r3, [r3]
 124 0010 012B     		cmp	r3, #1
 125 0012 0CD0     		beq	.L9
 126 0014 022B     		cmp	r3, #2
 127 0016 12D0     		beq	.L10
 128 0018 002B     		cmp	r3, #0
 129 001a 00D0     		beq	.L11
  20:src/leds.c    ****         case ON:
  21:src/leds.c    ****             HAL_GPIO_WritePin(GPIOA, GPIO_PIN_5, SET);
  22:src/leds.c    ****             break;
  23:src/leds.c    ****         case OFF:
  24:src/leds.c    ****             HAL_GPIO_WritePin(GPIOA, GPIO_PIN_5, RESET);
  25:src/leds.c    ****             break;
  26:src/leds.c    ****         case TOGGLE:
  27:src/leds.c    ****             HAL_GPIO_TogglePin(GPIOA, GPIO_PIN_5);
  28:src/leds.c    ****             break;
  29:src/leds.c    ****     }
  30:src/leds.c    **** }
 130              		.loc 1 30 0
 131 001c 16E0     		b	.L12
 132              	.L11:
  21:src/leds.c    ****             break;
 133              		.loc 1 21 0
 134 001e 9023     		movs	r3, #144
 135 0020 DB05     		lsls	r3, r3, #23
 136 0022 0122     		movs	r2, #1
 137 0024 2021     		movs	r1, #32
ARM GAS  /tmp/ccYNyljk.s 			page 4


 138 0026 1800     		movs	r0, r3
 139 0028 FFF7FEFF 		bl	HAL_GPIO_WritePin
  22:src/leds.c    ****         case OFF:
 140              		.loc 1 22 0
 141 002c 0EE0     		b	.L8
 142              	.L9:
  24:src/leds.c    ****             break;
 143              		.loc 1 24 0
 144 002e 9023     		movs	r3, #144
 145 0030 DB05     		lsls	r3, r3, #23
 146 0032 0022     		movs	r2, #0
 147 0034 2021     		movs	r1, #32
 148 0036 1800     		movs	r0, r3
 149 0038 FFF7FEFF 		bl	HAL_GPIO_WritePin
  25:src/leds.c    ****         case TOGGLE:
 150              		.loc 1 25 0
 151 003c 06E0     		b	.L8
 152              	.L10:
  27:src/leds.c    ****             break;
 153              		.loc 1 27 0
 154 003e 9023     		movs	r3, #144
 155 0040 DB05     		lsls	r3, r3, #23
 156 0042 2021     		movs	r1, #32
 157 0044 1800     		movs	r0, r3
 158 0046 FFF7FEFF 		bl	HAL_GPIO_TogglePin
  28:src/leds.c    ****     }
 159              		.loc 1 28 0
 160 004a C046     		nop
 161              	.L8:
 162              	.L12:
 163              		.loc 1 30 0
 164 004c C046     		nop
 165 004e BD46     		mov	sp, r7
 166 0050 02B0     		add	sp, sp, #8
 167              		@ sp needed
 168 0052 80BD     		pop	{r7, pc}
 169              		.cfi_endproc
 170              	.LFE38:
 172              		.text
 173              	.Letext0:
 174              		.file 2 "inc/leds.h"
 175              		.file 3 "/home/lhaug/Applications/gcc-arm-none-eabi-7-2018-q2-update/arm-none-eabi/include/machine
 176              		.file 4 "/home/lhaug/Applications/gcc-arm-none-eabi-7-2018-q2-update/arm-none-eabi/include/sys/_st
 177              		.file 5 "cube/Drivers/CMSIS/Device/ST/STM32F0xx/Include/system_stm32f0xx.h"
 178              		.file 6 "cube/Drivers/CMSIS/Device/ST/STM32F0xx/Include/stm32f072xb.h"
 179              		.file 7 "/home/lhaug/Applications/gcc-arm-none-eabi-7-2018-q2-update/arm-none-eabi/include/sys/loc
 180              		.file 8 "/home/lhaug/Applications/gcc-arm-none-eabi-7-2018-q2-update/arm-none-eabi/include/sys/_ty
 181              		.file 9 "/home/lhaug/Applications/gcc-arm-none-eabi-7-2018-q2-update/lib/gcc/arm-none-eabi/7.3.1/i
 182              		.file 10 "/home/lhaug/Applications/gcc-arm-none-eabi-7-2018-q2-update/arm-none-eabi/include/sys/re
 183              		.file 11 "cube/Drivers/CMSIS/Device/ST/STM32F0xx/Include/stm32f0xx.h"
ARM GAS  /tmp/ccYNyljk.s 			page 5

