ARM GAS  /tmp/ccYNyljk.s 			page 1


   1              		.cpu cortex-m0
   2              		.eabi_attribute 20, 1
   3              		.eabi_attribute 21, 1
   4              		.eabi_attribute 23, 3
   5              		.eabi_attribute 24, 1
   6              		.eabi_attribute 25, 1
   7              		.eabi_attribute 26, 1
   8              		.eabi_attribute 30, 6
   9              		.eabi_attribute 34, 0
  10              		.eabi_attribute 18, 4
  11              		.file	"leds.c"
  12              		.text
  13              	.Ltext0:
  14              		.cfi_sections	.debug_frame
  15              		.section	.text.lamps_state,"ax",%progbits
  16              		.align	1
  17              		.global	lamps_state
  18              		.syntax unified
  19              		.code	16
  20              		.thumb_func
  21              		.fpu softvfp
  23              	lamps_state:
  24              	.LFB37:
  25              		.file 1 "src/leds.c"
   1:src/leds.c    **** #include "leds.h"
   2:src/leds.c    **** #include "gpio.h"
   3:src/leds.c    **** 
   4:src/leds.c    **** void lamps_state(leds_state_t state) {
  26              		.loc 1 4 0
  27              		.cfi_startproc
  28              		@ args = 0, pretend = 0, frame = 8
  29              		@ frame_needed = 1, uses_anonymous_args = 0
  30 0000 80B5     		push	{r7, lr}
  31              		.cfi_def_cfa_offset 8
  32              		.cfi_offset 7, -8
  33              		.cfi_offset 14, -4
  34 0002 82B0     		sub	sp, sp, #8
  35              		.cfi_def_cfa_offset 16
  36 0004 00AF     		add	r7, sp, #0
  37              		.cfi_def_cfa_register 7
  38 0006 0200     		movs	r2, r0
  39 0008 FB1D     		adds	r3, r7, #7
  40 000a 1A70     		strb	r2, [r3]
   5:src/leds.c    ****     switch (state) {
  41              		.loc 1 5 0
  42 000c FB1D     		adds	r3, r7, #7
  43 000e 1B78     		ldrb	r3, [r3]
  44 0010 012B     		cmp	r3, #1
  45 0012 0DD0     		beq	.L3
  46 0014 022B     		cmp	r3, #2
  47 0016 14D0     		beq	.L4
  48 0018 002B     		cmp	r3, #0
  49 001a 00D0     		beq	.L5
   6:src/leds.c    ****         case ON:
   7:src/leds.c    ****             HAL_GPIO_WritePin(GPIOA, GPIO_PIN_10, SET);
   8:src/leds.c    ****             break;
   9:src/leds.c    ****         case OFF:
ARM GAS  /tmp/ccYNyljk.s 			page 2


  10:src/leds.c    ****             HAL_GPIO_WritePin(GPIOA, GPIO_PIN_10, RESET);
  11:src/leds.c    ****             break;
  12:src/leds.c    ****         case TOGGLE:
  13:src/leds.c    ****             HAL_GPIO_TogglePin(GPIOA, GPIO_PIN_10);
  14:src/leds.c    ****             break;
  15:src/leds.c    ****     }
  16:src/leds.c    **** }
  50              		.loc 1 16 0
  51 001c 1AE0     		b	.L6
  52              	.L5:
   7:src/leds.c    ****             break;
  53              		.loc 1 7 0
  54 001e 8023     		movs	r3, #128
  55 0020 D900     		lsls	r1, r3, #3
  56 0022 9023     		movs	r3, #144
  57 0024 DB05     		lsls	r3, r3, #23
  58 0026 0122     		movs	r2, #1
  59 0028 1800     		movs	r0, r3
  60 002a FFF7FEFF 		bl	HAL_GPIO_WritePin
   8:src/leds.c    ****         case OFF:
  61              		.loc 1 8 0
  62 002e 11E0     		b	.L2
  63              	.L3:
  10:src/leds.c    ****             break;
  64              		.loc 1 10 0
  65 0030 8023     		movs	r3, #128
  66 0032 D900     		lsls	r1, r3, #3
  67 0034 9023     		movs	r3, #144
  68 0036 DB05     		lsls	r3, r3, #23
  69 0038 0022     		movs	r2, #0
  70 003a 1800     		movs	r0, r3
  71 003c FFF7FEFF 		bl	HAL_GPIO_WritePin
  11:src/leds.c    ****         case TOGGLE:
  72              		.loc 1 11 0
  73 0040 08E0     		b	.L2
  74              	.L4:
  13:src/leds.c    ****             break;
  75              		.loc 1 13 0
  76 0042 8023     		movs	r3, #128
  77 0044 DA00     		lsls	r2, r3, #3
  78 0046 9023     		movs	r3, #144
  79 0048 DB05     		lsls	r3, r3, #23
  80 004a 1100     		movs	r1, r2
  81 004c 1800     		movs	r0, r3
  82 004e FFF7FEFF 		bl	HAL_GPIO_TogglePin
  14:src/leds.c    ****     }
  83              		.loc 1 14 0
  84 0052 C046     		nop
  85              	.L2:
  86              	.L6:
  87              		.loc 1 16 0
  88 0054 C046     		nop
  89 0056 BD46     		mov	sp, r7
  90 0058 02B0     		add	sp, sp, #8
  91              		@ sp needed
  92 005a 80BD     		pop	{r7, pc}
  93              		.cfi_endproc
ARM GAS  /tmp/ccYNyljk.s 			page 3


  94              	.LFE37:
  96              		.section	.text.control_led_state,"ax",%progbits
  97              		.align	1
  98              		.global	control_led_state
  99              		.syntax unified
 100              		.code	16
 101              		.thumb_func
 102              		.fpu softvfp
 104              	control_led_state:
 105              	.LFB38:
  17:src/leds.c    **** 
  18:src/leds.c    **** void control_led_state(leds_state_t state) {
 106              		.loc 1 18 0
 107              		.cfi_startproc
 108              		@ args = 0, pretend = 0, frame = 8
 109              		@ frame_needed = 1, uses_anonymous_args = 0
 110 0000 80B5     		push	{r7, lr}
 111              		.cfi_def_cfa_offset 8
 112              		.cfi_offset 7, -8
 113              		.cfi_offset 14, -4
 114 0002 82B0     		sub	sp, sp, #8
 115              		.cfi_def_cfa_offset 16
 116 0004 00AF     		add	r7, sp, #0
 117              		.cfi_def_cfa_register 7
 118 0006 0200     		movs	r2, r0
 119 0008 FB1D     		adds	r3, r7, #7
 120 000a 1A70     		strb	r2, [r3]
  19:src/leds.c    ****     switch (state) {
 121              		.loc 1 19 0
 122 000c FB1D     		adds	r3, r7, #7
 123 000e 1B78     		ldrb	r3, [r3]
 124 0010 012B     		cmp	r3, #1
 125 0012 0CD0     		beq	.L9
 126 0014 022B     		cmp	r3, #2
 127 0016 12D0     		beq	.L10
 128 0018 002B     		cmp	r3, #0
 129 001a 00D0     		beq	.L11
  20:src/leds.c    ****         case ON:
  21:src/leds.c    ****             HAL_GPIO_WritePin(GPIOA, GPIO_PIN_5, SET);
  22:src/leds.c    ****             break;
  23:src/leds.c    ****         case OFF:
  24:src/leds.c    ****             HAL_GPIO_WritePin(GPIOA, GPIO_PIN_5, RESET);
  25:src/leds.c    ****             break;
  26:src/leds.c    ****         case TOGGLE:
  27:src/leds.c    ****             HAL_GPIO_TogglePin(GPIOA, GPIO_PIN_5);
  28:src/leds.c    ****             break;
  29:src/leds.c    ****     }
  30:src/leds.c    **** }
 130              		.loc 1 30 0
 131 001c 16E0     		b	.L12
 132              	.L11:
  21:src/leds.c    ****             break;
 133              		.loc 1 21 0
 134 001e 9023     		movs	r3, #144
 135 0020 DB05     		lsls	r3, r3, #23
 136 0022 0122     		movs	r2, #1
 137 0024 2021     		movs	r1, #32
ARM GAS  /tmp/ccYNyljk.s 			page 4


 138 0026 1800     		movs	r0, r3
 139 0028 FFF7FEFF 		bl	HAL_GPIO_WritePin
  22:src/leds.c    ****         case OFF:
 140              		.loc 1 22 0
 141 002c 0EE0     		b	.L8
 142              	.L9:
  24:src/leds.c    ****             break;
 143              		.loc 1 24 0
 144 002e 9023     		movs	r3, #144
 145 0030 DB05     		lsls	r3, r3, #23
 146 0032 0022     		movs	r2, #0
 147 0034 2021     		movs	r1, #32
 148 0036 1800     		movs	r0, r3
 149 0038 FFF7FEFF 		bl	HAL_GPIO_WritePin
  25:src/leds.c    ****         case TOGGLE:
 150              		.loc 1 25 0
 151 003c 06E0     		b	.L8
 152              	.L10:
  27:src/leds.c    ****             break;
 153              		.loc 1 27 0
 154 003e 9023     		movs	r3, #144
 155 0040 DB05     		lsls	r3, r3, #23
 156 0042 2021     		movs	r1, #32
 157 0044 1800     		movs	r0, r3
 158 0046 FFF7FEFF 		bl	HAL_GPIO_TogglePin
  28:src/leds.c    ****     }
 159              		.loc 1 28 0
 160 004a C046     		nop
 161              	.L8:
 162              	.L12:
 163              		.loc 1 30 0
 164 004c C046     		nop
 165 004e BD46     		mov	sp, r7
 166 0050 02B0     		add	sp, sp, #8
 167              		@ sp needed
 168 0052 80BD     		pop	{r7, pc}
 169              		.cfi_endproc
 170              	.LFE38:
 172              		.text
 173              	.Letext0:
 174              		.file 2 "inc/leds.h"
 175              		.file 3 "/home/lhaug/Applications/gcc-arm-none-eabi-7-2018-q2-update/arm-none-eabi/include/machine
 176              		.file 4 "/home/lhaug/Applications/gcc-arm-none-eabi-7-2018-q2-update/arm-none-eabi/include/sys/_st
 177              		.file 5 "cube/Drivers/CMSIS/Device/ST/STM32F0xx/Include/system_stm32f0xx.h"
 178              		.file 6 "cube/Drivers/CMSIS/Device/ST/STM32F0xx/Include/stm32f072xb.h"
 179              		.file 7 "/home/lhaug/Applications/gcc-arm-none-eabi-7-2018-q2-update/arm-none-eabi/include/sys/loc
 180              		.file 8 "/home/lhaug/Applications/gcc-arm-none-eabi-7-2018-q2-update/arm-none-eabi/include/sys/_ty
 181              		.file 9 "/home/lhaug/Applications/gcc-arm-none-eabi-7-2018-q2-update/lib/gcc/arm-none-eabi/7.3.1/i
 182              		.file 10 "/home/lhaug/Applications/gcc-arm-none-eabi-7-2018-q2-update/arm-none-eabi/include/sys/re
 183              		.file 11 "cube/Drivers/CMSIS/Device/ST/STM32F0xx/Include/stm32f0xx.h"
ARM GAS  /tmp/ccYNyljk.s 			page 5


DEFINED SYMBOLS
                            *ABS*:0000000000000000 leds.c
     /tmp/ccYNyljk.s:16     .text.lamps_state:0000000000000000 $t
     /tmp/ccYNyljk.s:23     .text.lamps_state:0000000000000000 lamps_state
     /tmp/ccYNyljk.s:97     .text.control_led_state:0000000000000000 $t
     /tmp/ccYNyljk.s:104    .text.control_led_state:0000000000000000 control_led_state
                           .group:0000000000000000 wm4.0.b7c3d577b02d87ac381ee43eef398462
                           .group:0000000000000000 wm4.main.h.42.3939338cba6ab0a8b761d08be8206d51
                           .group:0000000000000000 wm4.stm32f0xx_hal_conf.h.51.b0c07d2233f75e3b04f03d95093d88ca
                           .group:0000000000000000 wm4.stm32f0xx.h.55.6dda558900ae83b4ddf41af91bcbf2f5
                           .group:0000000000000000 wm4.stm32f072xb.h.53.c99f4c72149ed98740992cfc418a4d39
                           .group:0000000000000000 wm4._newlib_version.h.4.875b979a44719054cd750d0952ad3fd6
                           .group:0000000000000000 wm4.features.h.33.d0b7f3cd6ee95f610104014bb3ed522a
                           .group:0000000000000000 wm4._default_types.h.15.247e5cd201eca3442cbf5404108c4935
                           .group:0000000000000000 wm4._intsup.h.10.cce27fed8484c08a33f522034c30d2b5
                           .group:0000000000000000 wm4._stdint.h.10.c24fa3af3bc1706662bb5593a907e841
                           .group:0000000000000000 wm4.stdint.h.23.d53047a68f4a85177f80b422d52785ed
                           .group:0000000000000000 wm4.core_cm0.h.74.a7f5ed9ff199b3163f5ed99892efe60d
                           .group:0000000000000000 wm4.cmsis_gcc.h.36.5bb14fd68ce7855540fcfe2d9305ae16
                           .group:0000000000000000 wm4.core_cm0.h.175.2353140684a11cc8267b4125ac92735e
                           .group:0000000000000000 wm4.stm32f072xb.h.653.664388dc5ef2a697008be7ff13986fc5
                           .group:0000000000000000 wm4.stm32f0xx.h.186.8a2f1abf0fccd74c76b01fef06350694
                           .group:0000000000000000 wm4.newlib.h.8.f6e543eac3f2f65163ba2ffe3b04987b
                           .group:0000000000000000 wm4.ieeefp.h.77.220d9cccac42cd58761758bee2df4ce6
                           .group:0000000000000000 wm4.config.h.220.6cac6a9685cfce5e83c17784171638d9
                           .group:0000000000000000 wm4._ansi.h.31.de524f58584151836e90d8620a16f8e8
                           .group:0000000000000000 wm4.stdio.h.31.7c0e28c411445f3f9c5b11accf882760
                           .group:0000000000000000 wm4.stddef.h.187.2ff233552538c6ff9b8575ca8ea52cb3
                           .group:0000000000000000 wm4.cdefs.h.47.0bcdf94cb40e176393dd1404056825b4
                           .group:0000000000000000 wm4.stddef.h.39.ec95e8feac892e292b69dc7ae75b0d64
                           .group:0000000000000000 wm4.stdarg.h.34.3a23a216c0c293b3d2ea2e89281481e6
                           .group:0000000000000000 wm4.lock.h.2.1461d1fff82dffe8bfddc23307f6484f
                           .group:0000000000000000 wm4._types.h.125.5cf8a495f1f7ef36777ad868a1e32068
                           .group:0000000000000000 wm4.stddef.h.161.5349cb105733e8777bfb0cf53c4e3f34
                           .group:0000000000000000 wm4._types.h.184.03611d4f6b5bec9997bcf4279eceba07
                           .group:0000000000000000 wm4.reent.h.17.90c2574d4acdcfce933db5cb09ff35fe
                           .group:0000000000000000 wm4.types.h.40.e8c16e7ec36ba55f133d0616070e25fc
                           .group:0000000000000000 wm4.types.h.114.fb65732f4f5f288a036a25898de2c91f
                           .group:0000000000000000 wm4.stdio.h.2.4aa87247282eca6c8f36f9de33d8df1a
                           .group:0000000000000000 wm4.stdio.h.81.2a55589bfa3ee24eeb84e3c79458e4a9
                           .group:0000000000000000 wm4.stm32f0xx_hal_def.h.76.81362c22f1bfa407bb20bdc5ef2fe817
                           .group:0000000000000000 wm4.stm32f0xx_hal_rcc.h.64.1680b96367ed05251327e73e2ef7e0a0
                           .group:0000000000000000 wm4.stm32f0xx_hal_rcc_ex.h.38.fed157297eb0e49fa475a8f4d962b1a1
                           .group:0000000000000000 wm4.stm32f0xx_hal_gpio.h.38.5de46a121e30d1d136216266f57becb9
                           .group:0000000000000000 wm4.stm32f0xx_hal_gpio_ex.h.38.4ae096506dfd35e4cd1e2bfdbf19c71f
                           .group:0000000000000000 wm4.stm32f0xx_hal_dma.h.38.9bc992aa465d2468bc055502b51063f3
                           .group:0000000000000000 wm4.stm32f0xx_hal_dma_ex.h.38.c2269542e0bcc97944af39289a0a60b8
                           .group:0000000000000000 wm4.stm32f0xx_hal_dma.h.500.3b36a5be41f3e2ac138f4041ccf5cecb
                           .group:0000000000000000 wm4.stm32f0xx_hal_cortex.h.38.61b1088b7495d338bc65ee2571a0bb95
                           .group:0000000000000000 wm4.stm32f0xx_hal_adc.h.38.e3e4bca0d8b91dc0f73ca672bc0e5aca
                           .group:0000000000000000 wm4.stm32f0xx_hal_adc_ex.h.38.79c684f1976d63630feab98f4d82be4a
                           .group:0000000000000000 wm4.stm32f0xx_hal_flash.h.38.752a2d52b6ea91b900355f4ecd0538c0
                           .group:0000000000000000 wm4.stm32f0xx_hal_flash_ex.h.38.8097982a0077322c9b7a892e64a756d8
                           .group:0000000000000000 wm4.stm32f0xx_hal_i2c.h.38.387f38a4bc9cbea958e7081da9f60815
                           .group:0000000000000000 wm4.stm32f0xx_hal_i2c_ex.h.38.9a4523b2ddbaaa2727287ccab47d88d1
                           .group:0000000000000000 wm4.stm32f0xx_hal_i2c.h.625.1e7eff54876bba211f769007bbafd5f1
                           .group:0000000000000000 wm4.stm32f0xx_hal_pwr.h.38.2c4d8c2e90fc76cec57b78b078d485d1
ARM GAS  /tmp/ccYNyljk.s 			page 6


                           .group:0000000000000000 wm4.stm32f0xx_hal_pwr_ex.h.38.e18331c4036598a45f5d1fd3922b2997
                           .group:0000000000000000 wm4.stm32f0xx_hal_tim.h.38.42f3ee0b54a54fc44c665553058edb38
                           .group:0000000000000000 wm4.stm32f0xx_hal_tim_ex.h.38.12cd16a4e412877272e70689edb6b518
                           .group:0000000000000000 wm4.stm32f0xx_hal_uart.h.38.e5eada3cdf37ca88de33bd21ddd21a5e
                           .group:0000000000000000 wm4.stm32f0xx_hal_uart_ex.h.38.9430c2ca5ec832677dbe7308c46115fd
                           .group:0000000000000000 wm4.stm32f0xx_hal.h.70.818459bc3b31dd9e51543930b5b3b8df

UNDEFINED SYMBOLS
HAL_GPIO_WritePin
HAL_GPIO_TogglePin
