ARM GAS  /tmp/ccNSU3f2.s 			page 1


   1              		.cpu cortex-m0
   2              		.eabi_attribute 20, 1
   3              		.eabi_attribute 21, 1
   4              		.eabi_attribute 23, 3
   5              		.eabi_attribute 24, 1
   6              		.eabi_attribute 25, 1
   7              		.eabi_attribute 26, 1
   8              		.eabi_attribute 30, 6
   9              		.eabi_attribute 34, 0
  10              		.eabi_attribute 18, 4
  11              		.file	"main.c"
  12              		.text
  13              	.Ltext0:
  14              		.cfi_sections	.debug_frame
  15              		.section	.rodata
  16              		.align	2
  17              	.LC0:
  18 0000 543A2025 		.ascii	"T: %doC\015\012H: %d%%\015\012\015\012\000"
  18      646F430D 
  18      0A483A20 
  18      25642525 
  18      0D0A0D0A 
  19              		.section	.text.main,"ax",%progbits
  20              		.align	1
  21              		.global	main
  22              		.syntax unified
  23              		.code	16
  24              		.thumb_func
  25              		.fpu softvfp
  27              	main:
  28              	.LFB37:
  29              		.file 1 "src/main.c"
   1:src/main.c    **** #include <string.h>
   2:src/main.c    **** 
   3:src/main.c    **** #include "gpio.h"
   4:src/main.c    **** #include "usart.h"
   5:src/main.c    **** 
   6:src/main.c    **** #include "control.h"
   7:src/main.c    **** #include "dht11.h"
   8:src/main.c    **** #include "leds.h"
   9:src/main.c    **** #include "mcu.h"
  10:src/main.c    **** #include "sensors.h"
  11:src/main.c    **** 
  12:src/main.c    **** /*****************************************
  13:src/main.c    ****  * Main Function
  14:src/main.c    ****  *****************************************/
  15:src/main.c    **** 
  16:src/main.c    **** int main(void) {
  30              		.loc 1 16 0
  31              		.cfi_startproc
  32              		@ args = 0, pretend = 0, frame = 264
  33              		@ frame_needed = 1, uses_anonymous_args = 0
  34 0000 B0B5     		push	{r4, r5, r7, lr}
  35              		.cfi_def_cfa_offset 16
  36              		.cfi_offset 4, -16
  37              		.cfi_offset 5, -12
  38              		.cfi_offset 7, -8
ARM GAS  /tmp/ccNSU3f2.s 			page 2


  39              		.cfi_offset 14, -4
  40 0002 C4B0     		sub	sp, sp, #272
  41              		.cfi_def_cfa_offset 288
  42 0004 02AF     		add	r7, sp, #8
  43              		.cfi_def_cfa 7, 280
  17:src/main.c    ****     mcu_init();
  44              		.loc 1 17 0
  45 0006 FFF7FEFF 		bl	mcu_init
  18:src/main.c    **** 
  19:src/main.c    ****     mcu_sleep(1000);
  46              		.loc 1 19 0
  47 000a FA23     		movs	r3, #250
  48 000c 9B00     		lsls	r3, r3, #2
  49 000e 1800     		movs	r0, r3
  50 0010 FFF7FEFF 		bl	mcu_sleep
  51              	.L2:
  20:src/main.c    **** 
  21:src/main.c    ****     char send_data[256];
  22:src/main.c    **** 
  23:src/main.c    ****     uint8_t temp;
  24:src/main.c    ****     uint8_t hum;
  25:src/main.c    **** 
  26:src/main.c    ****     for (;;) {
  27:src/main.c    ****         temp = dht11_get_temperature();
  52              		.loc 1 27 0 discriminator 1
  53 0014 0825     		movs	r5, #8
  54 0016 FF35     		adds	r5, r5, #255
  55 0018 7C19     		adds	r4, r7, r5
  56 001a FFF7FEFF 		bl	dht11_get_temperature
  57 001e 0300     		movs	r3, r0
  58 0020 2370     		strb	r3, [r4]
  28:src/main.c    ****         hum = dht11_get_humidity();
  59              		.loc 1 28 0 discriminator 1
  60 0022 FC1D     		adds	r4, r7, #7
  61 0024 FF34     		adds	r4, r4, #255
  62 0026 FFF7FEFF 		bl	dht11_get_humidity
  63 002a 0300     		movs	r3, r0
  64 002c 2370     		strb	r3, [r4]
  29:src/main.c    **** 
  30:src/main.c    ****         control_led_state(OFF);
  65              		.loc 1 30 0 discriminator 1
  66 002e 0120     		movs	r0, #1
  67 0030 FFF7FEFF 		bl	control_led_state
  31:src/main.c    ****         // while (HAL_GPIO_ReadPin(GPIOC, GPIO_PIN_13) == GPIO_PIN_SET)
  32:src/main.c    ****         //     ;
  33:src/main.c    ****         control_led_state(ON);
  68              		.loc 1 33 0 discriminator 1
  69 0034 0020     		movs	r0, #0
  70 0036 FFF7FEFF 		bl	control_led_state
  34:src/main.c    ****         // pi_action();
  35:src/main.c    **** 
  36:src/main.c    ****         snprintf(send_data, sizeof(send_data), "T: %doC\r\nH: %d%%\r\n\r\n", temp, hum);
  71              		.loc 1 36 0 discriminator 1
  72 003a 7B19     		adds	r3, r7, r5
  73 003c 1D78     		ldrb	r5, [r3]
  74 003e FB1D     		adds	r3, r7, #7
  75 0040 FF33     		adds	r3, r3, #255
ARM GAS  /tmp/ccNSU3f2.s 			page 3


  76 0042 1B78     		ldrb	r3, [r3]
  77 0044 0C4C     		ldr	r4, .L3
  78 0046 8022     		movs	r2, #128
  79 0048 5100     		lsls	r1, r2, #1
  80 004a 381D     		adds	r0, r7, #4
  81 004c 0093     		str	r3, [sp]
  82 004e 2B00     		movs	r3, r5
  83 0050 2200     		movs	r2, r4
  84 0052 FFF7FEFF 		bl	snprintf
  37:src/main.c    ****         HAL_UART_Transmit(&huart2, (uint8_t*) send_data, strlen(send_data), 100);
  85              		.loc 1 37 0 discriminator 1
  86 0056 3B1D     		adds	r3, r7, #4
  87 0058 1800     		movs	r0, r3
  88 005a FFF7FEFF 		bl	strlen
  89 005e 0300     		movs	r3, r0
  90 0060 9AB2     		uxth	r2, r3
  91 0062 391D     		adds	r1, r7, #4
  92 0064 0548     		ldr	r0, .L3+4
  93 0066 6423     		movs	r3, #100
  94 0068 FFF7FEFF 		bl	HAL_UART_Transmit
  38:src/main.c    **** 
  39:src/main.c    ****         mcu_sleep(3000);
  95              		.loc 1 39 0 discriminator 1
  96 006c 044B     		ldr	r3, .L3+8
  97 006e 1800     		movs	r0, r3
  98 0070 FFF7FEFF 		bl	mcu_sleep
  27:src/main.c    ****         hum = dht11_get_humidity();
  99              		.loc 1 27 0 discriminator 1
 100 0074 CEE7     		b	.L2
 101              	.L4:
 102 0076 C046     		.align	2
 103              	.L3:
 104 0078 00000000 		.word	.LC0
 105 007c 00000000 		.word	huart2
 106 0080 B80B0000 		.word	3000
 107              		.cfi_endproc
 108              	.LFE37:
 110              		.text
 111              	.Letext0:
 112              		.file 2 "/home/lhaug/Applications/gcc-arm-none-eabi-7-2018-q2-update/arm-none-eabi/include/machine
 113              		.file 3 "/home/lhaug/Applications/gcc-arm-none-eabi-7-2018-q2-update/arm-none-eabi/include/sys/loc
 114              		.file 4 "/home/lhaug/Applications/gcc-arm-none-eabi-7-2018-q2-update/arm-none-eabi/include/sys/_ty
 115              		.file 5 "/home/lhaug/Applications/gcc-arm-none-eabi-7-2018-q2-update/lib/gcc/arm-none-eabi/7.3.1/i
 116              		.file 6 "/home/lhaug/Applications/gcc-arm-none-eabi-7-2018-q2-update/arm-none-eabi/include/sys/ree
 117              		.file 7 "/home/lhaug/Applications/gcc-arm-none-eabi-7-2018-q2-update/arm-none-eabi/include/sys/_st
 118              		.file 8 "cube/Drivers/CMSIS/Device/ST/STM32F0xx/Include/system_stm32f0xx.h"
 119              		.file 9 "cube/Drivers/CMSIS/Device/ST/STM32F0xx/Include/stm32f072xb.h"
 120              		.file 10 "cube/Drivers/STM32F0xx_HAL_Driver/Inc/stm32f0xx_hal_def.h"
 121              		.file 11 "cube/Drivers/STM32F0xx_HAL_Driver/Inc/stm32f0xx_hal_dma.h"
 122              		.file 12 "cube/Drivers/STM32F0xx_HAL_Driver/Inc/stm32f0xx_hal_uart.h"
 123              		.file 13 "cube/Inc/usart.h"
 124              		.file 14 "inc/sensors.h"
 125              		.file 15 "inc/leds.h"
ARM GAS  /tmp/ccNSU3f2.s 			page 4

