ARM GAS  /tmp/ccjXEFXw.s 			page 1


   1              		.cpu cortex-m0
   2              		.eabi_attribute 20, 1
   3              		.eabi_attribute 21, 1
   4              		.eabi_attribute 23, 3
   5              		.eabi_attribute 24, 1
   6              		.eabi_attribute 25, 1
   7              		.eabi_attribute 26, 1
   8              		.eabi_attribute 30, 1
   9              		.eabi_attribute 34, 0
  10              		.eabi_attribute 18, 4
  11              		.file	"mcu.c"
  12              		.text
  13              	.Ltext0:
  14              		.cfi_sections	.debug_frame
  15              		.section	.text.mcu_sleep,"ax",%progbits
  16              		.align	1
  17              		.global	mcu_sleep
  18              		.syntax unified
  19              		.code	16
  20              		.thumb_func
  21              		.fpu softvfp
  23              	mcu_sleep:
  24              	.LFB38:
  25              		.file 1 "src/mcu.c"
   1:src/mcu.c     **** /**
   2:src/mcu.c     ****  * @file mcu.c
   3:src/mcu.c     ****  *
   4:src/mcu.c     ****  * @brief MCU related
   5:src/mcu.c     ****  */
   6:src/mcu.c     **** 
   7:src/mcu.c     **** #include <stdint.h>
   8:src/mcu.c     **** 
   9:src/mcu.c     **** #include "mcu.h"
  10:src/mcu.c     **** 
  11:src/mcu.c     **** #include "gpio.h"
  12:src/mcu.c     **** #include "main.h"
  13:src/mcu.c     **** #include "stm32f0xx_hal.h"
  14:src/mcu.c     **** 
  15:src/mcu.c     **** #include "sensors.h"
  16:src/mcu.c     **** #include "fans.h"
  17:src/mcu.c     **** 
  18:src/mcu.c     **** /*****************************************
  19:src/mcu.c     ****  * Private Function Prototypes
  20:src/mcu.c     ****  *****************************************/
  21:src/mcu.c     **** 
  22:src/mcu.c     **** /**
  23:src/mcu.c     ****  * @brief Initializes System Clock.
  24:src/mcu.c     ****  */
  25:src/mcu.c     **** static void SystemClock_Config(void);
  26:src/mcu.c     **** 
  27:src/mcu.c     **** /*****************************************
  28:src/mcu.c     ****  * Public Function Body Definitions
  29:src/mcu.c     ****  *****************************************/
  30:src/mcu.c     **** void mcu_init(void) {
  31:src/mcu.c     ****     HAL_Init();
  32:src/mcu.c     **** 
  33:src/mcu.c     ****     SystemClock_Config();
ARM GAS  /tmp/ccjXEFXw.s 			page 2


  34:src/mcu.c     **** 
  35:src/mcu.c     ****     MX_GPIO_Init();
  36:src/mcu.c     **** 
  37:src/mcu.c     ****     sensors_init();
  38:src/mcu.c     ****     fans_init();
  39:src/mcu.c     **** }
  40:src/mcu.c     **** 
  41:src/mcu.c     **** void mcu_sleep(uint32_t ms) {
  26              		.loc 1 41 0
  27              		.cfi_startproc
  28              		@ args = 0, pretend = 0, frame = 0
  29              		@ frame_needed = 0, uses_anonymous_args = 0
  30              	.LVL0:
  31 0000 10B5     		push	{r4, lr}
  32              		.cfi_def_cfa_offset 8
  33              		.cfi_offset 4, -8
  34              		.cfi_offset 14, -4
  42:src/mcu.c     ****     HAL_Delay(ms);
  35              		.loc 1 42 0
  36 0002 FFF7FEFF 		bl	HAL_Delay
  37              	.LVL1:
  43:src/mcu.c     **** }
  38              		.loc 1 43 0
  39              		@ sp needed
  40 0006 10BD     		pop	{r4, pc}
  41              		.cfi_endproc
  42              	.LFE38:
  44              		.section	.text._Error_Handler,"ax",%progbits
  45              		.align	1
  46              		.global	_Error_Handler
  47              		.syntax unified
  48              		.code	16
  49              		.thumb_func
  50              		.fpu softvfp
  52              	_Error_Handler:
  53              	.LFB40:
  44:src/mcu.c     **** 
  45:src/mcu.c     **** /*****************************************
  46:src/mcu.c     ****  * Private Function Body Definitions
  47:src/mcu.c     ****  *****************************************/
  48:src/mcu.c     **** 
  49:src/mcu.c     **** // Clock config should be copied from Cube generated
  50:src/mcu.c     **** // main.c before "make prepare" is called
  51:src/mcu.c     **** void SystemClock_Config(void)
  52:src/mcu.c     **** {
  53:src/mcu.c     **** 
  54:src/mcu.c     ****   RCC_OscInitTypeDef RCC_OscInitStruct;
  55:src/mcu.c     ****   RCC_ClkInitTypeDef RCC_ClkInitStruct;
  56:src/mcu.c     **** 
  57:src/mcu.c     ****     /**Initializes the CPU, AHB and APB busses clocks
  58:src/mcu.c     ****     */
  59:src/mcu.c     ****   RCC_OscInitStruct.OscillatorType = RCC_OSCILLATORTYPE_HSI48;
  60:src/mcu.c     ****   RCC_OscInitStruct.HSI48State = RCC_HSI48_ON;
  61:src/mcu.c     ****   RCC_OscInitStruct.PLL.PLLState = RCC_PLL_NONE;
  62:src/mcu.c     ****   if (HAL_RCC_OscConfig(&RCC_OscInitStruct) != HAL_OK)
  63:src/mcu.c     ****   {
  64:src/mcu.c     ****     _Error_Handler(__FILE__, __LINE__);
ARM GAS  /tmp/ccjXEFXw.s 			page 3


  65:src/mcu.c     ****   }
  66:src/mcu.c     **** 
  67:src/mcu.c     ****     /**Initializes the CPU, AHB and APB busses clocks
  68:src/mcu.c     ****     */
  69:src/mcu.c     ****   RCC_ClkInitStruct.ClockType = RCC_CLOCKTYPE_HCLK|RCC_CLOCKTYPE_SYSCLK
  70:src/mcu.c     ****                               |RCC_CLOCKTYPE_PCLK1;
  71:src/mcu.c     ****   RCC_ClkInitStruct.SYSCLKSource = RCC_SYSCLKSOURCE_HSI48;
  72:src/mcu.c     ****   RCC_ClkInitStruct.AHBCLKDivider = RCC_SYSCLK_DIV1;
  73:src/mcu.c     ****   RCC_ClkInitStruct.APB1CLKDivider = RCC_HCLK_DIV1;
  74:src/mcu.c     **** 
  75:src/mcu.c     ****   if (HAL_RCC_ClockConfig(&RCC_ClkInitStruct, FLASH_LATENCY_1) != HAL_OK)
  76:src/mcu.c     ****   {
  77:src/mcu.c     ****     _Error_Handler(__FILE__, __LINE__);
  78:src/mcu.c     ****   }
  79:src/mcu.c     **** 
  80:src/mcu.c     ****     /**Configure the Systick interrupt time
  81:src/mcu.c     ****     */
  82:src/mcu.c     ****   HAL_SYSTICK_Config(HAL_RCC_GetHCLKFreq()/1000);
  83:src/mcu.c     **** 
  84:src/mcu.c     ****     /**Configure the Systick
  85:src/mcu.c     ****     */
  86:src/mcu.c     ****   HAL_SYSTICK_CLKSourceConfig(SYSTICK_CLKSOURCE_HCLK);
  87:src/mcu.c     **** 
  88:src/mcu.c     ****   /* SysTick_IRQn interrupt configuration */
  89:src/mcu.c     ****   HAL_NVIC_SetPriority(SysTick_IRQn, 0, 0);
  90:src/mcu.c     **** }
  91:src/mcu.c     **** 
  92:src/mcu.c     **** void _Error_Handler(char* file, int line) {
  54              		.loc 1 92 0
  55              		.cfi_startproc
  56              		@ Volatile: function does not return.
  57              		@ args = 0, pretend = 0, frame = 0
  58              		@ frame_needed = 0, uses_anonymous_args = 0
  59              		@ link register save eliminated.
  60              	.LVL2:
  61              	.L3:
  62 0000 FEE7     		b	.L3
  63              		.cfi_endproc
  64              	.LFE40:
  66              		.global	__aeabi_uidiv
  67              		.section	.text.SystemClock_Config,"ax",%progbits
  68              		.align	1
  69              		.syntax unified
  70              		.code	16
  71              		.thumb_func
  72              		.fpu softvfp
  74              	SystemClock_Config:
  75              	.LFB39:
  52:src/mcu.c     **** 
  76              		.loc 1 52 0
  77              		.cfi_startproc
  78              		@ args = 0, pretend = 0, frame = 72
  79              		@ frame_needed = 0, uses_anonymous_args = 0
  52:src/mcu.c     **** 
  80              		.loc 1 52 0
  81 0000 00B5     		push	{lr}
  82              		.cfi_def_cfa_offset 4
ARM GAS  /tmp/ccjXEFXw.s 			page 4


  83              		.cfi_offset 14, -4
  84 0002 93B0     		sub	sp, sp, #76
  85              		.cfi_def_cfa_offset 80
  59:src/mcu.c     ****   RCC_OscInitStruct.HSI48State = RCC_HSI48_ON;
  86              		.loc 1 59 0
  87 0004 2023     		movs	r3, #32
  88 0006 0593     		str	r3, [sp, #20]
  60:src/mcu.c     ****   RCC_OscInitStruct.PLL.PLLState = RCC_PLL_NONE;
  89              		.loc 1 60 0
  90 0008 1F3B     		subs	r3, r3, #31
  91 000a 0D93     		str	r3, [sp, #52]
  61:src/mcu.c     ****   if (HAL_RCC_OscConfig(&RCC_OscInitStruct) != HAL_OK)
  92              		.loc 1 61 0
  93 000c 0023     		movs	r3, #0
  94 000e 0E93     		str	r3, [sp, #56]
  62:src/mcu.c     ****   {
  95              		.loc 1 62 0
  96 0010 05A8     		add	r0, sp, #20
  97 0012 FFF7FEFF 		bl	HAL_RCC_OscConfig
  98              	.LVL3:
  99 0016 0028     		cmp	r0, #0
 100 0018 1FD1     		bne	.L7
  69:src/mcu.c     ****                               |RCC_CLOCKTYPE_PCLK1;
 101              		.loc 1 69 0
 102 001a 0723     		movs	r3, #7
 103 001c 0193     		str	r3, [sp, #4]
  71:src/mcu.c     ****   RCC_ClkInitStruct.AHBCLKDivider = RCC_SYSCLK_DIV1;
 104              		.loc 1 71 0
 105 001e 043B     		subs	r3, r3, #4
 106 0020 0293     		str	r3, [sp, #8]
  72:src/mcu.c     ****   RCC_ClkInitStruct.APB1CLKDivider = RCC_HCLK_DIV1;
 107              		.loc 1 72 0
 108 0022 0023     		movs	r3, #0
 109 0024 0393     		str	r3, [sp, #12]
  73:src/mcu.c     **** 
 110              		.loc 1 73 0
 111 0026 0493     		str	r3, [sp, #16]
  75:src/mcu.c     ****   {
 112              		.loc 1 75 0
 113 0028 0121     		movs	r1, #1
 114 002a 01A8     		add	r0, sp, #4
 115 002c FFF7FEFF 		bl	HAL_RCC_ClockConfig
 116              	.LVL4:
 117 0030 0028     		cmp	r0, #0
 118 0032 16D1     		bne	.L8
  82:src/mcu.c     **** 
 119              		.loc 1 82 0
 120 0034 FFF7FEFF 		bl	HAL_RCC_GetHCLKFreq
 121              	.LVL5:
 122 0038 FA21     		movs	r1, #250
 123 003a 8900     		lsls	r1, r1, #2
 124 003c FFF7FEFF 		bl	__aeabi_uidiv
 125              	.LVL6:
 126 0040 FFF7FEFF 		bl	HAL_SYSTICK_Config
 127              	.LVL7:
  86:src/mcu.c     **** 
 128              		.loc 1 86 0
ARM GAS  /tmp/ccjXEFXw.s 			page 5


 129 0044 0420     		movs	r0, #4
 130 0046 FFF7FEFF 		bl	HAL_SYSTICK_CLKSourceConfig
 131              	.LVL8:
  89:src/mcu.c     **** }
 132              		.loc 1 89 0
 133 004a 0120     		movs	r0, #1
 134 004c 0022     		movs	r2, #0
 135 004e 0021     		movs	r1, #0
 136 0050 4042     		rsbs	r0, r0, #0
 137 0052 FFF7FEFF 		bl	HAL_NVIC_SetPriority
 138              	.LVL9:
  90:src/mcu.c     **** 
 139              		.loc 1 90 0
 140 0056 13B0     		add	sp, sp, #76
 141              		@ sp needed
 142 0058 00BD     		pop	{pc}
 143              	.L7:
  64:src/mcu.c     ****   }
 144              		.loc 1 64 0
 145 005a 4021     		movs	r1, #64
 146 005c 0348     		ldr	r0, .L9
 147 005e FFF7FEFF 		bl	_Error_Handler
 148              	.LVL10:
 149              	.L8:
  77:src/mcu.c     ****   }
 150              		.loc 1 77 0
 151 0062 4D21     		movs	r1, #77
 152 0064 0148     		ldr	r0, .L9
 153 0066 FFF7FEFF 		bl	_Error_Handler
 154              	.LVL11:
 155              	.L10:
 156 006a C046     		.align	2
 157              	.L9:
 158 006c 00000000 		.word	.LC0
 159              		.cfi_endproc
 160              	.LFE39:
 162              		.section	.text.mcu_init,"ax",%progbits
 163              		.align	1
 164              		.global	mcu_init
 165              		.syntax unified
 166              		.code	16
 167              		.thumb_func
 168              		.fpu softvfp
 170              	mcu_init:
 171              	.LFB37:
  30:src/mcu.c     ****     HAL_Init();
 172              		.loc 1 30 0
 173              		.cfi_startproc
 174              		@ args = 0, pretend = 0, frame = 0
 175              		@ frame_needed = 0, uses_anonymous_args = 0
 176 0000 10B5     		push	{r4, lr}
 177              		.cfi_def_cfa_offset 8
 178              		.cfi_offset 4, -8
 179              		.cfi_offset 14, -4
  31:src/mcu.c     **** 
 180              		.loc 1 31 0
 181 0002 FFF7FEFF 		bl	HAL_Init
ARM GAS  /tmp/ccjXEFXw.s 			page 6


 182              	.LVL12:
  33:src/mcu.c     **** 
 183              		.loc 1 33 0
 184 0006 FFF7FEFF 		bl	SystemClock_Config
 185              	.LVL13:
  35:src/mcu.c     **** 
 186              		.loc 1 35 0
 187 000a FFF7FEFF 		bl	MX_GPIO_Init
 188              	.LVL14:
  37:src/mcu.c     ****     fans_init();
 189              		.loc 1 37 0
 190 000e FFF7FEFF 		bl	sensors_init
 191              	.LVL15:
  38:src/mcu.c     **** }
 192              		.loc 1 38 0
 193 0012 FFF7FEFF 		bl	fans_init
 194              	.LVL16:
  39:src/mcu.c     **** 
 195              		.loc 1 39 0
 196              		@ sp needed
 197 0016 10BD     		pop	{r4, pc}
 198              		.cfi_endproc
 199              	.LFE37:
 201              		.section	.rodata.SystemClock_Config.str1.4,"aMS",%progbits,1
 202              		.align	2
 203              	.LC0:
 204 0000 7372632F 		.ascii	"src/mcu.c\000"
 204      6D63752E 
 204      6300
 205              		.text
 206              	.Letext0:
 207              		.file 2 "/home/lhaug/Applications/gcc-arm-none-eabi-7-2018-q2-update/arm-none-eabi/include/machine
 208              		.file 3 "/home/lhaug/Applications/gcc-arm-none-eabi-7-2018-q2-update/arm-none-eabi/include/sys/_st
 209              		.file 4 "cube/Drivers/CMSIS/Device/ST/STM32F0xx/Include/system_stm32f0xx.h"
 210              		.file 5 "/home/lhaug/Applications/gcc-arm-none-eabi-7-2018-q2-update/arm-none-eabi/include/sys/loc
 211              		.file 6 "/home/lhaug/Applications/gcc-arm-none-eabi-7-2018-q2-update/arm-none-eabi/include/sys/_ty
 212              		.file 7 "/home/lhaug/Applications/gcc-arm-none-eabi-7-2018-q2-update/lib/gcc/arm-none-eabi/7.3.1/i
 213              		.file 8 "/home/lhaug/Applications/gcc-arm-none-eabi-7-2018-q2-update/arm-none-eabi/include/sys/ree
 214              		.file 9 "cube/Drivers/CMSIS/Device/ST/STM32F0xx/Include/stm32f072xb.h"
 215              		.file 10 "cube/Drivers/STM32F0xx_HAL_Driver/Inc/stm32f0xx_hal_def.h"
 216              		.file 11 "cube/Drivers/STM32F0xx_HAL_Driver/Inc/stm32f0xx_hal_rcc.h"
 217              		.file 12 "inc/sensors.h"
 218              		.file 13 "cube/Drivers/STM32F0xx_HAL_Driver/Inc/stm32f0xx_hal_cortex.h"
 219              		.file 14 "cube/Drivers/STM32F0xx_HAL_Driver/Inc/stm32f0xx_hal.h"
 220              		.file 15 "cube/Inc/gpio.h"
 221              		.file 16 "inc/fans.h"
ARM GAS  /tmp/ccjXEFXw.s 			page 7

