ARM GAS  /tmp/ccXgluNz.s 			page 1


   1              		.cpu cortex-m0
   2              		.eabi_attribute 20, 1
   3              		.eabi_attribute 21, 1
   4              		.eabi_attribute 23, 3
   5              		.eabi_attribute 24, 1
   6              		.eabi_attribute 25, 1
   7              		.eabi_attribute 26, 1
   8              		.eabi_attribute 30, 6
   9              		.eabi_attribute 34, 0
  10              		.eabi_attribute 18, 4
  11              		.file	"power_resistors.c"
  12              		.text
  13              	.Ltext0:
  14              		.cfi_sections	.debug_frame
  15              		.section	.text.resistors_state,"ax",%progbits
  16              		.align	1
  17              		.global	resistors_state
  18              		.syntax unified
  19              		.code	16
  20              		.thumb_func
  21              		.fpu softvfp
  23              	resistors_state:
  24              	.LFB37:
  25              		.file 1 "src/power_resistors.c"
   1:src/power_resistors.c **** #include "power_resistors.h"
   2:src/power_resistors.c **** #include "mcu.h"
   3:src/power_resistors.c **** #include "gpio.h"
   4:src/power_resistors.c **** 
   5:src/power_resistors.c **** void resistors_state(resist_state_t state) {
  26              		.loc 1 5 0
  27              		.cfi_startproc
  28              		@ args = 0, pretend = 0, frame = 8
  29              		@ frame_needed = 1, uses_anonymous_args = 0
  30 0000 80B5     		push	{r7, lr}
  31              		.cfi_def_cfa_offset 8
  32              		.cfi_offset 7, -8
  33              		.cfi_offset 14, -4
  34 0002 82B0     		sub	sp, sp, #8
  35              		.cfi_def_cfa_offset 16
  36 0004 00AF     		add	r7, sp, #0
  37              		.cfi_def_cfa_register 7
  38 0006 0200     		movs	r2, r0
  39 0008 FB1D     		adds	r3, r7, #7
  40 000a 1A70     		strb	r2, [r3]
   6:src/power_resistors.c ****     switch (state) {
  41              		.loc 1 6 0
  42 000c FB1D     		adds	r3, r7, #7
  43 000e 1B78     		ldrb	r3, [r3]
  44 0010 002B     		cmp	r3, #0
  45 0012 02D0     		beq	.L3
  46 0014 012B     		cmp	r3, #1
  47 0016 07D0     		beq	.L4
   7:src/power_resistors.c ****         case ON:
   8:src/power_resistors.c ****             HAL_GPIO_WritePin(GPIOC, GPIO_PIN_1, SET);
   9:src/power_resistors.c ****             break;
  10:src/power_resistors.c ****         case OFF:
  11:src/power_resistors.c ****             HAL_GPIO_WritePin(GPIOC, GPIO_PIN_1, RESET);
ARM GAS  /tmp/ccXgluNz.s 			page 2


  12:src/power_resistors.c ****             break;
  13:src/power_resistors.c ****     }
  14:src/power_resistors.c **** }
  48              		.loc 1 14 0
  49 0018 0DE0     		b	.L5
  50              	.L3:
   8:src/power_resistors.c ****             break;
  51              		.loc 1 8 0
  52 001a 094B     		ldr	r3, .L6
  53 001c 0122     		movs	r2, #1
  54 001e 0221     		movs	r1, #2
  55 0020 1800     		movs	r0, r3
  56 0022 FFF7FEFF 		bl	HAL_GPIO_WritePin
   9:src/power_resistors.c ****         case OFF:
  57              		.loc 1 9 0
  58 0026 06E0     		b	.L2
  59              	.L4:
  11:src/power_resistors.c ****             break;
  60              		.loc 1 11 0
  61 0028 054B     		ldr	r3, .L6
  62 002a 0022     		movs	r2, #0
  63 002c 0221     		movs	r1, #2
  64 002e 1800     		movs	r0, r3
  65 0030 FFF7FEFF 		bl	HAL_GPIO_WritePin
  12:src/power_resistors.c ****     }
  66              		.loc 1 12 0
  67 0034 C046     		nop
  68              	.L2:
  69              	.L5:
  70              		.loc 1 14 0
  71 0036 C046     		nop
  72 0038 BD46     		mov	sp, r7
  73 003a 02B0     		add	sp, sp, #8
  74              		@ sp needed
  75 003c 80BD     		pop	{r7, pc}
  76              	.L7:
  77 003e C046     		.align	2
  78              	.L6:
  79 0040 00080048 		.word	1207961600
  80              		.cfi_endproc
  81              	.LFE37:
  83              		.text
  84              	.Letext0:
  85              		.file 2 "inc/power_resistors.h"
  86              		.file 3 "/home/lhaug/Applications/gcc-arm-none-eabi-7-2018-q2-update/arm-none-eabi/include/machine
  87              		.file 4 "/home/lhaug/Applications/gcc-arm-none-eabi-7-2018-q2-update/arm-none-eabi/include/sys/_st
  88              		.file 5 "cube/Drivers/CMSIS/Device/ST/STM32F0xx/Include/system_stm32f0xx.h"
  89              		.file 6 "cube/Drivers/CMSIS/Device/ST/STM32F0xx/Include/stm32f072xb.h"
  90              		.file 7 "/home/lhaug/Applications/gcc-arm-none-eabi-7-2018-q2-update/arm-none-eabi/include/sys/loc
  91              		.file 8 "/home/lhaug/Applications/gcc-arm-none-eabi-7-2018-q2-update/arm-none-eabi/include/sys/_ty
  92              		.file 9 "/home/lhaug/Applications/gcc-arm-none-eabi-7-2018-q2-update/lib/gcc/arm-none-eabi/7.3.1/i
  93              		.file 10 "/home/lhaug/Applications/gcc-arm-none-eabi-7-2018-q2-update/arm-none-eabi/include/sys/re
  94              		.file 11 "cube/Drivers/CMSIS/Device/ST/STM32F0xx/Include/stm32f0xx.h"
ARM GAS  /tmp/ccXgluNz.s 			page 3

