ARM GAS  /tmp/ccXgluNz.s 			page 1


   1              		.cpu cortex-m0
   2              		.eabi_attribute 20, 1
   3              		.eabi_attribute 21, 1
   4              		.eabi_attribute 23, 3
   5              		.eabi_attribute 24, 1
   6              		.eabi_attribute 25, 1
   7              		.eabi_attribute 26, 1
   8              		.eabi_attribute 30, 6
   9              		.eabi_attribute 34, 0
  10              		.eabi_attribute 18, 4
  11              		.file	"power_resistors.c"
  12              		.text
  13              	.Ltext0:
  14              		.cfi_sections	.debug_frame
  15              		.section	.text.resistors_state,"ax",%progbits
  16              		.align	1
  17              		.global	resistors_state
  18              		.syntax unified
  19              		.code	16
  20              		.thumb_func
  21              		.fpu softvfp
  23              	resistors_state:
  24              	.LFB37:
  25              		.file 1 "src/power_resistors.c"
   1:src/power_resistors.c **** #include "power_resistors.h"
   2:src/power_resistors.c **** #include "mcu.h"
   3:src/power_resistors.c **** #include "gpio.h"
   4:src/power_resistors.c **** 
   5:src/power_resistors.c **** void resistors_state(resist_state_t state) {
  26              		.loc 1 5 0
  27              		.cfi_startproc
  28              		@ args = 0, pretend = 0, frame = 8
  29              		@ frame_needed = 1, uses_anonymous_args = 0
  30 0000 80B5     		push	{r7, lr}
  31              		.cfi_def_cfa_offset 8
  32              		.cfi_offset 7, -8
  33              		.cfi_offset 14, -4
  34 0002 82B0     		sub	sp, sp, #8
  35              		.cfi_def_cfa_offset 16
  36 0004 00AF     		add	r7, sp, #0
  37              		.cfi_def_cfa_register 7
  38 0006 0200     		movs	r2, r0
  39 0008 FB1D     		adds	r3, r7, #7
  40 000a 1A70     		strb	r2, [r3]
   6:src/power_resistors.c ****     switch (state) {
  41              		.loc 1 6 0
  42 000c FB1D     		adds	r3, r7, #7
  43 000e 1B78     		ldrb	r3, [r3]
  44 0010 002B     		cmp	r3, #0
  45 0012 02D0     		beq	.L3
  46 0014 012B     		cmp	r3, #1
  47 0016 07D0     		beq	.L4
   7:src/power_resistors.c ****         case ON:
   8:src/power_resistors.c ****             HAL_GPIO_WritePin(GPIOC, GPIO_PIN_1, SET);
   9:src/power_resistors.c ****             break;
  10:src/power_resistors.c ****         case OFF:
  11:src/power_resistors.c ****             HAL_GPIO_WritePin(GPIOC, GPIO_PIN_1, RESET);
ARM GAS  /tmp/ccXgluNz.s 			page 2


  12:src/power_resistors.c ****             break;
  13:src/power_resistors.c ****     }
  14:src/power_resistors.c **** }
  48              		.loc 1 14 0
  49 0018 0DE0     		b	.L5
  50              	.L3:
   8:src/power_resistors.c ****             break;
  51              		.loc 1 8 0
  52 001a 094B     		ldr	r3, .L6
  53 001c 0122     		movs	r2, #1
  54 001e 0221     		movs	r1, #2
  55 0020 1800     		movs	r0, r3
  56 0022 FFF7FEFF 		bl	HAL_GPIO_WritePin
   9:src/power_resistors.c ****         case OFF:
  57              		.loc 1 9 0
  58 0026 06E0     		b	.L2
  59              	.L4:
  11:src/power_resistors.c ****             break;
  60              		.loc 1 11 0
  61 0028 054B     		ldr	r3, .L6
  62 002a 0022     		movs	r2, #0
  63 002c 0221     		movs	r1, #2
  64 002e 1800     		movs	r0, r3
  65 0030 FFF7FEFF 		bl	HAL_GPIO_WritePin
  12:src/power_resistors.c ****     }
  66              		.loc 1 12 0
  67 0034 C046     		nop
  68              	.L2:
  69              	.L5:
  70              		.loc 1 14 0
  71 0036 C046     		nop
  72 0038 BD46     		mov	sp, r7
  73 003a 02B0     		add	sp, sp, #8
  74              		@ sp needed
  75 003c 80BD     		pop	{r7, pc}
  76              	.L7:
  77 003e C046     		.align	2
  78              	.L6:
  79 0040 00080048 		.word	1207961600
  80              		.cfi_endproc
  81              	.LFE37:
  83              		.text
  84              	.Letext0:
  85              		.file 2 "inc/power_resistors.h"
  86              		.file 3 "/home/lhaug/Applications/gcc-arm-none-eabi-7-2018-q2-update/arm-none-eabi/include/machine
  87              		.file 4 "/home/lhaug/Applications/gcc-arm-none-eabi-7-2018-q2-update/arm-none-eabi/include/sys/_st
  88              		.file 5 "cube/Drivers/CMSIS/Device/ST/STM32F0xx/Include/system_stm32f0xx.h"
  89              		.file 6 "cube/Drivers/CMSIS/Device/ST/STM32F0xx/Include/stm32f072xb.h"
  90              		.file 7 "/home/lhaug/Applications/gcc-arm-none-eabi-7-2018-q2-update/arm-none-eabi/include/sys/loc
  91              		.file 8 "/home/lhaug/Applications/gcc-arm-none-eabi-7-2018-q2-update/arm-none-eabi/include/sys/_ty
  92              		.file 9 "/home/lhaug/Applications/gcc-arm-none-eabi-7-2018-q2-update/lib/gcc/arm-none-eabi/7.3.1/i
  93              		.file 10 "/home/lhaug/Applications/gcc-arm-none-eabi-7-2018-q2-update/arm-none-eabi/include/sys/re
  94              		.file 11 "cube/Drivers/CMSIS/Device/ST/STM32F0xx/Include/stm32f0xx.h"
ARM GAS  /tmp/ccXgluNz.s 			page 3


DEFINED SYMBOLS
                            *ABS*:0000000000000000 power_resistors.c
     /tmp/ccXgluNz.s:16     .text.resistors_state:0000000000000000 $t
     /tmp/ccXgluNz.s:23     .text.resistors_state:0000000000000000 resistors_state
     /tmp/ccXgluNz.s:79     .text.resistors_state:0000000000000040 $d
                           .group:0000000000000000 wm4.0.b7c3d577b02d87ac381ee43eef398462
                           .group:0000000000000000 wm4._newlib_version.h.4.875b979a44719054cd750d0952ad3fd6
                           .group:0000000000000000 wm4.features.h.33.d0b7f3cd6ee95f610104014bb3ed522a
                           .group:0000000000000000 wm4._default_types.h.15.247e5cd201eca3442cbf5404108c4935
                           .group:0000000000000000 wm4._intsup.h.10.cce27fed8484c08a33f522034c30d2b5
                           .group:0000000000000000 wm4._stdint.h.10.c24fa3af3bc1706662bb5593a907e841
                           .group:0000000000000000 wm4.stdint.h.23.d53047a68f4a85177f80b422d52785ed
                           .group:0000000000000000 wm4.main.h.42.3939338cba6ab0a8b761d08be8206d51
                           .group:0000000000000000 wm4.stm32f0xx_hal_conf.h.51.b0c07d2233f75e3b04f03d95093d88ca
                           .group:0000000000000000 wm4.stm32f0xx.h.55.6dda558900ae83b4ddf41af91bcbf2f5
                           .group:0000000000000000 wm4.stm32f072xb.h.53.c99f4c72149ed98740992cfc418a4d39
                           .group:0000000000000000 wm4.core_cm0.h.42.7022e4f00906b4c8e9c5322381e90c37
                           .group:0000000000000000 wm4.cmsis_gcc.h.36.5bb14fd68ce7855540fcfe2d9305ae16
                           .group:0000000000000000 wm4.core_cm0.h.175.2353140684a11cc8267b4125ac92735e
                           .group:0000000000000000 wm4.stm32f072xb.h.653.664388dc5ef2a697008be7ff13986fc5
                           .group:0000000000000000 wm4.stm32f0xx.h.186.8a2f1abf0fccd74c76b01fef06350694
                           .group:0000000000000000 wm4.newlib.h.8.f6e543eac3f2f65163ba2ffe3b04987b
                           .group:0000000000000000 wm4.ieeefp.h.77.220d9cccac42cd58761758bee2df4ce6
                           .group:0000000000000000 wm4.config.h.220.6cac6a9685cfce5e83c17784171638d9
                           .group:0000000000000000 wm4._ansi.h.31.de524f58584151836e90d8620a16f8e8
                           .group:0000000000000000 wm4.stdio.h.31.7c0e28c411445f3f9c5b11accf882760
                           .group:0000000000000000 wm4.stddef.h.187.2ff233552538c6ff9b8575ca8ea52cb3
                           .group:0000000000000000 wm4.cdefs.h.47.0bcdf94cb40e176393dd1404056825b4
                           .group:0000000000000000 wm4.stddef.h.39.ec95e8feac892e292b69dc7ae75b0d64
                           .group:0000000000000000 wm4.stdarg.h.34.3a23a216c0c293b3d2ea2e89281481e6
                           .group:0000000000000000 wm4.lock.h.2.1461d1fff82dffe8bfddc23307f6484f
                           .group:0000000000000000 wm4._types.h.125.5cf8a495f1f7ef36777ad868a1e32068
                           .group:0000000000000000 wm4.stddef.h.161.5349cb105733e8777bfb0cf53c4e3f34
                           .group:0000000000000000 wm4._types.h.184.03611d4f6b5bec9997bcf4279eceba07
                           .group:0000000000000000 wm4.reent.h.17.90c2574d4acdcfce933db5cb09ff35fe
                           .group:0000000000000000 wm4.types.h.40.e8c16e7ec36ba55f133d0616070e25fc
                           .group:0000000000000000 wm4.types.h.114.fb65732f4f5f288a036a25898de2c91f
                           .group:0000000000000000 wm4.stdio.h.2.4aa87247282eca6c8f36f9de33d8df1a
                           .group:0000000000000000 wm4.stdio.h.81.2a55589bfa3ee24eeb84e3c79458e4a9
                           .group:0000000000000000 wm4.stm32f0xx_hal_def.h.76.81362c22f1bfa407bb20bdc5ef2fe817
                           .group:0000000000000000 wm4.stm32f0xx_hal_rcc.h.64.1680b96367ed05251327e73e2ef7e0a0
                           .group:0000000000000000 wm4.stm32f0xx_hal_rcc_ex.h.38.fed157297eb0e49fa475a8f4d962b1a1
                           .group:0000000000000000 wm4.stm32f0xx_hal_gpio.h.38.5de46a121e30d1d136216266f57becb9
                           .group:0000000000000000 wm4.stm32f0xx_hal_gpio_ex.h.38.4ae096506dfd35e4cd1e2bfdbf19c71f
                           .group:0000000000000000 wm4.stm32f0xx_hal_dma.h.38.9bc992aa465d2468bc055502b51063f3
                           .group:0000000000000000 wm4.stm32f0xx_hal_dma_ex.h.38.c2269542e0bcc97944af39289a0a60b8
                           .group:0000000000000000 wm4.stm32f0xx_hal_dma.h.500.3b36a5be41f3e2ac138f4041ccf5cecb
                           .group:0000000000000000 wm4.stm32f0xx_hal_cortex.h.38.61b1088b7495d338bc65ee2571a0bb95
                           .group:0000000000000000 wm4.stm32f0xx_hal_adc.h.38.e3e4bca0d8b91dc0f73ca672bc0e5aca
                           .group:0000000000000000 wm4.stm32f0xx_hal_adc_ex.h.38.79c684f1976d63630feab98f4d82be4a
                           .group:0000000000000000 wm4.stm32f0xx_hal_flash.h.38.752a2d52b6ea91b900355f4ecd0538c0
                           .group:0000000000000000 wm4.stm32f0xx_hal_flash_ex.h.38.8097982a0077322c9b7a892e64a756d8
                           .group:0000000000000000 wm4.stm32f0xx_hal_i2c.h.38.387f38a4bc9cbea958e7081da9f60815
                           .group:0000000000000000 wm4.stm32f0xx_hal_i2c_ex.h.38.9a4523b2ddbaaa2727287ccab47d88d1
                           .group:0000000000000000 wm4.stm32f0xx_hal_i2c.h.625.1e7eff54876bba211f769007bbafd5f1
                           .group:0000000000000000 wm4.stm32f0xx_hal_pwr.h.38.2c4d8c2e90fc76cec57b78b078d485d1
                           .group:0000000000000000 wm4.stm32f0xx_hal_pwr_ex.h.38.e18331c4036598a45f5d1fd3922b2997
ARM GAS  /tmp/ccXgluNz.s 			page 4


                           .group:0000000000000000 wm4.stm32f0xx_hal_tim.h.38.42f3ee0b54a54fc44c665553058edb38
                           .group:0000000000000000 wm4.stm32f0xx_hal_tim_ex.h.38.12cd16a4e412877272e70689edb6b518
                           .group:0000000000000000 wm4.stm32f0xx_hal_uart.h.38.e5eada3cdf37ca88de33bd21ddd21a5e
                           .group:0000000000000000 wm4.stm32f0xx_hal_uart_ex.h.38.9430c2ca5ec832677dbe7308c46115fd
                           .group:0000000000000000 wm4.stm32f0xx_hal.h.70.818459bc3b31dd9e51543930b5b3b8df

UNDEFINED SYMBOLS
HAL_GPIO_WritePin
