ARM GAS  /tmp/ccpevmba.s 			page 1


   1              		.cpu cortex-m0
   2              		.eabi_attribute 20, 1
   3              		.eabi_attribute 21, 1
   4              		.eabi_attribute 23, 3
   5              		.eabi_attribute 24, 1
   6              		.eabi_attribute 25, 1
   7              		.eabi_attribute 26, 1
   8              		.eabi_attribute 30, 6
   9              		.eabi_attribute 34, 0
  10              		.eabi_attribute 18, 4
  11              		.file	"stm32f0xx_hal_tim_ex.c"
  12              		.text
  13              	.Ltext0:
  14              		.cfi_sections	.debug_frame
  15              		.section	.text.HAL_TIMEx_HallSensor_Init,"ax",%progbits
  16              		.align	1
  17              		.global	HAL_TIMEx_HallSensor_Init
  18              		.syntax unified
  19              		.code	16
  20              		.thumb_func
  21              		.fpu softvfp
  23              	HAL_TIMEx_HallSensor_Init:
  24              	.LFB37:
  25              		.file 1 "cube/Drivers/STM32F0xx_HAL_Driver/Src/stm32f0xx_hal_tim_ex.c"
   1:cube/Drivers/STM32F0xx_HAL_Driver/Src/stm32f0xx_hal_tim_ex.c **** /**
   2:cube/Drivers/STM32F0xx_HAL_Driver/Src/stm32f0xx_hal_tim_ex.c ****   ******************************************************************************
   3:cube/Drivers/STM32F0xx_HAL_Driver/Src/stm32f0xx_hal_tim_ex.c ****   * @file    stm32f0xx_hal_tim_ex.c
   4:cube/Drivers/STM32F0xx_HAL_Driver/Src/stm32f0xx_hal_tim_ex.c ****   * @author  MCD Application Team
   5:cube/Drivers/STM32F0xx_HAL_Driver/Src/stm32f0xx_hal_tim_ex.c ****   * @brief   TIM HAL module driver.
   6:cube/Drivers/STM32F0xx_HAL_Driver/Src/stm32f0xx_hal_tim_ex.c ****   *          This file provides firmware functions to manage the following 
   7:cube/Drivers/STM32F0xx_HAL_Driver/Src/stm32f0xx_hal_tim_ex.c ****   *          functionalities of the Timer Extended peripheral:
   8:cube/Drivers/STM32F0xx_HAL_Driver/Src/stm32f0xx_hal_tim_ex.c ****   *           + Time Hall Sensor Interface Initialization
   9:cube/Drivers/STM32F0xx_HAL_Driver/Src/stm32f0xx_hal_tim_ex.c ****   *           + Time Hall Sensor Interface Start
  10:cube/Drivers/STM32F0xx_HAL_Driver/Src/stm32f0xx_hal_tim_ex.c ****   *           + Time Complementary signal bread and dead time configuration 
  11:cube/Drivers/STM32F0xx_HAL_Driver/Src/stm32f0xx_hal_tim_ex.c ****   *           + Time Master and Slave synchronization configuration
  12:cube/Drivers/STM32F0xx_HAL_Driver/Src/stm32f0xx_hal_tim_ex.c ****   *           + Timer remapping capabilities configuration
  13:cube/Drivers/STM32F0xx_HAL_Driver/Src/stm32f0xx_hal_tim_ex.c ****   @verbatim
  14:cube/Drivers/STM32F0xx_HAL_Driver/Src/stm32f0xx_hal_tim_ex.c ****   ==============================================================================
  15:cube/Drivers/STM32F0xx_HAL_Driver/Src/stm32f0xx_hal_tim_ex.c ****                       ##### TIMER Extended features #####
  16:cube/Drivers/STM32F0xx_HAL_Driver/Src/stm32f0xx_hal_tim_ex.c ****   ==============================================================================
  17:cube/Drivers/STM32F0xx_HAL_Driver/Src/stm32f0xx_hal_tim_ex.c ****   [..]
  18:cube/Drivers/STM32F0xx_HAL_Driver/Src/stm32f0xx_hal_tim_ex.c ****     The Timer Extended features include:
  19:cube/Drivers/STM32F0xx_HAL_Driver/Src/stm32f0xx_hal_tim_ex.c ****     (#) Complementary outputs with programmable dead-time for :
  20:cube/Drivers/STM32F0xx_HAL_Driver/Src/stm32f0xx_hal_tim_ex.c ****         (++) Output Compare
  21:cube/Drivers/STM32F0xx_HAL_Driver/Src/stm32f0xx_hal_tim_ex.c ****         (++) PWM generation (Edge and Center-aligned Mode)
  22:cube/Drivers/STM32F0xx_HAL_Driver/Src/stm32f0xx_hal_tim_ex.c ****         (++) One-pulse mode output
  23:cube/Drivers/STM32F0xx_HAL_Driver/Src/stm32f0xx_hal_tim_ex.c ****     (#) Synchronization circuit to control the timer with external signals and to 
  24:cube/Drivers/STM32F0xx_HAL_Driver/Src/stm32f0xx_hal_tim_ex.c ****         interconnect several timers together.
  25:cube/Drivers/STM32F0xx_HAL_Driver/Src/stm32f0xx_hal_tim_ex.c ****     (#) Break input to put the timer output signals in reset state or in a known state.
  26:cube/Drivers/STM32F0xx_HAL_Driver/Src/stm32f0xx_hal_tim_ex.c ****     (#) Supports incremental (quadrature) encoder and hall-sensor circuitry for 
  27:cube/Drivers/STM32F0xx_HAL_Driver/Src/stm32f0xx_hal_tim_ex.c ****         positioning purposes
  28:cube/Drivers/STM32F0xx_HAL_Driver/Src/stm32f0xx_hal_tim_ex.c **** 
  29:cube/Drivers/STM32F0xx_HAL_Driver/Src/stm32f0xx_hal_tim_ex.c ****             ##### How to use this driver #####
  30:cube/Drivers/STM32F0xx_HAL_Driver/Src/stm32f0xx_hal_tim_ex.c ****   ==============================================================================
  31:cube/Drivers/STM32F0xx_HAL_Driver/Src/stm32f0xx_hal_tim_ex.c ****     [..]
  32:cube/Drivers/STM32F0xx_HAL_Driver/Src/stm32f0xx_hal_tim_ex.c ****      (#) Initialize the TIM low level resources by implementing the following functions 
  33:cube/Drivers/STM32F0xx_HAL_Driver/Src/stm32f0xx_hal_tim_ex.c ****          depending from feature used :
ARM GAS  /tmp/ccpevmba.s 			page 2


  34:cube/Drivers/STM32F0xx_HAL_Driver/Src/stm32f0xx_hal_tim_ex.c ****            (++) Complementary Output Compare : HAL_TIM_OC_MspInit()
  35:cube/Drivers/STM32F0xx_HAL_Driver/Src/stm32f0xx_hal_tim_ex.c ****            (++) Complementary PWM generation : HAL_TIM_PWM_MspInit()
  36:cube/Drivers/STM32F0xx_HAL_Driver/Src/stm32f0xx_hal_tim_ex.c ****            (++) Complementary One-pulse mode output : HAL_TIM_OnePulse_MspInit()
  37:cube/Drivers/STM32F0xx_HAL_Driver/Src/stm32f0xx_hal_tim_ex.c ****            (++) Hall Sensor output : HAL_TIM_HallSensor_MspInit()
  38:cube/Drivers/STM32F0xx_HAL_Driver/Src/stm32f0xx_hal_tim_ex.c **** 
  39:cube/Drivers/STM32F0xx_HAL_Driver/Src/stm32f0xx_hal_tim_ex.c ****      (#) Initialize the TIM low level resources :
  40:cube/Drivers/STM32F0xx_HAL_Driver/Src/stm32f0xx_hal_tim_ex.c ****         (##) Enable the TIM interface clock using __HAL_RCC_TIMx_CLK_ENABLE();
  41:cube/Drivers/STM32F0xx_HAL_Driver/Src/stm32f0xx_hal_tim_ex.c ****         (##) TIM pins configuration
  42:cube/Drivers/STM32F0xx_HAL_Driver/Src/stm32f0xx_hal_tim_ex.c ****             (+++) Enable the clock for the TIM GPIOs using the following function:
  43:cube/Drivers/STM32F0xx_HAL_Driver/Src/stm32f0xx_hal_tim_ex.c ****               __HAL_RCC_GPIOx_CLK_ENABLE();
  44:cube/Drivers/STM32F0xx_HAL_Driver/Src/stm32f0xx_hal_tim_ex.c ****             (+++) Configure these TIM pins in Alternate function mode using HAL_GPIO_Init();
  45:cube/Drivers/STM32F0xx_HAL_Driver/Src/stm32f0xx_hal_tim_ex.c **** 
  46:cube/Drivers/STM32F0xx_HAL_Driver/Src/stm32f0xx_hal_tim_ex.c ****      (#) The external Clock can be configured, if needed (the default clock is the 
  47:cube/Drivers/STM32F0xx_HAL_Driver/Src/stm32f0xx_hal_tim_ex.c ****          internal clock from the APBx), using the following function:
  48:cube/Drivers/STM32F0xx_HAL_Driver/Src/stm32f0xx_hal_tim_ex.c ****          HAL_TIM_ConfigClockSource, the clock configuration should be done before 
  49:cube/Drivers/STM32F0xx_HAL_Driver/Src/stm32f0xx_hal_tim_ex.c ****          any start function.
  50:cube/Drivers/STM32F0xx_HAL_Driver/Src/stm32f0xx_hal_tim_ex.c **** 
  51:cube/Drivers/STM32F0xx_HAL_Driver/Src/stm32f0xx_hal_tim_ex.c ****      (#) Configure the TIM in the desired functioning mode using one of the 
  52:cube/Drivers/STM32F0xx_HAL_Driver/Src/stm32f0xx_hal_tim_ex.c ****          initialization function of this driver:
  53:cube/Drivers/STM32F0xx_HAL_Driver/Src/stm32f0xx_hal_tim_ex.c ****           (++) HAL_TIMEx_HallSensor_Init and HAL_TIMEx_ConfigCommutationEvent: to use the 
  54:cube/Drivers/STM32F0xx_HAL_Driver/Src/stm32f0xx_hal_tim_ex.c ****               Timer Hall Sensor Interface and the commutation event with the corresponding 
  55:cube/Drivers/STM32F0xx_HAL_Driver/Src/stm32f0xx_hal_tim_ex.c ****               Interrupt and DMA request if needed (Note that One Timer is used to interface 
  56:cube/Drivers/STM32F0xx_HAL_Driver/Src/stm32f0xx_hal_tim_ex.c ****              with the Hall sensor Interface and another Timer should be used to use 
  57:cube/Drivers/STM32F0xx_HAL_Driver/Src/stm32f0xx_hal_tim_ex.c ****              the commutation event).
  58:cube/Drivers/STM32F0xx_HAL_Driver/Src/stm32f0xx_hal_tim_ex.c **** 
  59:cube/Drivers/STM32F0xx_HAL_Driver/Src/stm32f0xx_hal_tim_ex.c ****      (#) Activate the TIM peripheral using one of the start functions:
  60:cube/Drivers/STM32F0xx_HAL_Driver/Src/stm32f0xx_hal_tim_ex.c ****            (++) Complementary Output Compare : HAL_TIMEx_OCN_Start(), HAL_TIMEx_OCN_Start_DMA(), HA
  61:cube/Drivers/STM32F0xx_HAL_Driver/Src/stm32f0xx_hal_tim_ex.c ****            (++) Complementary PWM generation : HAL_TIMEx_PWMN_Start(), HAL_TIMEx_PWMN_Start_DMA(), 
  62:cube/Drivers/STM32F0xx_HAL_Driver/Src/stm32f0xx_hal_tim_ex.c ****            (++) Complementary One-pulse mode output : HAL_TIMEx_OnePulseN_Start(), HAL_TIMEx_OnePul
  63:cube/Drivers/STM32F0xx_HAL_Driver/Src/stm32f0xx_hal_tim_ex.c ****            (++) Hall Sensor output : HAL_TIMEx_HallSensor_Start(), HAL_TIMEx_HallSensor_Start_DMA()
  64:cube/Drivers/STM32F0xx_HAL_Driver/Src/stm32f0xx_hal_tim_ex.c **** 
  65:cube/Drivers/STM32F0xx_HAL_Driver/Src/stm32f0xx_hal_tim_ex.c **** 
  66:cube/Drivers/STM32F0xx_HAL_Driver/Src/stm32f0xx_hal_tim_ex.c ****   @endverbatim
  67:cube/Drivers/STM32F0xx_HAL_Driver/Src/stm32f0xx_hal_tim_ex.c ****   ******************************************************************************
  68:cube/Drivers/STM32F0xx_HAL_Driver/Src/stm32f0xx_hal_tim_ex.c ****   * @attention
  69:cube/Drivers/STM32F0xx_HAL_Driver/Src/stm32f0xx_hal_tim_ex.c ****   *
  70:cube/Drivers/STM32F0xx_HAL_Driver/Src/stm32f0xx_hal_tim_ex.c ****   * <h2><center>&copy; COPYRIGHT(c) 2016 STMicroelectronics</center></h2>
  71:cube/Drivers/STM32F0xx_HAL_Driver/Src/stm32f0xx_hal_tim_ex.c ****   *
  72:cube/Drivers/STM32F0xx_HAL_Driver/Src/stm32f0xx_hal_tim_ex.c ****   * Redistribution and use in source and binary forms, with or without modification,
  73:cube/Drivers/STM32F0xx_HAL_Driver/Src/stm32f0xx_hal_tim_ex.c ****   * are permitted provided that the following conditions are met:
  74:cube/Drivers/STM32F0xx_HAL_Driver/Src/stm32f0xx_hal_tim_ex.c ****   *   1. Redistributions of source code must retain the above copyright notice,
  75:cube/Drivers/STM32F0xx_HAL_Driver/Src/stm32f0xx_hal_tim_ex.c ****   *      this list of conditions and the following disclaimer.
  76:cube/Drivers/STM32F0xx_HAL_Driver/Src/stm32f0xx_hal_tim_ex.c ****   *   2. Redistributions in binary form must reproduce the above copyright notice,
  77:cube/Drivers/STM32F0xx_HAL_Driver/Src/stm32f0xx_hal_tim_ex.c ****   *      this list of conditions and the following disclaimer in the documentation
  78:cube/Drivers/STM32F0xx_HAL_Driver/Src/stm32f0xx_hal_tim_ex.c ****   *      and/or other materials provided with the distribution.
  79:cube/Drivers/STM32F0xx_HAL_Driver/Src/stm32f0xx_hal_tim_ex.c ****   *   3. Neither the name of STMicroelectronics nor the names of its contributors
  80:cube/Drivers/STM32F0xx_HAL_Driver/Src/stm32f0xx_hal_tim_ex.c ****   *      may be used to endorse or promote products derived from this software
  81:cube/Drivers/STM32F0xx_HAL_Driver/Src/stm32f0xx_hal_tim_ex.c ****   *      without specific prior written permission.
  82:cube/Drivers/STM32F0xx_HAL_Driver/Src/stm32f0xx_hal_tim_ex.c ****   *
  83:cube/Drivers/STM32F0xx_HAL_Driver/Src/stm32f0xx_hal_tim_ex.c ****   * THIS SOFTWARE IS PROVIDED BY THE COPYRIGHT HOLDERS AND CONTRIBUTORS "AS IS"
  84:cube/Drivers/STM32F0xx_HAL_Driver/Src/stm32f0xx_hal_tim_ex.c ****   * AND ANY EXPRESS OR IMPLIED WARRANTIES, INCLUDING, BUT NOT LIMITED TO, THE
  85:cube/Drivers/STM32F0xx_HAL_Driver/Src/stm32f0xx_hal_tim_ex.c ****   * IMPLIED WARRANTIES OF MERCHANTABILITY AND FITNESS FOR A PARTICULAR PURPOSE ARE
  86:cube/Drivers/STM32F0xx_HAL_Driver/Src/stm32f0xx_hal_tim_ex.c ****   * DISCLAIMED. IN NO EVENT SHALL THE COPYRIGHT HOLDER OR CONTRIBUTORS BE LIABLE
  87:cube/Drivers/STM32F0xx_HAL_Driver/Src/stm32f0xx_hal_tim_ex.c ****   * FOR ANY DIRECT, INDIRECT, INCIDENTAL, SPECIAL, EXEMPLARY, OR CONSEQUENTIAL
  88:cube/Drivers/STM32F0xx_HAL_Driver/Src/stm32f0xx_hal_tim_ex.c ****   * DAMAGES (INCLUDING, BUT NOT LIMITED TO, PROCUREMENT OF SUBSTITUTE GOODS OR
  89:cube/Drivers/STM32F0xx_HAL_Driver/Src/stm32f0xx_hal_tim_ex.c ****   * SERVICES; LOSS OF USE, DATA, OR PROFITS; OR BUSINESS INTERRUPTION) HOWEVER
  90:cube/Drivers/STM32F0xx_HAL_Driver/Src/stm32f0xx_hal_tim_ex.c ****   * CAUSED AND ON ANY THEORY OF LIABILITY, WHETHER IN CONTRACT, STRICT LIABILITY,
ARM GAS  /tmp/ccpevmba.s 			page 3


  91:cube/Drivers/STM32F0xx_HAL_Driver/Src/stm32f0xx_hal_tim_ex.c ****   * OR TORT (INCLUDING NEGLIGENCE OR OTHERWISE) ARISING IN ANY WAY OUT OF THE USE
  92:cube/Drivers/STM32F0xx_HAL_Driver/Src/stm32f0xx_hal_tim_ex.c ****   * OF THIS SOFTWARE, EVEN IF ADVISED OF THE POSSIBILITY OF SUCH DAMAGE.
  93:cube/Drivers/STM32F0xx_HAL_Driver/Src/stm32f0xx_hal_tim_ex.c ****   *
  94:cube/Drivers/STM32F0xx_HAL_Driver/Src/stm32f0xx_hal_tim_ex.c ****   ******************************************************************************
  95:cube/Drivers/STM32F0xx_HAL_Driver/Src/stm32f0xx_hal_tim_ex.c **** */
  96:cube/Drivers/STM32F0xx_HAL_Driver/Src/stm32f0xx_hal_tim_ex.c **** 
  97:cube/Drivers/STM32F0xx_HAL_Driver/Src/stm32f0xx_hal_tim_ex.c **** /* Includes ------------------------------------------------------------------*/
  98:cube/Drivers/STM32F0xx_HAL_Driver/Src/stm32f0xx_hal_tim_ex.c **** #include "stm32f0xx_hal.h"
  99:cube/Drivers/STM32F0xx_HAL_Driver/Src/stm32f0xx_hal_tim_ex.c **** 
 100:cube/Drivers/STM32F0xx_HAL_Driver/Src/stm32f0xx_hal_tim_ex.c **** /** @addtogroup STM32F0xx_HAL_Driver
 101:cube/Drivers/STM32F0xx_HAL_Driver/Src/stm32f0xx_hal_tim_ex.c ****   * @{
 102:cube/Drivers/STM32F0xx_HAL_Driver/Src/stm32f0xx_hal_tim_ex.c ****   */
 103:cube/Drivers/STM32F0xx_HAL_Driver/Src/stm32f0xx_hal_tim_ex.c **** 
 104:cube/Drivers/STM32F0xx_HAL_Driver/Src/stm32f0xx_hal_tim_ex.c **** /** @defgroup TIMEx TIMEx
 105:cube/Drivers/STM32F0xx_HAL_Driver/Src/stm32f0xx_hal_tim_ex.c ****   * @brief TIM Extended HAL module driver
 106:cube/Drivers/STM32F0xx_HAL_Driver/Src/stm32f0xx_hal_tim_ex.c ****   * @{
 107:cube/Drivers/STM32F0xx_HAL_Driver/Src/stm32f0xx_hal_tim_ex.c ****   */
 108:cube/Drivers/STM32F0xx_HAL_Driver/Src/stm32f0xx_hal_tim_ex.c **** 
 109:cube/Drivers/STM32F0xx_HAL_Driver/Src/stm32f0xx_hal_tim_ex.c **** #ifdef HAL_TIM_MODULE_ENABLED
 110:cube/Drivers/STM32F0xx_HAL_Driver/Src/stm32f0xx_hal_tim_ex.c **** 
 111:cube/Drivers/STM32F0xx_HAL_Driver/Src/stm32f0xx_hal_tim_ex.c **** /* Private typedef -----------------------------------------------------------*/
 112:cube/Drivers/STM32F0xx_HAL_Driver/Src/stm32f0xx_hal_tim_ex.c **** /* Private define ------------------------------------------------------------*/
 113:cube/Drivers/STM32F0xx_HAL_Driver/Src/stm32f0xx_hal_tim_ex.c **** /* Private macro -------------------------------------------------------------*/
 114:cube/Drivers/STM32F0xx_HAL_Driver/Src/stm32f0xx_hal_tim_ex.c **** /* Private variables ---------------------------------------------------------*/
 115:cube/Drivers/STM32F0xx_HAL_Driver/Src/stm32f0xx_hal_tim_ex.c **** /* Private function prototypes -----------------------------------------------*/
 116:cube/Drivers/STM32F0xx_HAL_Driver/Src/stm32f0xx_hal_tim_ex.c **** 
 117:cube/Drivers/STM32F0xx_HAL_Driver/Src/stm32f0xx_hal_tim_ex.c **** /** @defgroup TIMEx_Private_Functions TIMEx Private Functions
 118:cube/Drivers/STM32F0xx_HAL_Driver/Src/stm32f0xx_hal_tim_ex.c ****   * @{
 119:cube/Drivers/STM32F0xx_HAL_Driver/Src/stm32f0xx_hal_tim_ex.c ****   */
 120:cube/Drivers/STM32F0xx_HAL_Driver/Src/stm32f0xx_hal_tim_ex.c **** static void TIM_CCxNChannelCmd(TIM_TypeDef* TIMx, uint32_t Channel, uint32_t ChannelNState);
 121:cube/Drivers/STM32F0xx_HAL_Driver/Src/stm32f0xx_hal_tim_ex.c **** /**
 122:cube/Drivers/STM32F0xx_HAL_Driver/Src/stm32f0xx_hal_tim_ex.c ****   * @}
 123:cube/Drivers/STM32F0xx_HAL_Driver/Src/stm32f0xx_hal_tim_ex.c ****   */
 124:cube/Drivers/STM32F0xx_HAL_Driver/Src/stm32f0xx_hal_tim_ex.c **** 
 125:cube/Drivers/STM32F0xx_HAL_Driver/Src/stm32f0xx_hal_tim_ex.c **** /* Exported functions ---------------------------------------------------------*/
 126:cube/Drivers/STM32F0xx_HAL_Driver/Src/stm32f0xx_hal_tim_ex.c **** 
 127:cube/Drivers/STM32F0xx_HAL_Driver/Src/stm32f0xx_hal_tim_ex.c **** /** @defgroup TIMEx_Exported_Functions TIMEx Exported Functions
 128:cube/Drivers/STM32F0xx_HAL_Driver/Src/stm32f0xx_hal_tim_ex.c ****   * @{
 129:cube/Drivers/STM32F0xx_HAL_Driver/Src/stm32f0xx_hal_tim_ex.c ****   */
 130:cube/Drivers/STM32F0xx_HAL_Driver/Src/stm32f0xx_hal_tim_ex.c **** 
 131:cube/Drivers/STM32F0xx_HAL_Driver/Src/stm32f0xx_hal_tim_ex.c **** /** @defgroup TIMEx_Exported_Functions_Group1 Timer Hall Sensor functions 
 132:cube/Drivers/STM32F0xx_HAL_Driver/Src/stm32f0xx_hal_tim_ex.c ****  *  @brief    Timer Hall Sensor functions 
 133:cube/Drivers/STM32F0xx_HAL_Driver/Src/stm32f0xx_hal_tim_ex.c ****  *
 134:cube/Drivers/STM32F0xx_HAL_Driver/Src/stm32f0xx_hal_tim_ex.c **** @verbatim 
 135:cube/Drivers/STM32F0xx_HAL_Driver/Src/stm32f0xx_hal_tim_ex.c ****   ==============================================================================
 136:cube/Drivers/STM32F0xx_HAL_Driver/Src/stm32f0xx_hal_tim_ex.c ****                       ##### Timer Hall Sensor functions #####
 137:cube/Drivers/STM32F0xx_HAL_Driver/Src/stm32f0xx_hal_tim_ex.c ****   ==============================================================================
 138:cube/Drivers/STM32F0xx_HAL_Driver/Src/stm32f0xx_hal_tim_ex.c ****   [..]
 139:cube/Drivers/STM32F0xx_HAL_Driver/Src/stm32f0xx_hal_tim_ex.c ****     This section provides functions allowing to:
 140:cube/Drivers/STM32F0xx_HAL_Driver/Src/stm32f0xx_hal_tim_ex.c ****     (+) Initialize and configure TIM HAL Sensor.
 141:cube/Drivers/STM32F0xx_HAL_Driver/Src/stm32f0xx_hal_tim_ex.c ****     (+) De-initialize TIM HAL Sensor.
 142:cube/Drivers/STM32F0xx_HAL_Driver/Src/stm32f0xx_hal_tim_ex.c ****     (+) Start the Hall Sensor Interface.
 143:cube/Drivers/STM32F0xx_HAL_Driver/Src/stm32f0xx_hal_tim_ex.c ****     (+) Stop the Hall Sensor Interface.
 144:cube/Drivers/STM32F0xx_HAL_Driver/Src/stm32f0xx_hal_tim_ex.c ****     (+) Start the Hall Sensor Interface and enable interrupts.
 145:cube/Drivers/STM32F0xx_HAL_Driver/Src/stm32f0xx_hal_tim_ex.c ****     (+) Stop the Hall Sensor Interface and disable interrupts.
 146:cube/Drivers/STM32F0xx_HAL_Driver/Src/stm32f0xx_hal_tim_ex.c ****     (+) Start the Hall Sensor Interface and enable DMA transfers.
 147:cube/Drivers/STM32F0xx_HAL_Driver/Src/stm32f0xx_hal_tim_ex.c ****     (+) Stop the Hall Sensor Interface and disable DMA transfers.
ARM GAS  /tmp/ccpevmba.s 			page 4


 148:cube/Drivers/STM32F0xx_HAL_Driver/Src/stm32f0xx_hal_tim_ex.c **** 
 149:cube/Drivers/STM32F0xx_HAL_Driver/Src/stm32f0xx_hal_tim_ex.c **** @endverbatim
 150:cube/Drivers/STM32F0xx_HAL_Driver/Src/stm32f0xx_hal_tim_ex.c ****   * @{
 151:cube/Drivers/STM32F0xx_HAL_Driver/Src/stm32f0xx_hal_tim_ex.c ****   */
 152:cube/Drivers/STM32F0xx_HAL_Driver/Src/stm32f0xx_hal_tim_ex.c **** /**
 153:cube/Drivers/STM32F0xx_HAL_Driver/Src/stm32f0xx_hal_tim_ex.c ****   * @brief  Initializes the TIM Hall Sensor Interface and create the associated handle.
 154:cube/Drivers/STM32F0xx_HAL_Driver/Src/stm32f0xx_hal_tim_ex.c ****   * @param  htim TIM Encoder Interface handle
 155:cube/Drivers/STM32F0xx_HAL_Driver/Src/stm32f0xx_hal_tim_ex.c ****   * @param  sConfig TIM Hall Sensor configuration structure
 156:cube/Drivers/STM32F0xx_HAL_Driver/Src/stm32f0xx_hal_tim_ex.c ****   * @retval HAL status
 157:cube/Drivers/STM32F0xx_HAL_Driver/Src/stm32f0xx_hal_tim_ex.c ****   */
 158:cube/Drivers/STM32F0xx_HAL_Driver/Src/stm32f0xx_hal_tim_ex.c **** HAL_StatusTypeDef HAL_TIMEx_HallSensor_Init(TIM_HandleTypeDef *htim, TIM_HallSensor_InitTypeDef* sC
 159:cube/Drivers/STM32F0xx_HAL_Driver/Src/stm32f0xx_hal_tim_ex.c **** {
  26              		.loc 1 159 0
  27              		.cfi_startproc
  28              		@ args = 0, pretend = 0, frame = 40
  29              		@ frame_needed = 1, uses_anonymous_args = 0
  30 0000 80B5     		push	{r7, lr}
  31              		.cfi_def_cfa_offset 8
  32              		.cfi_offset 7, -8
  33              		.cfi_offset 14, -4
  34 0002 8AB0     		sub	sp, sp, #40
  35              		.cfi_def_cfa_offset 48
  36 0004 00AF     		add	r7, sp, #0
  37              		.cfi_def_cfa_register 7
  38 0006 7860     		str	r0, [r7, #4]
  39 0008 3960     		str	r1, [r7]
 160:cube/Drivers/STM32F0xx_HAL_Driver/Src/stm32f0xx_hal_tim_ex.c ****   TIM_OC_InitTypeDef OC_Config;
 161:cube/Drivers/STM32F0xx_HAL_Driver/Src/stm32f0xx_hal_tim_ex.c **** 
 162:cube/Drivers/STM32F0xx_HAL_Driver/Src/stm32f0xx_hal_tim_ex.c ****   /* Check the TIM handle allocation */
 163:cube/Drivers/STM32F0xx_HAL_Driver/Src/stm32f0xx_hal_tim_ex.c ****   if(htim == NULL)
  40              		.loc 1 163 0
  41 000a 7B68     		ldr	r3, [r7, #4]
  42 000c 002B     		cmp	r3, #0
  43 000e 01D1     		bne	.L2
 164:cube/Drivers/STM32F0xx_HAL_Driver/Src/stm32f0xx_hal_tim_ex.c ****   {
 165:cube/Drivers/STM32F0xx_HAL_Driver/Src/stm32f0xx_hal_tim_ex.c ****     return HAL_ERROR;
  44              		.loc 1 165 0
  45 0010 0123     		movs	r3, #1
  46 0012 8EE0     		b	.L5
  47              	.L2:
 166:cube/Drivers/STM32F0xx_HAL_Driver/Src/stm32f0xx_hal_tim_ex.c ****   }
 167:cube/Drivers/STM32F0xx_HAL_Driver/Src/stm32f0xx_hal_tim_ex.c **** 
 168:cube/Drivers/STM32F0xx_HAL_Driver/Src/stm32f0xx_hal_tim_ex.c ****   assert_param(IS_TIM_HALL_INTERFACE_INSTANCE(htim->Instance));
 169:cube/Drivers/STM32F0xx_HAL_Driver/Src/stm32f0xx_hal_tim_ex.c ****   assert_param(IS_TIM_COUNTER_MODE(htim->Init.CounterMode));
 170:cube/Drivers/STM32F0xx_HAL_Driver/Src/stm32f0xx_hal_tim_ex.c ****   assert_param(IS_TIM_CLOCKDIVISION_DIV(htim->Init.ClockDivision));
 171:cube/Drivers/STM32F0xx_HAL_Driver/Src/stm32f0xx_hal_tim_ex.c ****   assert_param(IS_TIM_IC_POLARITY(sConfig->IC1Polarity));
 172:cube/Drivers/STM32F0xx_HAL_Driver/Src/stm32f0xx_hal_tim_ex.c ****   assert_param(IS_TIM_IC_PRESCALER(sConfig->IC1Prescaler));
 173:cube/Drivers/STM32F0xx_HAL_Driver/Src/stm32f0xx_hal_tim_ex.c ****   assert_param(IS_TIM_IC_FILTER(sConfig->IC1Filter));
 174:cube/Drivers/STM32F0xx_HAL_Driver/Src/stm32f0xx_hal_tim_ex.c ****   assert_param(IS_TIM_AUTORELOAD_PRELOAD(htim->Init.AutoReloadPreload));
 175:cube/Drivers/STM32F0xx_HAL_Driver/Src/stm32f0xx_hal_tim_ex.c **** 
 176:cube/Drivers/STM32F0xx_HAL_Driver/Src/stm32f0xx_hal_tim_ex.c ****   if(htim->State == HAL_TIM_STATE_RESET)
  48              		.loc 1 176 0
  49 0014 7B68     		ldr	r3, [r7, #4]
  50 0016 3D22     		movs	r2, #61
  51 0018 9B5C     		ldrb	r3, [r3, r2]
  52 001a DBB2     		uxtb	r3, r3
  53 001c 002B     		cmp	r3, #0
ARM GAS  /tmp/ccpevmba.s 			page 5


  54 001e 07D1     		bne	.L4
 177:cube/Drivers/STM32F0xx_HAL_Driver/Src/stm32f0xx_hal_tim_ex.c ****   {
 178:cube/Drivers/STM32F0xx_HAL_Driver/Src/stm32f0xx_hal_tim_ex.c ****     /* Allocate lock resource and initialize it */
 179:cube/Drivers/STM32F0xx_HAL_Driver/Src/stm32f0xx_hal_tim_ex.c ****     htim->Lock = HAL_UNLOCKED;
  55              		.loc 1 179 0
  56 0020 7B68     		ldr	r3, [r7, #4]
  57 0022 3C22     		movs	r2, #60
  58 0024 0021     		movs	r1, #0
  59 0026 9954     		strb	r1, [r3, r2]
 180:cube/Drivers/STM32F0xx_HAL_Driver/Src/stm32f0xx_hal_tim_ex.c **** 
 181:cube/Drivers/STM32F0xx_HAL_Driver/Src/stm32f0xx_hal_tim_ex.c ****     /* Init the low level hardware : GPIO, CLOCK, NVIC and DMA */
 182:cube/Drivers/STM32F0xx_HAL_Driver/Src/stm32f0xx_hal_tim_ex.c ****     HAL_TIMEx_HallSensor_MspInit(htim);
  60              		.loc 1 182 0
  61 0028 7B68     		ldr	r3, [r7, #4]
  62 002a 1800     		movs	r0, r3
  63 002c FFF7FEFF 		bl	HAL_TIMEx_HallSensor_MspInit
  64              	.L4:
 183:cube/Drivers/STM32F0xx_HAL_Driver/Src/stm32f0xx_hal_tim_ex.c ****   }
 184:cube/Drivers/STM32F0xx_HAL_Driver/Src/stm32f0xx_hal_tim_ex.c **** 
 185:cube/Drivers/STM32F0xx_HAL_Driver/Src/stm32f0xx_hal_tim_ex.c ****   /* Set the TIM state */
 186:cube/Drivers/STM32F0xx_HAL_Driver/Src/stm32f0xx_hal_tim_ex.c ****   htim->State= HAL_TIM_STATE_BUSY;
  65              		.loc 1 186 0
  66 0030 7B68     		ldr	r3, [r7, #4]
  67 0032 3D22     		movs	r2, #61
  68 0034 0221     		movs	r1, #2
  69 0036 9954     		strb	r1, [r3, r2]
 187:cube/Drivers/STM32F0xx_HAL_Driver/Src/stm32f0xx_hal_tim_ex.c **** 
 188:cube/Drivers/STM32F0xx_HAL_Driver/Src/stm32f0xx_hal_tim_ex.c ****   /* Configure the Time base in the Encoder Mode */
 189:cube/Drivers/STM32F0xx_HAL_Driver/Src/stm32f0xx_hal_tim_ex.c ****   TIM_Base_SetConfig(htim->Instance, &htim->Init);
  70              		.loc 1 189 0
  71 0038 7B68     		ldr	r3, [r7, #4]
  72 003a 1A68     		ldr	r2, [r3]
  73 003c 7B68     		ldr	r3, [r7, #4]
  74 003e 0433     		adds	r3, r3, #4
  75 0040 1900     		movs	r1, r3
  76 0042 1000     		movs	r0, r2
  77 0044 FFF7FEFF 		bl	TIM_Base_SetConfig
 190:cube/Drivers/STM32F0xx_HAL_Driver/Src/stm32f0xx_hal_tim_ex.c **** 
 191:cube/Drivers/STM32F0xx_HAL_Driver/Src/stm32f0xx_hal_tim_ex.c ****   /* Configure the Channel 1 as Input Channel to interface with the three Outputs of the  Hall sens
 192:cube/Drivers/STM32F0xx_HAL_Driver/Src/stm32f0xx_hal_tim_ex.c ****   TIM_TI1_SetConfig(htim->Instance, sConfig->IC1Polarity, TIM_ICSELECTION_TRC, sConfig->IC1Filter);
  78              		.loc 1 192 0
  79 0048 7B68     		ldr	r3, [r7, #4]
  80 004a 1868     		ldr	r0, [r3]
  81 004c 3B68     		ldr	r3, [r7]
  82 004e 1968     		ldr	r1, [r3]
  83 0050 3B68     		ldr	r3, [r7]
  84 0052 9B68     		ldr	r3, [r3, #8]
  85 0054 0322     		movs	r2, #3
  86 0056 FFF7FEFF 		bl	TIM_TI1_SetConfig
 193:cube/Drivers/STM32F0xx_HAL_Driver/Src/stm32f0xx_hal_tim_ex.c **** 
 194:cube/Drivers/STM32F0xx_HAL_Driver/Src/stm32f0xx_hal_tim_ex.c ****   /* Reset the IC1PSC Bits */
 195:cube/Drivers/STM32F0xx_HAL_Driver/Src/stm32f0xx_hal_tim_ex.c ****   htim->Instance->CCMR1 &= ~TIM_CCMR1_IC1PSC;
  87              		.loc 1 195 0
  88 005a 7B68     		ldr	r3, [r7, #4]
  89 005c 1B68     		ldr	r3, [r3]
  90 005e 9A69     		ldr	r2, [r3, #24]
  91 0060 7B68     		ldr	r3, [r7, #4]
ARM GAS  /tmp/ccpevmba.s 			page 6


  92 0062 1B68     		ldr	r3, [r3]
  93 0064 0C21     		movs	r1, #12
  94 0066 8A43     		bics	r2, r1
  95 0068 9A61     		str	r2, [r3, #24]
 196:cube/Drivers/STM32F0xx_HAL_Driver/Src/stm32f0xx_hal_tim_ex.c ****   /* Set the IC1PSC value */
 197:cube/Drivers/STM32F0xx_HAL_Driver/Src/stm32f0xx_hal_tim_ex.c ****   htim->Instance->CCMR1 |= sConfig->IC1Prescaler;
  96              		.loc 1 197 0
  97 006a 7B68     		ldr	r3, [r7, #4]
  98 006c 1B68     		ldr	r3, [r3]
  99 006e 9969     		ldr	r1, [r3, #24]
 100 0070 3B68     		ldr	r3, [r7]
 101 0072 5A68     		ldr	r2, [r3, #4]
 102 0074 7B68     		ldr	r3, [r7, #4]
 103 0076 1B68     		ldr	r3, [r3]
 104 0078 0A43     		orrs	r2, r1
 105 007a 9A61     		str	r2, [r3, #24]
 198:cube/Drivers/STM32F0xx_HAL_Driver/Src/stm32f0xx_hal_tim_ex.c **** 
 199:cube/Drivers/STM32F0xx_HAL_Driver/Src/stm32f0xx_hal_tim_ex.c ****   /* Enable the Hall sensor interface (XOR function of the three inputs) */
 200:cube/Drivers/STM32F0xx_HAL_Driver/Src/stm32f0xx_hal_tim_ex.c ****   htim->Instance->CR2 |= TIM_CR2_TI1S;
 106              		.loc 1 200 0
 107 007c 7B68     		ldr	r3, [r7, #4]
 108 007e 1B68     		ldr	r3, [r3]
 109 0080 5A68     		ldr	r2, [r3, #4]
 110 0082 7B68     		ldr	r3, [r7, #4]
 111 0084 1B68     		ldr	r3, [r3]
 112 0086 8021     		movs	r1, #128
 113 0088 0A43     		orrs	r2, r1
 114 008a 5A60     		str	r2, [r3, #4]
 201:cube/Drivers/STM32F0xx_HAL_Driver/Src/stm32f0xx_hal_tim_ex.c **** 
 202:cube/Drivers/STM32F0xx_HAL_Driver/Src/stm32f0xx_hal_tim_ex.c ****   /* Select the TIM_TS_TI1F_ED signal as Input trigger for the TIM */
 203:cube/Drivers/STM32F0xx_HAL_Driver/Src/stm32f0xx_hal_tim_ex.c ****   htim->Instance->SMCR &= ~TIM_SMCR_TS;
 115              		.loc 1 203 0
 116 008c 7B68     		ldr	r3, [r7, #4]
 117 008e 1B68     		ldr	r3, [r3]
 118 0090 9A68     		ldr	r2, [r3, #8]
 119 0092 7B68     		ldr	r3, [r7, #4]
 120 0094 1B68     		ldr	r3, [r3]
 121 0096 7021     		movs	r1, #112
 122 0098 8A43     		bics	r2, r1
 123 009a 9A60     		str	r2, [r3, #8]
 204:cube/Drivers/STM32F0xx_HAL_Driver/Src/stm32f0xx_hal_tim_ex.c ****   htim->Instance->SMCR |= TIM_TS_TI1F_ED;
 124              		.loc 1 204 0
 125 009c 7B68     		ldr	r3, [r7, #4]
 126 009e 1B68     		ldr	r3, [r3]
 127 00a0 9A68     		ldr	r2, [r3, #8]
 128 00a2 7B68     		ldr	r3, [r7, #4]
 129 00a4 1B68     		ldr	r3, [r3]
 130 00a6 4021     		movs	r1, #64
 131 00a8 0A43     		orrs	r2, r1
 132 00aa 9A60     		str	r2, [r3, #8]
 205:cube/Drivers/STM32F0xx_HAL_Driver/Src/stm32f0xx_hal_tim_ex.c **** 
 206:cube/Drivers/STM32F0xx_HAL_Driver/Src/stm32f0xx_hal_tim_ex.c ****   /* Use the TIM_TS_TI1F_ED signal to reset the TIM counter each edge detection */
 207:cube/Drivers/STM32F0xx_HAL_Driver/Src/stm32f0xx_hal_tim_ex.c ****   htim->Instance->SMCR &= ~TIM_SMCR_SMS;
 133              		.loc 1 207 0
 134 00ac 7B68     		ldr	r3, [r7, #4]
 135 00ae 1B68     		ldr	r3, [r3]
 136 00b0 9A68     		ldr	r2, [r3, #8]
ARM GAS  /tmp/ccpevmba.s 			page 7


 137 00b2 7B68     		ldr	r3, [r7, #4]
 138 00b4 1B68     		ldr	r3, [r3]
 139 00b6 0721     		movs	r1, #7
 140 00b8 8A43     		bics	r2, r1
 141 00ba 9A60     		str	r2, [r3, #8]
 208:cube/Drivers/STM32F0xx_HAL_Driver/Src/stm32f0xx_hal_tim_ex.c ****   htim->Instance->SMCR |= TIM_SLAVEMODE_RESET;
 142              		.loc 1 208 0
 143 00bc 7B68     		ldr	r3, [r7, #4]
 144 00be 1B68     		ldr	r3, [r3]
 145 00c0 9A68     		ldr	r2, [r3, #8]
 146 00c2 7B68     		ldr	r3, [r7, #4]
 147 00c4 1B68     		ldr	r3, [r3]
 148 00c6 0421     		movs	r1, #4
 149 00c8 0A43     		orrs	r2, r1
 150 00ca 9A60     		str	r2, [r3, #8]
 209:cube/Drivers/STM32F0xx_HAL_Driver/Src/stm32f0xx_hal_tim_ex.c **** 
 210:cube/Drivers/STM32F0xx_HAL_Driver/Src/stm32f0xx_hal_tim_ex.c ****   /* Program channel 2 in PWM 2 mode with the desired Commutation_Delay*/
 211:cube/Drivers/STM32F0xx_HAL_Driver/Src/stm32f0xx_hal_tim_ex.c ****   OC_Config.OCFastMode = TIM_OCFAST_DISABLE;
 151              		.loc 1 211 0
 152 00cc 0C21     		movs	r1, #12
 153 00ce 7B18     		adds	r3, r7, r1
 154 00d0 0022     		movs	r2, #0
 155 00d2 1A61     		str	r2, [r3, #16]
 212:cube/Drivers/STM32F0xx_HAL_Driver/Src/stm32f0xx_hal_tim_ex.c ****   OC_Config.OCIdleState = TIM_OCIDLESTATE_RESET;
 156              		.loc 1 212 0
 157 00d4 7B18     		adds	r3, r7, r1
 158 00d6 0022     		movs	r2, #0
 159 00d8 5A61     		str	r2, [r3, #20]
 213:cube/Drivers/STM32F0xx_HAL_Driver/Src/stm32f0xx_hal_tim_ex.c ****   OC_Config.OCMode = TIM_OCMODE_PWM2;
 160              		.loc 1 213 0
 161 00da 7B18     		adds	r3, r7, r1
 162 00dc 7022     		movs	r2, #112
 163 00de 1A60     		str	r2, [r3]
 214:cube/Drivers/STM32F0xx_HAL_Driver/Src/stm32f0xx_hal_tim_ex.c ****   OC_Config.OCNIdleState = TIM_OCNIDLESTATE_RESET;
 164              		.loc 1 214 0
 165 00e0 7B18     		adds	r3, r7, r1
 166 00e2 0022     		movs	r2, #0
 167 00e4 9A61     		str	r2, [r3, #24]
 215:cube/Drivers/STM32F0xx_HAL_Driver/Src/stm32f0xx_hal_tim_ex.c ****   OC_Config.OCNPolarity = TIM_OCNPOLARITY_HIGH;
 168              		.loc 1 215 0
 169 00e6 7B18     		adds	r3, r7, r1
 170 00e8 0022     		movs	r2, #0
 171 00ea DA60     		str	r2, [r3, #12]
 216:cube/Drivers/STM32F0xx_HAL_Driver/Src/stm32f0xx_hal_tim_ex.c ****   OC_Config.OCPolarity = TIM_OCPOLARITY_HIGH;
 172              		.loc 1 216 0
 173 00ec 7B18     		adds	r3, r7, r1
 174 00ee 0022     		movs	r2, #0
 175 00f0 9A60     		str	r2, [r3, #8]
 217:cube/Drivers/STM32F0xx_HAL_Driver/Src/stm32f0xx_hal_tim_ex.c ****   OC_Config.Pulse = sConfig->Commutation_Delay;
 176              		.loc 1 217 0
 177 00f2 3B68     		ldr	r3, [r7]
 178 00f4 DA68     		ldr	r2, [r3, #12]
 179 00f6 7B18     		adds	r3, r7, r1
 180 00f8 5A60     		str	r2, [r3, #4]
 218:cube/Drivers/STM32F0xx_HAL_Driver/Src/stm32f0xx_hal_tim_ex.c **** 
 219:cube/Drivers/STM32F0xx_HAL_Driver/Src/stm32f0xx_hal_tim_ex.c ****   TIM_OC2_SetConfig(htim->Instance, &OC_Config);
 181              		.loc 1 219 0
ARM GAS  /tmp/ccpevmba.s 			page 8


 182 00fa 7B68     		ldr	r3, [r7, #4]
 183 00fc 1B68     		ldr	r3, [r3]
 184 00fe 7A18     		adds	r2, r7, r1
 185 0100 1100     		movs	r1, r2
 186 0102 1800     		movs	r0, r3
 187 0104 FFF7FEFF 		bl	TIM_OC2_SetConfig
 220:cube/Drivers/STM32F0xx_HAL_Driver/Src/stm32f0xx_hal_tim_ex.c **** 
 221:cube/Drivers/STM32F0xx_HAL_Driver/Src/stm32f0xx_hal_tim_ex.c ****   /* Select OC2REF as trigger output on TRGO: write the MMS bits in the TIMx_CR2
 222:cube/Drivers/STM32F0xx_HAL_Driver/Src/stm32f0xx_hal_tim_ex.c ****     register to 101 */
 223:cube/Drivers/STM32F0xx_HAL_Driver/Src/stm32f0xx_hal_tim_ex.c ****   htim->Instance->CR2 &= ~TIM_CR2_MMS;
 188              		.loc 1 223 0
 189 0108 7B68     		ldr	r3, [r7, #4]
 190 010a 1B68     		ldr	r3, [r3]
 191 010c 5A68     		ldr	r2, [r3, #4]
 192 010e 7B68     		ldr	r3, [r7, #4]
 193 0110 1B68     		ldr	r3, [r3]
 194 0112 7021     		movs	r1, #112
 195 0114 8A43     		bics	r2, r1
 196 0116 5A60     		str	r2, [r3, #4]
 224:cube/Drivers/STM32F0xx_HAL_Driver/Src/stm32f0xx_hal_tim_ex.c ****   htim->Instance->CR2 |= TIM_TRGO_OC2REF;
 197              		.loc 1 224 0
 198 0118 7B68     		ldr	r3, [r7, #4]
 199 011a 1B68     		ldr	r3, [r3]
 200 011c 5A68     		ldr	r2, [r3, #4]
 201 011e 7B68     		ldr	r3, [r7, #4]
 202 0120 1B68     		ldr	r3, [r3]
 203 0122 5021     		movs	r1, #80
 204 0124 0A43     		orrs	r2, r1
 205 0126 5A60     		str	r2, [r3, #4]
 225:cube/Drivers/STM32F0xx_HAL_Driver/Src/stm32f0xx_hal_tim_ex.c **** 
 226:cube/Drivers/STM32F0xx_HAL_Driver/Src/stm32f0xx_hal_tim_ex.c ****   /* Initialize the TIM state*/
 227:cube/Drivers/STM32F0xx_HAL_Driver/Src/stm32f0xx_hal_tim_ex.c ****   htim->State= HAL_TIM_STATE_READY;
 206              		.loc 1 227 0
 207 0128 7B68     		ldr	r3, [r7, #4]
 208 012a 3D22     		movs	r2, #61
 209 012c 0121     		movs	r1, #1
 210 012e 9954     		strb	r1, [r3, r2]
 228:cube/Drivers/STM32F0xx_HAL_Driver/Src/stm32f0xx_hal_tim_ex.c **** 
 229:cube/Drivers/STM32F0xx_HAL_Driver/Src/stm32f0xx_hal_tim_ex.c ****   return HAL_OK;
 211              		.loc 1 229 0
 212 0130 0023     		movs	r3, #0
 213              	.L5:
 230:cube/Drivers/STM32F0xx_HAL_Driver/Src/stm32f0xx_hal_tim_ex.c **** }
 214              		.loc 1 230 0 discriminator 1
 215 0132 1800     		movs	r0, r3
 216 0134 BD46     		mov	sp, r7
 217 0136 0AB0     		add	sp, sp, #40
 218              		@ sp needed
 219 0138 80BD     		pop	{r7, pc}
 220              		.cfi_endproc
 221              	.LFE37:
 223              		.section	.text.HAL_TIMEx_HallSensor_DeInit,"ax",%progbits
 224              		.align	1
 225              		.global	HAL_TIMEx_HallSensor_DeInit
 226              		.syntax unified
 227              		.code	16
 228              		.thumb_func
ARM GAS  /tmp/ccpevmba.s 			page 9


 229              		.fpu softvfp
 231              	HAL_TIMEx_HallSensor_DeInit:
 232              	.LFB38:
 231:cube/Drivers/STM32F0xx_HAL_Driver/Src/stm32f0xx_hal_tim_ex.c **** 
 232:cube/Drivers/STM32F0xx_HAL_Driver/Src/stm32f0xx_hal_tim_ex.c **** /**
 233:cube/Drivers/STM32F0xx_HAL_Driver/Src/stm32f0xx_hal_tim_ex.c ****   * @brief  DeInitializes the TIM Hall Sensor interface 
 234:cube/Drivers/STM32F0xx_HAL_Driver/Src/stm32f0xx_hal_tim_ex.c ****   * @param  htim TIM Hall Sensor handle
 235:cube/Drivers/STM32F0xx_HAL_Driver/Src/stm32f0xx_hal_tim_ex.c ****   * @retval HAL status
 236:cube/Drivers/STM32F0xx_HAL_Driver/Src/stm32f0xx_hal_tim_ex.c ****   */
 237:cube/Drivers/STM32F0xx_HAL_Driver/Src/stm32f0xx_hal_tim_ex.c **** HAL_StatusTypeDef HAL_TIMEx_HallSensor_DeInit(TIM_HandleTypeDef *htim)
 238:cube/Drivers/STM32F0xx_HAL_Driver/Src/stm32f0xx_hal_tim_ex.c **** {
 233              		.loc 1 238 0
 234              		.cfi_startproc
 235              		@ args = 0, pretend = 0, frame = 8
 236              		@ frame_needed = 1, uses_anonymous_args = 0
 237 0000 80B5     		push	{r7, lr}
 238              		.cfi_def_cfa_offset 8
 239              		.cfi_offset 7, -8
 240              		.cfi_offset 14, -4
 241 0002 82B0     		sub	sp, sp, #8
 242              		.cfi_def_cfa_offset 16
 243 0004 00AF     		add	r7, sp, #0
 244              		.cfi_def_cfa_register 7
 245 0006 7860     		str	r0, [r7, #4]
 239:cube/Drivers/STM32F0xx_HAL_Driver/Src/stm32f0xx_hal_tim_ex.c ****   /* Check the parameters */
 240:cube/Drivers/STM32F0xx_HAL_Driver/Src/stm32f0xx_hal_tim_ex.c ****   assert_param(IS_TIM_INSTANCE(htim->Instance));
 241:cube/Drivers/STM32F0xx_HAL_Driver/Src/stm32f0xx_hal_tim_ex.c **** 
 242:cube/Drivers/STM32F0xx_HAL_Driver/Src/stm32f0xx_hal_tim_ex.c ****   htim->State = HAL_TIM_STATE_BUSY;
 246              		.loc 1 242 0
 247 0008 7B68     		ldr	r3, [r7, #4]
 248 000a 3D22     		movs	r2, #61
 249 000c 0221     		movs	r1, #2
 250 000e 9954     		strb	r1, [r3, r2]
 243:cube/Drivers/STM32F0xx_HAL_Driver/Src/stm32f0xx_hal_tim_ex.c **** 
 244:cube/Drivers/STM32F0xx_HAL_Driver/Src/stm32f0xx_hal_tim_ex.c ****   /* Disable the TIM Peripheral Clock */
 245:cube/Drivers/STM32F0xx_HAL_Driver/Src/stm32f0xx_hal_tim_ex.c ****   __HAL_TIM_DISABLE(htim);
 251              		.loc 1 245 0
 252 0010 7B68     		ldr	r3, [r7, #4]
 253 0012 1B68     		ldr	r3, [r3]
 254 0014 1B6A     		ldr	r3, [r3, #32]
 255 0016 114A     		ldr	r2, .L9
 256 0018 1340     		ands	r3, r2
 257 001a 0DD1     		bne	.L7
 258              		.loc 1 245 0 is_stmt 0 discriminator 1
 259 001c 7B68     		ldr	r3, [r7, #4]
 260 001e 1B68     		ldr	r3, [r3]
 261 0020 1B6A     		ldr	r3, [r3, #32]
 262 0022 0F4A     		ldr	r2, .L9+4
 263 0024 1340     		ands	r3, r2
 264 0026 07D1     		bne	.L7
 265              		.loc 1 245 0 discriminator 2
 266 0028 7B68     		ldr	r3, [r7, #4]
 267 002a 1B68     		ldr	r3, [r3]
 268 002c 1A68     		ldr	r2, [r3]
 269 002e 7B68     		ldr	r3, [r7, #4]
 270 0030 1B68     		ldr	r3, [r3]
 271 0032 0121     		movs	r1, #1
ARM GAS  /tmp/ccpevmba.s 			page 10


 272 0034 8A43     		bics	r2, r1
 273 0036 1A60     		str	r2, [r3]
 274              	.L7:
 246:cube/Drivers/STM32F0xx_HAL_Driver/Src/stm32f0xx_hal_tim_ex.c **** 
 247:cube/Drivers/STM32F0xx_HAL_Driver/Src/stm32f0xx_hal_tim_ex.c ****   /* DeInit the low level hardware: GPIO, CLOCK, NVIC */
 248:cube/Drivers/STM32F0xx_HAL_Driver/Src/stm32f0xx_hal_tim_ex.c ****   HAL_TIMEx_HallSensor_MspDeInit(htim);
 275              		.loc 1 248 0 is_stmt 1
 276 0038 7B68     		ldr	r3, [r7, #4]
 277 003a 1800     		movs	r0, r3
 278 003c FFF7FEFF 		bl	HAL_TIMEx_HallSensor_MspDeInit
 249:cube/Drivers/STM32F0xx_HAL_Driver/Src/stm32f0xx_hal_tim_ex.c **** 
 250:cube/Drivers/STM32F0xx_HAL_Driver/Src/stm32f0xx_hal_tim_ex.c ****   /* Change TIM state */
 251:cube/Drivers/STM32F0xx_HAL_Driver/Src/stm32f0xx_hal_tim_ex.c ****   htim->State = HAL_TIM_STATE_RESET;
 279              		.loc 1 251 0
 280 0040 7B68     		ldr	r3, [r7, #4]
 281 0042 3D22     		movs	r2, #61
 282 0044 0021     		movs	r1, #0
 283 0046 9954     		strb	r1, [r3, r2]
 252:cube/Drivers/STM32F0xx_HAL_Driver/Src/stm32f0xx_hal_tim_ex.c **** 
 253:cube/Drivers/STM32F0xx_HAL_Driver/Src/stm32f0xx_hal_tim_ex.c ****   /* Release Lock */
 254:cube/Drivers/STM32F0xx_HAL_Driver/Src/stm32f0xx_hal_tim_ex.c ****   __HAL_UNLOCK(htim);
 284              		.loc 1 254 0
 285 0048 7B68     		ldr	r3, [r7, #4]
 286 004a 3C22     		movs	r2, #60
 287 004c 0021     		movs	r1, #0
 288 004e 9954     		strb	r1, [r3, r2]
 255:cube/Drivers/STM32F0xx_HAL_Driver/Src/stm32f0xx_hal_tim_ex.c **** 
 256:cube/Drivers/STM32F0xx_HAL_Driver/Src/stm32f0xx_hal_tim_ex.c ****   return HAL_OK;
 289              		.loc 1 256 0
 290 0050 0023     		movs	r3, #0
 257:cube/Drivers/STM32F0xx_HAL_Driver/Src/stm32f0xx_hal_tim_ex.c **** }
 291              		.loc 1 257 0
 292 0052 1800     		movs	r0, r3
 293 0054 BD46     		mov	sp, r7
 294 0056 02B0     		add	sp, sp, #8
 295              		@ sp needed
 296 0058 80BD     		pop	{r7, pc}
 297              	.L10:
 298 005a C046     		.align	2
 299              	.L9:
 300 005c 11110000 		.word	4369
 301 0060 44040000 		.word	1092
 302              		.cfi_endproc
 303              	.LFE38:
 305              		.section	.text.HAL_TIMEx_HallSensor_MspInit,"ax",%progbits
 306              		.align	1
 307              		.weak	HAL_TIMEx_HallSensor_MspInit
 308              		.syntax unified
 309              		.code	16
 310              		.thumb_func
 311              		.fpu softvfp
 313              	HAL_TIMEx_HallSensor_MspInit:
 314              	.LFB39:
 258:cube/Drivers/STM32F0xx_HAL_Driver/Src/stm32f0xx_hal_tim_ex.c **** 
 259:cube/Drivers/STM32F0xx_HAL_Driver/Src/stm32f0xx_hal_tim_ex.c **** /**
 260:cube/Drivers/STM32F0xx_HAL_Driver/Src/stm32f0xx_hal_tim_ex.c ****   * @brief  Initializes the TIM Hall Sensor MSP.
 261:cube/Drivers/STM32F0xx_HAL_Driver/Src/stm32f0xx_hal_tim_ex.c ****   * @param  htim TIM handle
ARM GAS  /tmp/ccpevmba.s 			page 11


 262:cube/Drivers/STM32F0xx_HAL_Driver/Src/stm32f0xx_hal_tim_ex.c ****   * @retval None
 263:cube/Drivers/STM32F0xx_HAL_Driver/Src/stm32f0xx_hal_tim_ex.c ****   */
 264:cube/Drivers/STM32F0xx_HAL_Driver/Src/stm32f0xx_hal_tim_ex.c **** __weak void HAL_TIMEx_HallSensor_MspInit(TIM_HandleTypeDef *htim)
 265:cube/Drivers/STM32F0xx_HAL_Driver/Src/stm32f0xx_hal_tim_ex.c **** {
 315              		.loc 1 265 0
 316              		.cfi_startproc
 317              		@ args = 0, pretend = 0, frame = 8
 318              		@ frame_needed = 1, uses_anonymous_args = 0
 319 0000 80B5     		push	{r7, lr}
 320              		.cfi_def_cfa_offset 8
 321              		.cfi_offset 7, -8
 322              		.cfi_offset 14, -4
 323 0002 82B0     		sub	sp, sp, #8
 324              		.cfi_def_cfa_offset 16
 325 0004 00AF     		add	r7, sp, #0
 326              		.cfi_def_cfa_register 7
 327 0006 7860     		str	r0, [r7, #4]
 266:cube/Drivers/STM32F0xx_HAL_Driver/Src/stm32f0xx_hal_tim_ex.c ****   /* Prevent unused argument(s) compilation warning */
 267:cube/Drivers/STM32F0xx_HAL_Driver/Src/stm32f0xx_hal_tim_ex.c ****   UNUSED(htim);
 268:cube/Drivers/STM32F0xx_HAL_Driver/Src/stm32f0xx_hal_tim_ex.c **** 
 269:cube/Drivers/STM32F0xx_HAL_Driver/Src/stm32f0xx_hal_tim_ex.c ****   /* NOTE : This function Should not be modified, when the callback is needed,
 270:cube/Drivers/STM32F0xx_HAL_Driver/Src/stm32f0xx_hal_tim_ex.c ****             the HAL_TIMEx_HallSensor_MspInit could be implemented in the user file
 271:cube/Drivers/STM32F0xx_HAL_Driver/Src/stm32f0xx_hal_tim_ex.c ****    */
 272:cube/Drivers/STM32F0xx_HAL_Driver/Src/stm32f0xx_hal_tim_ex.c **** }
 328              		.loc 1 272 0
 329 0008 C046     		nop
 330 000a BD46     		mov	sp, r7
 331 000c 02B0     		add	sp, sp, #8
 332              		@ sp needed
 333 000e 80BD     		pop	{r7, pc}
 334              		.cfi_endproc
 335              	.LFE39:
 337              		.section	.text.HAL_TIMEx_HallSensor_MspDeInit,"ax",%progbits
 338              		.align	1
 339              		.weak	HAL_TIMEx_HallSensor_MspDeInit
 340              		.syntax unified
 341              		.code	16
 342              		.thumb_func
 343              		.fpu softvfp
 345              	HAL_TIMEx_HallSensor_MspDeInit:
 346              	.LFB40:
 273:cube/Drivers/STM32F0xx_HAL_Driver/Src/stm32f0xx_hal_tim_ex.c **** 
 274:cube/Drivers/STM32F0xx_HAL_Driver/Src/stm32f0xx_hal_tim_ex.c **** /**
 275:cube/Drivers/STM32F0xx_HAL_Driver/Src/stm32f0xx_hal_tim_ex.c ****   * @brief  DeInitializes TIM Hall Sensor MSP.
 276:cube/Drivers/STM32F0xx_HAL_Driver/Src/stm32f0xx_hal_tim_ex.c ****   * @param  htim TIM handle
 277:cube/Drivers/STM32F0xx_HAL_Driver/Src/stm32f0xx_hal_tim_ex.c ****   * @retval None
 278:cube/Drivers/STM32F0xx_HAL_Driver/Src/stm32f0xx_hal_tim_ex.c ****   */
 279:cube/Drivers/STM32F0xx_HAL_Driver/Src/stm32f0xx_hal_tim_ex.c **** __weak void HAL_TIMEx_HallSensor_MspDeInit(TIM_HandleTypeDef *htim)
 280:cube/Drivers/STM32F0xx_HAL_Driver/Src/stm32f0xx_hal_tim_ex.c **** {
 347              		.loc 1 280 0
 348              		.cfi_startproc
 349              		@ args = 0, pretend = 0, frame = 8
 350              		@ frame_needed = 1, uses_anonymous_args = 0
 351 0000 80B5     		push	{r7, lr}
 352              		.cfi_def_cfa_offset 8
 353              		.cfi_offset 7, -8
 354              		.cfi_offset 14, -4
ARM GAS  /tmp/ccpevmba.s 			page 12


 355 0002 82B0     		sub	sp, sp, #8
 356              		.cfi_def_cfa_offset 16
 357 0004 00AF     		add	r7, sp, #0
 358              		.cfi_def_cfa_register 7
 359 0006 7860     		str	r0, [r7, #4]
 281:cube/Drivers/STM32F0xx_HAL_Driver/Src/stm32f0xx_hal_tim_ex.c ****   /* Prevent unused argument(s) compilation warning */
 282:cube/Drivers/STM32F0xx_HAL_Driver/Src/stm32f0xx_hal_tim_ex.c ****   UNUSED(htim);
 283:cube/Drivers/STM32F0xx_HAL_Driver/Src/stm32f0xx_hal_tim_ex.c **** 
 284:cube/Drivers/STM32F0xx_HAL_Driver/Src/stm32f0xx_hal_tim_ex.c ****   /* NOTE : This function Should not be modified, when the callback is needed,
 285:cube/Drivers/STM32F0xx_HAL_Driver/Src/stm32f0xx_hal_tim_ex.c ****             the HAL_TIMEx_HallSensor_MspDeInit could be implemented in the user file
 286:cube/Drivers/STM32F0xx_HAL_Driver/Src/stm32f0xx_hal_tim_ex.c ****    */
 287:cube/Drivers/STM32F0xx_HAL_Driver/Src/stm32f0xx_hal_tim_ex.c **** }
 360              		.loc 1 287 0
 361 0008 C046     		nop
 362 000a BD46     		mov	sp, r7
 363 000c 02B0     		add	sp, sp, #8
 364              		@ sp needed
 365 000e 80BD     		pop	{r7, pc}
 366              		.cfi_endproc
 367              	.LFE40:
 369              		.section	.text.HAL_TIMEx_HallSensor_Start,"ax",%progbits
 370              		.align	1
 371              		.global	HAL_TIMEx_HallSensor_Start
 372              		.syntax unified
 373              		.code	16
 374              		.thumb_func
 375              		.fpu softvfp
 377              	HAL_TIMEx_HallSensor_Start:
 378              	.LFB41:
 288:cube/Drivers/STM32F0xx_HAL_Driver/Src/stm32f0xx_hal_tim_ex.c **** 
 289:cube/Drivers/STM32F0xx_HAL_Driver/Src/stm32f0xx_hal_tim_ex.c **** /**
 290:cube/Drivers/STM32F0xx_HAL_Driver/Src/stm32f0xx_hal_tim_ex.c ****   * @brief  Starts the TIM Hall Sensor Interface.
 291:cube/Drivers/STM32F0xx_HAL_Driver/Src/stm32f0xx_hal_tim_ex.c ****   * @param  htim TIM Hall Sensor handle
 292:cube/Drivers/STM32F0xx_HAL_Driver/Src/stm32f0xx_hal_tim_ex.c ****   * @retval HAL status
 293:cube/Drivers/STM32F0xx_HAL_Driver/Src/stm32f0xx_hal_tim_ex.c ****   */
 294:cube/Drivers/STM32F0xx_HAL_Driver/Src/stm32f0xx_hal_tim_ex.c **** HAL_StatusTypeDef HAL_TIMEx_HallSensor_Start(TIM_HandleTypeDef *htim)
 295:cube/Drivers/STM32F0xx_HAL_Driver/Src/stm32f0xx_hal_tim_ex.c **** {
 379              		.loc 1 295 0
 380              		.cfi_startproc
 381              		@ args = 0, pretend = 0, frame = 8
 382              		@ frame_needed = 1, uses_anonymous_args = 0
 383 0000 80B5     		push	{r7, lr}
 384              		.cfi_def_cfa_offset 8
 385              		.cfi_offset 7, -8
 386              		.cfi_offset 14, -4
 387 0002 82B0     		sub	sp, sp, #8
 388              		.cfi_def_cfa_offset 16
 389 0004 00AF     		add	r7, sp, #0
 390              		.cfi_def_cfa_register 7
 391 0006 7860     		str	r0, [r7, #4]
 296:cube/Drivers/STM32F0xx_HAL_Driver/Src/stm32f0xx_hal_tim_ex.c ****   /* Check the parameters */
 297:cube/Drivers/STM32F0xx_HAL_Driver/Src/stm32f0xx_hal_tim_ex.c ****   assert_param(IS_TIM_HALL_INTERFACE_INSTANCE(htim->Instance));
 298:cube/Drivers/STM32F0xx_HAL_Driver/Src/stm32f0xx_hal_tim_ex.c **** 
 299:cube/Drivers/STM32F0xx_HAL_Driver/Src/stm32f0xx_hal_tim_ex.c ****   /* Enable the Input Capture channel 1
 300:cube/Drivers/STM32F0xx_HAL_Driver/Src/stm32f0xx_hal_tim_ex.c ****     (in the Hall Sensor Interface the three possible channels that can be used are TIM_CHANNEL_1, T
 301:cube/Drivers/STM32F0xx_HAL_Driver/Src/stm32f0xx_hal_tim_ex.c ****   TIM_CCxChannelCmd(htim->Instance, TIM_CHANNEL_1, TIM_CCx_ENABLE);
 392              		.loc 1 301 0
ARM GAS  /tmp/ccpevmba.s 			page 13


 393 0008 7B68     		ldr	r3, [r7, #4]
 394 000a 1B68     		ldr	r3, [r3]
 395 000c 0122     		movs	r2, #1
 396 000e 0021     		movs	r1, #0
 397 0010 1800     		movs	r0, r3
 398 0012 FFF7FEFF 		bl	TIM_CCxChannelCmd
 302:cube/Drivers/STM32F0xx_HAL_Driver/Src/stm32f0xx_hal_tim_ex.c **** 
 303:cube/Drivers/STM32F0xx_HAL_Driver/Src/stm32f0xx_hal_tim_ex.c ****   /* Enable the Peripheral */
 304:cube/Drivers/STM32F0xx_HAL_Driver/Src/stm32f0xx_hal_tim_ex.c ****   __HAL_TIM_ENABLE(htim);
 399              		.loc 1 304 0
 400 0016 7B68     		ldr	r3, [r7, #4]
 401 0018 1B68     		ldr	r3, [r3]
 402 001a 1A68     		ldr	r2, [r3]
 403 001c 7B68     		ldr	r3, [r7, #4]
 404 001e 1B68     		ldr	r3, [r3]
 405 0020 0121     		movs	r1, #1
 406 0022 0A43     		orrs	r2, r1
 407 0024 1A60     		str	r2, [r3]
 305:cube/Drivers/STM32F0xx_HAL_Driver/Src/stm32f0xx_hal_tim_ex.c **** 
 306:cube/Drivers/STM32F0xx_HAL_Driver/Src/stm32f0xx_hal_tim_ex.c ****   /* Return function status */
 307:cube/Drivers/STM32F0xx_HAL_Driver/Src/stm32f0xx_hal_tim_ex.c ****   return HAL_OK;
 408              		.loc 1 307 0
 409 0026 0023     		movs	r3, #0
 308:cube/Drivers/STM32F0xx_HAL_Driver/Src/stm32f0xx_hal_tim_ex.c **** }
 410              		.loc 1 308 0
 411 0028 1800     		movs	r0, r3
 412 002a BD46     		mov	sp, r7
 413 002c 02B0     		add	sp, sp, #8
 414              		@ sp needed
 415 002e 80BD     		pop	{r7, pc}
 416              		.cfi_endproc
 417              	.LFE41:
 419              		.section	.text.HAL_TIMEx_HallSensor_Stop,"ax",%progbits
 420              		.align	1
 421              		.global	HAL_TIMEx_HallSensor_Stop
 422              		.syntax unified
 423              		.code	16
 424              		.thumb_func
 425              		.fpu softvfp
 427              	HAL_TIMEx_HallSensor_Stop:
 428              	.LFB42:
 309:cube/Drivers/STM32F0xx_HAL_Driver/Src/stm32f0xx_hal_tim_ex.c **** 
 310:cube/Drivers/STM32F0xx_HAL_Driver/Src/stm32f0xx_hal_tim_ex.c **** /**
 311:cube/Drivers/STM32F0xx_HAL_Driver/Src/stm32f0xx_hal_tim_ex.c ****   * @brief  Stops the TIM Hall sensor Interface.
 312:cube/Drivers/STM32F0xx_HAL_Driver/Src/stm32f0xx_hal_tim_ex.c ****   * @param  htim TIM Hall Sensor handle
 313:cube/Drivers/STM32F0xx_HAL_Driver/Src/stm32f0xx_hal_tim_ex.c ****   * @retval HAL status
 314:cube/Drivers/STM32F0xx_HAL_Driver/Src/stm32f0xx_hal_tim_ex.c ****   */
 315:cube/Drivers/STM32F0xx_HAL_Driver/Src/stm32f0xx_hal_tim_ex.c **** HAL_StatusTypeDef HAL_TIMEx_HallSensor_Stop(TIM_HandleTypeDef *htim)
 316:cube/Drivers/STM32F0xx_HAL_Driver/Src/stm32f0xx_hal_tim_ex.c **** {
 429              		.loc 1 316 0
 430              		.cfi_startproc
 431              		@ args = 0, pretend = 0, frame = 8
 432              		@ frame_needed = 1, uses_anonymous_args = 0
 433 0000 80B5     		push	{r7, lr}
 434              		.cfi_def_cfa_offset 8
 435              		.cfi_offset 7, -8
 436              		.cfi_offset 14, -4
ARM GAS  /tmp/ccpevmba.s 			page 14


 437 0002 82B0     		sub	sp, sp, #8
 438              		.cfi_def_cfa_offset 16
 439 0004 00AF     		add	r7, sp, #0
 440              		.cfi_def_cfa_register 7
 441 0006 7860     		str	r0, [r7, #4]
 317:cube/Drivers/STM32F0xx_HAL_Driver/Src/stm32f0xx_hal_tim_ex.c ****   /* Check the parameters */
 318:cube/Drivers/STM32F0xx_HAL_Driver/Src/stm32f0xx_hal_tim_ex.c ****   assert_param(IS_TIM_HALL_INTERFACE_INSTANCE(htim->Instance));
 319:cube/Drivers/STM32F0xx_HAL_Driver/Src/stm32f0xx_hal_tim_ex.c **** 
 320:cube/Drivers/STM32F0xx_HAL_Driver/Src/stm32f0xx_hal_tim_ex.c ****   /* Disable the Input Capture channels 1, 2 and 3
 321:cube/Drivers/STM32F0xx_HAL_Driver/Src/stm32f0xx_hal_tim_ex.c ****     (in the Hall Sensor Interface the three possible channels that can be used are TIM_CHANNEL_1, T
 322:cube/Drivers/STM32F0xx_HAL_Driver/Src/stm32f0xx_hal_tim_ex.c ****   TIM_CCxChannelCmd(htim->Instance, TIM_CHANNEL_1, TIM_CCx_DISABLE);
 442              		.loc 1 322 0
 443 0008 7B68     		ldr	r3, [r7, #4]
 444 000a 1B68     		ldr	r3, [r3]
 445 000c 0022     		movs	r2, #0
 446 000e 0021     		movs	r1, #0
 447 0010 1800     		movs	r0, r3
 448 0012 FFF7FEFF 		bl	TIM_CCxChannelCmd
 323:cube/Drivers/STM32F0xx_HAL_Driver/Src/stm32f0xx_hal_tim_ex.c **** 
 324:cube/Drivers/STM32F0xx_HAL_Driver/Src/stm32f0xx_hal_tim_ex.c ****   /* Disable the Peripheral */
 325:cube/Drivers/STM32F0xx_HAL_Driver/Src/stm32f0xx_hal_tim_ex.c ****   __HAL_TIM_DISABLE(htim);
 449              		.loc 1 325 0
 450 0016 7B68     		ldr	r3, [r7, #4]
 451 0018 1B68     		ldr	r3, [r3]
 452 001a 1B6A     		ldr	r3, [r3, #32]
 453 001c 0A4A     		ldr	r2, .L18
 454 001e 1340     		ands	r3, r2
 455 0020 0DD1     		bne	.L16
 456              		.loc 1 325 0 is_stmt 0 discriminator 1
 457 0022 7B68     		ldr	r3, [r7, #4]
 458 0024 1B68     		ldr	r3, [r3]
 459 0026 1B6A     		ldr	r3, [r3, #32]
 460 0028 084A     		ldr	r2, .L18+4
 461 002a 1340     		ands	r3, r2
 462 002c 07D1     		bne	.L16
 463              		.loc 1 325 0 discriminator 2
 464 002e 7B68     		ldr	r3, [r7, #4]
 465 0030 1B68     		ldr	r3, [r3]
 466 0032 1A68     		ldr	r2, [r3]
 467 0034 7B68     		ldr	r3, [r7, #4]
 468 0036 1B68     		ldr	r3, [r3]
 469 0038 0121     		movs	r1, #1
 470 003a 8A43     		bics	r2, r1
 471 003c 1A60     		str	r2, [r3]
 472              	.L16:
 326:cube/Drivers/STM32F0xx_HAL_Driver/Src/stm32f0xx_hal_tim_ex.c **** 
 327:cube/Drivers/STM32F0xx_HAL_Driver/Src/stm32f0xx_hal_tim_ex.c ****   /* Return function status */
 328:cube/Drivers/STM32F0xx_HAL_Driver/Src/stm32f0xx_hal_tim_ex.c ****   return HAL_OK;
 473              		.loc 1 328 0 is_stmt 1
 474 003e 0023     		movs	r3, #0
 329:cube/Drivers/STM32F0xx_HAL_Driver/Src/stm32f0xx_hal_tim_ex.c **** }
 475              		.loc 1 329 0
 476 0040 1800     		movs	r0, r3
 477 0042 BD46     		mov	sp, r7
 478 0044 02B0     		add	sp, sp, #8
 479              		@ sp needed
 480 0046 80BD     		pop	{r7, pc}
ARM GAS  /tmp/ccpevmba.s 			page 15


 481              	.L19:
 482              		.align	2
 483              	.L18:
 484 0048 11110000 		.word	4369
 485 004c 44040000 		.word	1092
 486              		.cfi_endproc
 487              	.LFE42:
 489              		.section	.text.HAL_TIMEx_HallSensor_Start_IT,"ax",%progbits
 490              		.align	1
 491              		.global	HAL_TIMEx_HallSensor_Start_IT
 492              		.syntax unified
 493              		.code	16
 494              		.thumb_func
 495              		.fpu softvfp
 497              	HAL_TIMEx_HallSensor_Start_IT:
 498              	.LFB43:
 330:cube/Drivers/STM32F0xx_HAL_Driver/Src/stm32f0xx_hal_tim_ex.c **** 
 331:cube/Drivers/STM32F0xx_HAL_Driver/Src/stm32f0xx_hal_tim_ex.c **** /**
 332:cube/Drivers/STM32F0xx_HAL_Driver/Src/stm32f0xx_hal_tim_ex.c ****   * @brief  Starts the TIM Hall Sensor Interface in interrupt mode.
 333:cube/Drivers/STM32F0xx_HAL_Driver/Src/stm32f0xx_hal_tim_ex.c ****   * @param  htim TIM Hall Sensor handle
 334:cube/Drivers/STM32F0xx_HAL_Driver/Src/stm32f0xx_hal_tim_ex.c ****   * @retval HAL status
 335:cube/Drivers/STM32F0xx_HAL_Driver/Src/stm32f0xx_hal_tim_ex.c ****   */
 336:cube/Drivers/STM32F0xx_HAL_Driver/Src/stm32f0xx_hal_tim_ex.c **** HAL_StatusTypeDef HAL_TIMEx_HallSensor_Start_IT(TIM_HandleTypeDef *htim)
 337:cube/Drivers/STM32F0xx_HAL_Driver/Src/stm32f0xx_hal_tim_ex.c **** {
 499              		.loc 1 337 0
 500              		.cfi_startproc
 501              		@ args = 0, pretend = 0, frame = 8
 502              		@ frame_needed = 1, uses_anonymous_args = 0
 503 0000 80B5     		push	{r7, lr}
 504              		.cfi_def_cfa_offset 8
 505              		.cfi_offset 7, -8
 506              		.cfi_offset 14, -4
 507 0002 82B0     		sub	sp, sp, #8
 508              		.cfi_def_cfa_offset 16
 509 0004 00AF     		add	r7, sp, #0
 510              		.cfi_def_cfa_register 7
 511 0006 7860     		str	r0, [r7, #4]
 338:cube/Drivers/STM32F0xx_HAL_Driver/Src/stm32f0xx_hal_tim_ex.c ****   /* Check the parameters */
 339:cube/Drivers/STM32F0xx_HAL_Driver/Src/stm32f0xx_hal_tim_ex.c ****   assert_param(IS_TIM_HALL_INTERFACE_INSTANCE(htim->Instance));
 340:cube/Drivers/STM32F0xx_HAL_Driver/Src/stm32f0xx_hal_tim_ex.c **** 
 341:cube/Drivers/STM32F0xx_HAL_Driver/Src/stm32f0xx_hal_tim_ex.c ****   /* Enable the capture compare Interrupts 1 event */
 342:cube/Drivers/STM32F0xx_HAL_Driver/Src/stm32f0xx_hal_tim_ex.c ****   __HAL_TIM_ENABLE_IT(htim, TIM_IT_CC1);
 512              		.loc 1 342 0
 513 0008 7B68     		ldr	r3, [r7, #4]
 514 000a 1B68     		ldr	r3, [r3]
 515 000c DA68     		ldr	r2, [r3, #12]
 516 000e 7B68     		ldr	r3, [r7, #4]
 517 0010 1B68     		ldr	r3, [r3]
 518 0012 0221     		movs	r1, #2
 519 0014 0A43     		orrs	r2, r1
 520 0016 DA60     		str	r2, [r3, #12]
 343:cube/Drivers/STM32F0xx_HAL_Driver/Src/stm32f0xx_hal_tim_ex.c **** 
 344:cube/Drivers/STM32F0xx_HAL_Driver/Src/stm32f0xx_hal_tim_ex.c ****   /* Enable the Input Capture channel 1
 345:cube/Drivers/STM32F0xx_HAL_Driver/Src/stm32f0xx_hal_tim_ex.c ****     (in the Hall Sensor Interface the three possible channels that can be used are TIM_CHANNEL_1, T
 346:cube/Drivers/STM32F0xx_HAL_Driver/Src/stm32f0xx_hal_tim_ex.c ****   TIM_CCxChannelCmd(htim->Instance, TIM_CHANNEL_1, TIM_CCx_ENABLE);
 521              		.loc 1 346 0
 522 0018 7B68     		ldr	r3, [r7, #4]
ARM GAS  /tmp/ccpevmba.s 			page 16


 523 001a 1B68     		ldr	r3, [r3]
 524 001c 0122     		movs	r2, #1
 525 001e 0021     		movs	r1, #0
 526 0020 1800     		movs	r0, r3
 527 0022 FFF7FEFF 		bl	TIM_CCxChannelCmd
 347:cube/Drivers/STM32F0xx_HAL_Driver/Src/stm32f0xx_hal_tim_ex.c **** 
 348:cube/Drivers/STM32F0xx_HAL_Driver/Src/stm32f0xx_hal_tim_ex.c ****   /* Enable the Peripheral */
 349:cube/Drivers/STM32F0xx_HAL_Driver/Src/stm32f0xx_hal_tim_ex.c ****   __HAL_TIM_ENABLE(htim);
 528              		.loc 1 349 0
 529 0026 7B68     		ldr	r3, [r7, #4]
 530 0028 1B68     		ldr	r3, [r3]
 531 002a 1A68     		ldr	r2, [r3]
 532 002c 7B68     		ldr	r3, [r7, #4]
 533 002e 1B68     		ldr	r3, [r3]
 534 0030 0121     		movs	r1, #1
 535 0032 0A43     		orrs	r2, r1
 536 0034 1A60     		str	r2, [r3]
 350:cube/Drivers/STM32F0xx_HAL_Driver/Src/stm32f0xx_hal_tim_ex.c **** 
 351:cube/Drivers/STM32F0xx_HAL_Driver/Src/stm32f0xx_hal_tim_ex.c ****   /* Return function status */
 352:cube/Drivers/STM32F0xx_HAL_Driver/Src/stm32f0xx_hal_tim_ex.c ****   return HAL_OK;
 537              		.loc 1 352 0
 538 0036 0023     		movs	r3, #0
 353:cube/Drivers/STM32F0xx_HAL_Driver/Src/stm32f0xx_hal_tim_ex.c **** }
 539              		.loc 1 353 0
 540 0038 1800     		movs	r0, r3
 541 003a BD46     		mov	sp, r7
 542 003c 02B0     		add	sp, sp, #8
 543              		@ sp needed
 544 003e 80BD     		pop	{r7, pc}
 545              		.cfi_endproc
 546              	.LFE43:
 548              		.section	.text.HAL_TIMEx_HallSensor_Stop_IT,"ax",%progbits
 549              		.align	1
 550              		.global	HAL_TIMEx_HallSensor_Stop_IT
 551              		.syntax unified
 552              		.code	16
 553              		.thumb_func
 554              		.fpu softvfp
 556              	HAL_TIMEx_HallSensor_Stop_IT:
 557              	.LFB44:
 354:cube/Drivers/STM32F0xx_HAL_Driver/Src/stm32f0xx_hal_tim_ex.c **** 
 355:cube/Drivers/STM32F0xx_HAL_Driver/Src/stm32f0xx_hal_tim_ex.c **** /**
 356:cube/Drivers/STM32F0xx_HAL_Driver/Src/stm32f0xx_hal_tim_ex.c ****   * @brief  Stops the TIM Hall Sensor Interface in interrupt mode.
 357:cube/Drivers/STM32F0xx_HAL_Driver/Src/stm32f0xx_hal_tim_ex.c ****   * @param  htim TIM handle
 358:cube/Drivers/STM32F0xx_HAL_Driver/Src/stm32f0xx_hal_tim_ex.c ****   * @retval HAL status
 359:cube/Drivers/STM32F0xx_HAL_Driver/Src/stm32f0xx_hal_tim_ex.c ****   */
 360:cube/Drivers/STM32F0xx_HAL_Driver/Src/stm32f0xx_hal_tim_ex.c **** HAL_StatusTypeDef HAL_TIMEx_HallSensor_Stop_IT(TIM_HandleTypeDef *htim)
 361:cube/Drivers/STM32F0xx_HAL_Driver/Src/stm32f0xx_hal_tim_ex.c **** {
 558              		.loc 1 361 0
 559              		.cfi_startproc
 560              		@ args = 0, pretend = 0, frame = 8
 561              		@ frame_needed = 1, uses_anonymous_args = 0
 562 0000 80B5     		push	{r7, lr}
 563              		.cfi_def_cfa_offset 8
 564              		.cfi_offset 7, -8
 565              		.cfi_offset 14, -4
 566 0002 82B0     		sub	sp, sp, #8
ARM GAS  /tmp/ccpevmba.s 			page 17


 567              		.cfi_def_cfa_offset 16
 568 0004 00AF     		add	r7, sp, #0
 569              		.cfi_def_cfa_register 7
 570 0006 7860     		str	r0, [r7, #4]
 362:cube/Drivers/STM32F0xx_HAL_Driver/Src/stm32f0xx_hal_tim_ex.c ****   /* Check the parameters */
 363:cube/Drivers/STM32F0xx_HAL_Driver/Src/stm32f0xx_hal_tim_ex.c ****   assert_param(IS_TIM_HALL_INTERFACE_INSTANCE(htim->Instance));
 364:cube/Drivers/STM32F0xx_HAL_Driver/Src/stm32f0xx_hal_tim_ex.c **** 
 365:cube/Drivers/STM32F0xx_HAL_Driver/Src/stm32f0xx_hal_tim_ex.c ****   /* Disable the Input Capture channel 1
 366:cube/Drivers/STM32F0xx_HAL_Driver/Src/stm32f0xx_hal_tim_ex.c ****     (in the Hall Sensor Interface the three possible channels that can be used are TIM_CHANNEL_1, T
 367:cube/Drivers/STM32F0xx_HAL_Driver/Src/stm32f0xx_hal_tim_ex.c ****   TIM_CCxChannelCmd(htim->Instance, TIM_CHANNEL_1, TIM_CCx_DISABLE);
 571              		.loc 1 367 0
 572 0008 7B68     		ldr	r3, [r7, #4]
 573 000a 1B68     		ldr	r3, [r3]
 574 000c 0022     		movs	r2, #0
 575 000e 0021     		movs	r1, #0
 576 0010 1800     		movs	r0, r3
 577 0012 FFF7FEFF 		bl	TIM_CCxChannelCmd
 368:cube/Drivers/STM32F0xx_HAL_Driver/Src/stm32f0xx_hal_tim_ex.c **** 
 369:cube/Drivers/STM32F0xx_HAL_Driver/Src/stm32f0xx_hal_tim_ex.c ****   /* Disable the capture compare Interrupts event */
 370:cube/Drivers/STM32F0xx_HAL_Driver/Src/stm32f0xx_hal_tim_ex.c ****   __HAL_TIM_DISABLE_IT(htim, TIM_IT_CC1);
 578              		.loc 1 370 0
 579 0016 7B68     		ldr	r3, [r7, #4]
 580 0018 1B68     		ldr	r3, [r3]
 581 001a DA68     		ldr	r2, [r3, #12]
 582 001c 7B68     		ldr	r3, [r7, #4]
 583 001e 1B68     		ldr	r3, [r3]
 584 0020 0221     		movs	r1, #2
 585 0022 8A43     		bics	r2, r1
 586 0024 DA60     		str	r2, [r3, #12]
 371:cube/Drivers/STM32F0xx_HAL_Driver/Src/stm32f0xx_hal_tim_ex.c **** 
 372:cube/Drivers/STM32F0xx_HAL_Driver/Src/stm32f0xx_hal_tim_ex.c ****   /* Disable the Peripheral */
 373:cube/Drivers/STM32F0xx_HAL_Driver/Src/stm32f0xx_hal_tim_ex.c ****   __HAL_TIM_DISABLE(htim);
 587              		.loc 1 373 0
 588 0026 7B68     		ldr	r3, [r7, #4]
 589 0028 1B68     		ldr	r3, [r3]
 590 002a 1B6A     		ldr	r3, [r3, #32]
 591 002c 0A4A     		ldr	r2, .L25
 592 002e 1340     		ands	r3, r2
 593 0030 0DD1     		bne	.L23
 594              		.loc 1 373 0 is_stmt 0 discriminator 1
 595 0032 7B68     		ldr	r3, [r7, #4]
 596 0034 1B68     		ldr	r3, [r3]
 597 0036 1B6A     		ldr	r3, [r3, #32]
 598 0038 084A     		ldr	r2, .L25+4
 599 003a 1340     		ands	r3, r2
 600 003c 07D1     		bne	.L23
 601              		.loc 1 373 0 discriminator 2
 602 003e 7B68     		ldr	r3, [r7, #4]
 603 0040 1B68     		ldr	r3, [r3]
 604 0042 1A68     		ldr	r2, [r3]
 605 0044 7B68     		ldr	r3, [r7, #4]
 606 0046 1B68     		ldr	r3, [r3]
 607 0048 0121     		movs	r1, #1
 608 004a 8A43     		bics	r2, r1
 609 004c 1A60     		str	r2, [r3]
 610              	.L23:
 374:cube/Drivers/STM32F0xx_HAL_Driver/Src/stm32f0xx_hal_tim_ex.c **** 
ARM GAS  /tmp/ccpevmba.s 			page 18


 375:cube/Drivers/STM32F0xx_HAL_Driver/Src/stm32f0xx_hal_tim_ex.c ****   /* Return function status */
 376:cube/Drivers/STM32F0xx_HAL_Driver/Src/stm32f0xx_hal_tim_ex.c ****   return HAL_OK;
 611              		.loc 1 376 0 is_stmt 1
 612 004e 0023     		movs	r3, #0
 377:cube/Drivers/STM32F0xx_HAL_Driver/Src/stm32f0xx_hal_tim_ex.c **** }
 613              		.loc 1 377 0
 614 0050 1800     		movs	r0, r3
 615 0052 BD46     		mov	sp, r7
 616 0054 02B0     		add	sp, sp, #8
 617              		@ sp needed
 618 0056 80BD     		pop	{r7, pc}
 619              	.L26:
 620              		.align	2
 621              	.L25:
 622 0058 11110000 		.word	4369
 623 005c 44040000 		.word	1092
 624              		.cfi_endproc
 625              	.LFE44:
 627              		.section	.text.HAL_TIMEx_HallSensor_Start_DMA,"ax",%progbits
 628              		.align	1
 629              		.global	HAL_TIMEx_HallSensor_Start_DMA
 630              		.syntax unified
 631              		.code	16
 632              		.thumb_func
 633              		.fpu softvfp
 635              	HAL_TIMEx_HallSensor_Start_DMA:
 636              	.LFB45:
 378:cube/Drivers/STM32F0xx_HAL_Driver/Src/stm32f0xx_hal_tim_ex.c **** 
 379:cube/Drivers/STM32F0xx_HAL_Driver/Src/stm32f0xx_hal_tim_ex.c **** /**
 380:cube/Drivers/STM32F0xx_HAL_Driver/Src/stm32f0xx_hal_tim_ex.c ****   * @brief  Starts the TIM Hall Sensor Interface in DMA mode.
 381:cube/Drivers/STM32F0xx_HAL_Driver/Src/stm32f0xx_hal_tim_ex.c ****   * @param  htim TIM Hall Sensor handle
 382:cube/Drivers/STM32F0xx_HAL_Driver/Src/stm32f0xx_hal_tim_ex.c ****   * @param  pData The destination Buffer address.
 383:cube/Drivers/STM32F0xx_HAL_Driver/Src/stm32f0xx_hal_tim_ex.c ****   * @param  Length The length of data to be transferred from TIM peripheral to memory.
 384:cube/Drivers/STM32F0xx_HAL_Driver/Src/stm32f0xx_hal_tim_ex.c ****   * @retval HAL status
 385:cube/Drivers/STM32F0xx_HAL_Driver/Src/stm32f0xx_hal_tim_ex.c ****   */
 386:cube/Drivers/STM32F0xx_HAL_Driver/Src/stm32f0xx_hal_tim_ex.c **** HAL_StatusTypeDef HAL_TIMEx_HallSensor_Start_DMA(TIM_HandleTypeDef *htim, uint32_t *pData, uint16_t
 387:cube/Drivers/STM32F0xx_HAL_Driver/Src/stm32f0xx_hal_tim_ex.c **** {
 637              		.loc 1 387 0
 638              		.cfi_startproc
 639              		@ args = 0, pretend = 0, frame = 16
 640              		@ frame_needed = 1, uses_anonymous_args = 0
 641 0000 80B5     		push	{r7, lr}
 642              		.cfi_def_cfa_offset 8
 643              		.cfi_offset 7, -8
 644              		.cfi_offset 14, -4
 645 0002 84B0     		sub	sp, sp, #16
 646              		.cfi_def_cfa_offset 24
 647 0004 00AF     		add	r7, sp, #0
 648              		.cfi_def_cfa_register 7
 649 0006 F860     		str	r0, [r7, #12]
 650 0008 B960     		str	r1, [r7, #8]
 651 000a BB1D     		adds	r3, r7, #6
 652 000c 1A80     		strh	r2, [r3]
 388:cube/Drivers/STM32F0xx_HAL_Driver/Src/stm32f0xx_hal_tim_ex.c ****   /* Check the parameters */
 389:cube/Drivers/STM32F0xx_HAL_Driver/Src/stm32f0xx_hal_tim_ex.c ****   assert_param(IS_TIM_HALL_INTERFACE_INSTANCE(htim->Instance));
 390:cube/Drivers/STM32F0xx_HAL_Driver/Src/stm32f0xx_hal_tim_ex.c **** 
 391:cube/Drivers/STM32F0xx_HAL_Driver/Src/stm32f0xx_hal_tim_ex.c ****    if((htim->State == HAL_TIM_STATE_BUSY))
ARM GAS  /tmp/ccpevmba.s 			page 19


 653              		.loc 1 391 0
 654 000e FB68     		ldr	r3, [r7, #12]
 655 0010 3D22     		movs	r2, #61
 656 0012 9B5C     		ldrb	r3, [r3, r2]
 657 0014 DBB2     		uxtb	r3, r3
 658 0016 022B     		cmp	r3, #2
 659 0018 01D1     		bne	.L28
 392:cube/Drivers/STM32F0xx_HAL_Driver/Src/stm32f0xx_hal_tim_ex.c ****   {
 393:cube/Drivers/STM32F0xx_HAL_Driver/Src/stm32f0xx_hal_tim_ex.c ****      return HAL_BUSY;
 660              		.loc 1 393 0
 661 001a 0223     		movs	r3, #2
 662 001c 3EE0     		b	.L29
 663              	.L28:
 394:cube/Drivers/STM32F0xx_HAL_Driver/Src/stm32f0xx_hal_tim_ex.c ****   }
 395:cube/Drivers/STM32F0xx_HAL_Driver/Src/stm32f0xx_hal_tim_ex.c ****   else if((htim->State == HAL_TIM_STATE_READY))
 664              		.loc 1 395 0
 665 001e FB68     		ldr	r3, [r7, #12]
 666 0020 3D22     		movs	r2, #61
 667 0022 9B5C     		ldrb	r3, [r3, r2]
 668 0024 DBB2     		uxtb	r3, r3
 669 0026 012B     		cmp	r3, #1
 670 0028 0CD1     		bne	.L30
 396:cube/Drivers/STM32F0xx_HAL_Driver/Src/stm32f0xx_hal_tim_ex.c ****   {
 397:cube/Drivers/STM32F0xx_HAL_Driver/Src/stm32f0xx_hal_tim_ex.c ****     if(((uint32_t)pData == 0U ) && (Length > 0U))
 671              		.loc 1 397 0
 672 002a BB68     		ldr	r3, [r7, #8]
 673 002c 002B     		cmp	r3, #0
 674 002e 05D1     		bne	.L31
 675              		.loc 1 397 0 is_stmt 0 discriminator 1
 676 0030 BB1D     		adds	r3, r7, #6
 677 0032 1B88     		ldrh	r3, [r3]
 678 0034 002B     		cmp	r3, #0
 679 0036 01D0     		beq	.L31
 398:cube/Drivers/STM32F0xx_HAL_Driver/Src/stm32f0xx_hal_tim_ex.c ****     {
 399:cube/Drivers/STM32F0xx_HAL_Driver/Src/stm32f0xx_hal_tim_ex.c ****       return HAL_ERROR;
 680              		.loc 1 399 0 is_stmt 1
 681 0038 0123     		movs	r3, #1
 682 003a 2FE0     		b	.L29
 683              	.L31:
 400:cube/Drivers/STM32F0xx_HAL_Driver/Src/stm32f0xx_hal_tim_ex.c ****     }
 401:cube/Drivers/STM32F0xx_HAL_Driver/Src/stm32f0xx_hal_tim_ex.c ****     else
 402:cube/Drivers/STM32F0xx_HAL_Driver/Src/stm32f0xx_hal_tim_ex.c ****     {
 403:cube/Drivers/STM32F0xx_HAL_Driver/Src/stm32f0xx_hal_tim_ex.c ****       htim->State = HAL_TIM_STATE_BUSY;
 684              		.loc 1 403 0
 685 003c FB68     		ldr	r3, [r7, #12]
 686 003e 3D22     		movs	r2, #61
 687 0040 0221     		movs	r1, #2
 688 0042 9954     		strb	r1, [r3, r2]
 689              	.L30:
 404:cube/Drivers/STM32F0xx_HAL_Driver/Src/stm32f0xx_hal_tim_ex.c ****     }
 405:cube/Drivers/STM32F0xx_HAL_Driver/Src/stm32f0xx_hal_tim_ex.c ****   }
 406:cube/Drivers/STM32F0xx_HAL_Driver/Src/stm32f0xx_hal_tim_ex.c ****   /* Enable the Input Capture channel 1
 407:cube/Drivers/STM32F0xx_HAL_Driver/Src/stm32f0xx_hal_tim_ex.c ****     (in the Hall Sensor Interface the three possible channels that can be used are TIM_CHANNEL_1, T
 408:cube/Drivers/STM32F0xx_HAL_Driver/Src/stm32f0xx_hal_tim_ex.c ****   TIM_CCxChannelCmd(htim->Instance, TIM_CHANNEL_1, TIM_CCx_ENABLE);
 690              		.loc 1 408 0
 691 0044 FB68     		ldr	r3, [r7, #12]
 692 0046 1B68     		ldr	r3, [r3]
ARM GAS  /tmp/ccpevmba.s 			page 20


 693 0048 0122     		movs	r2, #1
 694 004a 0021     		movs	r1, #0
 695 004c 1800     		movs	r0, r3
 696 004e FFF7FEFF 		bl	TIM_CCxChannelCmd
 409:cube/Drivers/STM32F0xx_HAL_Driver/Src/stm32f0xx_hal_tim_ex.c **** 
 410:cube/Drivers/STM32F0xx_HAL_Driver/Src/stm32f0xx_hal_tim_ex.c ****   /* Set the DMA Input Capture 1 Callback */
 411:cube/Drivers/STM32F0xx_HAL_Driver/Src/stm32f0xx_hal_tim_ex.c ****   htim->hdma[TIM_DMA_ID_CC1]->XferCpltCallback = TIM_DMACaptureCplt;
 697              		.loc 1 411 0
 698 0052 FB68     		ldr	r3, [r7, #12]
 699 0054 5B6A     		ldr	r3, [r3, #36]
 700 0056 134A     		ldr	r2, .L32
 701 0058 9A62     		str	r2, [r3, #40]
 412:cube/Drivers/STM32F0xx_HAL_Driver/Src/stm32f0xx_hal_tim_ex.c ****   /* Set the DMA error callback */
 413:cube/Drivers/STM32F0xx_HAL_Driver/Src/stm32f0xx_hal_tim_ex.c ****   htim->hdma[TIM_DMA_ID_CC1]->XferErrorCallback = TIM_DMAError ;
 702              		.loc 1 413 0
 703 005a FB68     		ldr	r3, [r7, #12]
 704 005c 5B6A     		ldr	r3, [r3, #36]
 705 005e 124A     		ldr	r2, .L32+4
 706 0060 1A63     		str	r2, [r3, #48]
 414:cube/Drivers/STM32F0xx_HAL_Driver/Src/stm32f0xx_hal_tim_ex.c **** 
 415:cube/Drivers/STM32F0xx_HAL_Driver/Src/stm32f0xx_hal_tim_ex.c ****   /* Enable the DMA channel for Capture 1*/
 416:cube/Drivers/STM32F0xx_HAL_Driver/Src/stm32f0xx_hal_tim_ex.c ****   HAL_DMA_Start_IT(htim->hdma[TIM_DMA_ID_CC1], (uint32_t)&htim->Instance->CCR1, (uint32_t)pData, Le
 707              		.loc 1 416 0
 708 0062 FB68     		ldr	r3, [r7, #12]
 709 0064 586A     		ldr	r0, [r3, #36]
 710 0066 FB68     		ldr	r3, [r7, #12]
 711 0068 1B68     		ldr	r3, [r3]
 712 006a 3433     		adds	r3, r3, #52
 713 006c 1900     		movs	r1, r3
 714 006e BA68     		ldr	r2, [r7, #8]
 715 0070 BB1D     		adds	r3, r7, #6
 716 0072 1B88     		ldrh	r3, [r3]
 717 0074 FFF7FEFF 		bl	HAL_DMA_Start_IT
 417:cube/Drivers/STM32F0xx_HAL_Driver/Src/stm32f0xx_hal_tim_ex.c **** 
 418:cube/Drivers/STM32F0xx_HAL_Driver/Src/stm32f0xx_hal_tim_ex.c ****   /* Enable the capture compare 1 Interrupt */
 419:cube/Drivers/STM32F0xx_HAL_Driver/Src/stm32f0xx_hal_tim_ex.c ****   __HAL_TIM_ENABLE_DMA(htim, TIM_DMA_CC1);
 718              		.loc 1 419 0
 719 0078 FB68     		ldr	r3, [r7, #12]
 720 007a 1B68     		ldr	r3, [r3]
 721 007c DA68     		ldr	r2, [r3, #12]
 722 007e FB68     		ldr	r3, [r7, #12]
 723 0080 1B68     		ldr	r3, [r3]
 724 0082 8021     		movs	r1, #128
 725 0084 8900     		lsls	r1, r1, #2
 726 0086 0A43     		orrs	r2, r1
 727 0088 DA60     		str	r2, [r3, #12]
 420:cube/Drivers/STM32F0xx_HAL_Driver/Src/stm32f0xx_hal_tim_ex.c **** 
 421:cube/Drivers/STM32F0xx_HAL_Driver/Src/stm32f0xx_hal_tim_ex.c ****   /* Enable the Peripheral */
 422:cube/Drivers/STM32F0xx_HAL_Driver/Src/stm32f0xx_hal_tim_ex.c ****   __HAL_TIM_ENABLE(htim);
 728              		.loc 1 422 0
 729 008a FB68     		ldr	r3, [r7, #12]
 730 008c 1B68     		ldr	r3, [r3]
 731 008e 1A68     		ldr	r2, [r3]
 732 0090 FB68     		ldr	r3, [r7, #12]
 733 0092 1B68     		ldr	r3, [r3]
 734 0094 0121     		movs	r1, #1
 735 0096 0A43     		orrs	r2, r1
ARM GAS  /tmp/ccpevmba.s 			page 21


 736 0098 1A60     		str	r2, [r3]
 423:cube/Drivers/STM32F0xx_HAL_Driver/Src/stm32f0xx_hal_tim_ex.c **** 
 424:cube/Drivers/STM32F0xx_HAL_Driver/Src/stm32f0xx_hal_tim_ex.c ****   /* Return function status */
 425:cube/Drivers/STM32F0xx_HAL_Driver/Src/stm32f0xx_hal_tim_ex.c ****   return HAL_OK;
 737              		.loc 1 425 0
 738 009a 0023     		movs	r3, #0
 739              	.L29:
 426:cube/Drivers/STM32F0xx_HAL_Driver/Src/stm32f0xx_hal_tim_ex.c **** }
 740              		.loc 1 426 0
 741 009c 1800     		movs	r0, r3
 742 009e BD46     		mov	sp, r7
 743 00a0 04B0     		add	sp, sp, #16
 744              		@ sp needed
 745 00a2 80BD     		pop	{r7, pc}
 746              	.L33:
 747              		.align	2
 748              	.L32:
 749 00a4 00000000 		.word	TIM_DMACaptureCplt
 750 00a8 00000000 		.word	TIM_DMAError
 751              		.cfi_endproc
 752              	.LFE45:
 754              		.section	.text.HAL_TIMEx_HallSensor_Stop_DMA,"ax",%progbits
 755              		.align	1
 756              		.global	HAL_TIMEx_HallSensor_Stop_DMA
 757              		.syntax unified
 758              		.code	16
 759              		.thumb_func
 760              		.fpu softvfp
 762              	HAL_TIMEx_HallSensor_Stop_DMA:
 763              	.LFB46:
 427:cube/Drivers/STM32F0xx_HAL_Driver/Src/stm32f0xx_hal_tim_ex.c **** 
 428:cube/Drivers/STM32F0xx_HAL_Driver/Src/stm32f0xx_hal_tim_ex.c **** /**
 429:cube/Drivers/STM32F0xx_HAL_Driver/Src/stm32f0xx_hal_tim_ex.c ****   * @brief  Stops the TIM Hall Sensor Interface in DMA mode.
 430:cube/Drivers/STM32F0xx_HAL_Driver/Src/stm32f0xx_hal_tim_ex.c ****   * @param  htim TIM handle
 431:cube/Drivers/STM32F0xx_HAL_Driver/Src/stm32f0xx_hal_tim_ex.c ****   * @retval HAL status
 432:cube/Drivers/STM32F0xx_HAL_Driver/Src/stm32f0xx_hal_tim_ex.c ****   */
 433:cube/Drivers/STM32F0xx_HAL_Driver/Src/stm32f0xx_hal_tim_ex.c **** HAL_StatusTypeDef HAL_TIMEx_HallSensor_Stop_DMA(TIM_HandleTypeDef *htim)
 434:cube/Drivers/STM32F0xx_HAL_Driver/Src/stm32f0xx_hal_tim_ex.c **** {
 764              		.loc 1 434 0
 765              		.cfi_startproc
 766              		@ args = 0, pretend = 0, frame = 8
 767              		@ frame_needed = 1, uses_anonymous_args = 0
 768 0000 80B5     		push	{r7, lr}
 769              		.cfi_def_cfa_offset 8
 770              		.cfi_offset 7, -8
 771              		.cfi_offset 14, -4
 772 0002 82B0     		sub	sp, sp, #8
 773              		.cfi_def_cfa_offset 16
 774 0004 00AF     		add	r7, sp, #0
 775              		.cfi_def_cfa_register 7
 776 0006 7860     		str	r0, [r7, #4]
 435:cube/Drivers/STM32F0xx_HAL_Driver/Src/stm32f0xx_hal_tim_ex.c ****   /* Check the parameters */
 436:cube/Drivers/STM32F0xx_HAL_Driver/Src/stm32f0xx_hal_tim_ex.c ****   assert_param(IS_TIM_HALL_INTERFACE_INSTANCE(htim->Instance));
 437:cube/Drivers/STM32F0xx_HAL_Driver/Src/stm32f0xx_hal_tim_ex.c **** 
 438:cube/Drivers/STM32F0xx_HAL_Driver/Src/stm32f0xx_hal_tim_ex.c ****   /* Disable the Input Capture channel 1
 439:cube/Drivers/STM32F0xx_HAL_Driver/Src/stm32f0xx_hal_tim_ex.c ****     (in the Hall Sensor Interface the three possible channels that can be used are TIM_CHANNEL_1, T
 440:cube/Drivers/STM32F0xx_HAL_Driver/Src/stm32f0xx_hal_tim_ex.c ****   TIM_CCxChannelCmd(htim->Instance, TIM_CHANNEL_1, TIM_CCx_DISABLE);
ARM GAS  /tmp/ccpevmba.s 			page 22


 777              		.loc 1 440 0
 778 0008 7B68     		ldr	r3, [r7, #4]
 779 000a 1B68     		ldr	r3, [r3]
 780 000c 0022     		movs	r2, #0
 781 000e 0021     		movs	r1, #0
 782 0010 1800     		movs	r0, r3
 783 0012 FFF7FEFF 		bl	TIM_CCxChannelCmd
 441:cube/Drivers/STM32F0xx_HAL_Driver/Src/stm32f0xx_hal_tim_ex.c **** 
 442:cube/Drivers/STM32F0xx_HAL_Driver/Src/stm32f0xx_hal_tim_ex.c **** 
 443:cube/Drivers/STM32F0xx_HAL_Driver/Src/stm32f0xx_hal_tim_ex.c ****   /* Disable the capture compare Interrupts 1 event */
 444:cube/Drivers/STM32F0xx_HAL_Driver/Src/stm32f0xx_hal_tim_ex.c ****   __HAL_TIM_DISABLE_DMA(htim, TIM_DMA_CC1);
 784              		.loc 1 444 0
 785 0016 7B68     		ldr	r3, [r7, #4]
 786 0018 1B68     		ldr	r3, [r3]
 787 001a DA68     		ldr	r2, [r3, #12]
 788 001c 7B68     		ldr	r3, [r7, #4]
 789 001e 1B68     		ldr	r3, [r3]
 790 0020 0D49     		ldr	r1, .L37
 791 0022 0A40     		ands	r2, r1
 792 0024 DA60     		str	r2, [r3, #12]
 445:cube/Drivers/STM32F0xx_HAL_Driver/Src/stm32f0xx_hal_tim_ex.c **** 
 446:cube/Drivers/STM32F0xx_HAL_Driver/Src/stm32f0xx_hal_tim_ex.c ****   /* Disable the Peripheral */
 447:cube/Drivers/STM32F0xx_HAL_Driver/Src/stm32f0xx_hal_tim_ex.c ****   __HAL_TIM_DISABLE(htim);
 793              		.loc 1 447 0
 794 0026 7B68     		ldr	r3, [r7, #4]
 795 0028 1B68     		ldr	r3, [r3]
 796 002a 1B6A     		ldr	r3, [r3, #32]
 797 002c 0B4A     		ldr	r2, .L37+4
 798 002e 1340     		ands	r3, r2
 799 0030 0DD1     		bne	.L35
 800              		.loc 1 447 0 is_stmt 0 discriminator 1
 801 0032 7B68     		ldr	r3, [r7, #4]
 802 0034 1B68     		ldr	r3, [r3]
 803 0036 1B6A     		ldr	r3, [r3, #32]
 804 0038 094A     		ldr	r2, .L37+8
 805 003a 1340     		ands	r3, r2
 806 003c 07D1     		bne	.L35
 807              		.loc 1 447 0 discriminator 2
 808 003e 7B68     		ldr	r3, [r7, #4]
 809 0040 1B68     		ldr	r3, [r3]
 810 0042 1A68     		ldr	r2, [r3]
 811 0044 7B68     		ldr	r3, [r7, #4]
 812 0046 1B68     		ldr	r3, [r3]
 813 0048 0121     		movs	r1, #1
 814 004a 8A43     		bics	r2, r1
 815 004c 1A60     		str	r2, [r3]
 816              	.L35:
 448:cube/Drivers/STM32F0xx_HAL_Driver/Src/stm32f0xx_hal_tim_ex.c **** 
 449:cube/Drivers/STM32F0xx_HAL_Driver/Src/stm32f0xx_hal_tim_ex.c ****   /* Return function status */
 450:cube/Drivers/STM32F0xx_HAL_Driver/Src/stm32f0xx_hal_tim_ex.c ****   return HAL_OK;
 817              		.loc 1 450 0 is_stmt 1
 818 004e 0023     		movs	r3, #0
 451:cube/Drivers/STM32F0xx_HAL_Driver/Src/stm32f0xx_hal_tim_ex.c **** }
 819              		.loc 1 451 0
 820 0050 1800     		movs	r0, r3
 821 0052 BD46     		mov	sp, r7
 822 0054 02B0     		add	sp, sp, #8
ARM GAS  /tmp/ccpevmba.s 			page 23


 823              		@ sp needed
 824 0056 80BD     		pop	{r7, pc}
 825              	.L38:
 826              		.align	2
 827              	.L37:
 828 0058 FFFDFFFF 		.word	-513
 829 005c 11110000 		.word	4369
 830 0060 44040000 		.word	1092
 831              		.cfi_endproc
 832              	.LFE46:
 834              		.section	.text.HAL_TIMEx_OCN_Start,"ax",%progbits
 835              		.align	1
 836              		.global	HAL_TIMEx_OCN_Start
 837              		.syntax unified
 838              		.code	16
 839              		.thumb_func
 840              		.fpu softvfp
 842              	HAL_TIMEx_OCN_Start:
 843              	.LFB47:
 452:cube/Drivers/STM32F0xx_HAL_Driver/Src/stm32f0xx_hal_tim_ex.c **** 
 453:cube/Drivers/STM32F0xx_HAL_Driver/Src/stm32f0xx_hal_tim_ex.c **** /**
 454:cube/Drivers/STM32F0xx_HAL_Driver/Src/stm32f0xx_hal_tim_ex.c ****   * @}
 455:cube/Drivers/STM32F0xx_HAL_Driver/Src/stm32f0xx_hal_tim_ex.c ****   */
 456:cube/Drivers/STM32F0xx_HAL_Driver/Src/stm32f0xx_hal_tim_ex.c **** 
 457:cube/Drivers/STM32F0xx_HAL_Driver/Src/stm32f0xx_hal_tim_ex.c **** /** @defgroup TIMEx_Exported_Functions_Group2 Timer Complementary Output Compare functions
 458:cube/Drivers/STM32F0xx_HAL_Driver/Src/stm32f0xx_hal_tim_ex.c ****  *  @brief    Timer Complementary Output Compare functions 
 459:cube/Drivers/STM32F0xx_HAL_Driver/Src/stm32f0xx_hal_tim_ex.c ****  *
 460:cube/Drivers/STM32F0xx_HAL_Driver/Src/stm32f0xx_hal_tim_ex.c **** @verbatim 
 461:cube/Drivers/STM32F0xx_HAL_Driver/Src/stm32f0xx_hal_tim_ex.c ****   ==============================================================================
 462:cube/Drivers/STM32F0xx_HAL_Driver/Src/stm32f0xx_hal_tim_ex.c ****               ##### Timer Complementary Output Compare functions #####
 463:cube/Drivers/STM32F0xx_HAL_Driver/Src/stm32f0xx_hal_tim_ex.c ****   ==============================================================================
 464:cube/Drivers/STM32F0xx_HAL_Driver/Src/stm32f0xx_hal_tim_ex.c ****   [..]
 465:cube/Drivers/STM32F0xx_HAL_Driver/Src/stm32f0xx_hal_tim_ex.c ****     This section provides functions allowing to:
 466:cube/Drivers/STM32F0xx_HAL_Driver/Src/stm32f0xx_hal_tim_ex.c ****     (+) Start the Complementary Output Compare/PWM.
 467:cube/Drivers/STM32F0xx_HAL_Driver/Src/stm32f0xx_hal_tim_ex.c ****     (+) Stop the Complementary Output Compare/PWM.
 468:cube/Drivers/STM32F0xx_HAL_Driver/Src/stm32f0xx_hal_tim_ex.c ****     (+) Start the Complementary Output Compare/PWM and enable interrupts.
 469:cube/Drivers/STM32F0xx_HAL_Driver/Src/stm32f0xx_hal_tim_ex.c ****     (+) Stop the Complementary Output Compare/PWM and disable interrupts.
 470:cube/Drivers/STM32F0xx_HAL_Driver/Src/stm32f0xx_hal_tim_ex.c ****     (+) Start the Complementary Output Compare/PWM and enable DMA transfers.
 471:cube/Drivers/STM32F0xx_HAL_Driver/Src/stm32f0xx_hal_tim_ex.c ****     (+) Stop the Complementary Output Compare/PWM and disable DMA transfers.
 472:cube/Drivers/STM32F0xx_HAL_Driver/Src/stm32f0xx_hal_tim_ex.c **** 
 473:cube/Drivers/STM32F0xx_HAL_Driver/Src/stm32f0xx_hal_tim_ex.c **** @endverbatim
 474:cube/Drivers/STM32F0xx_HAL_Driver/Src/stm32f0xx_hal_tim_ex.c ****   * @{
 475:cube/Drivers/STM32F0xx_HAL_Driver/Src/stm32f0xx_hal_tim_ex.c ****   */
 476:cube/Drivers/STM32F0xx_HAL_Driver/Src/stm32f0xx_hal_tim_ex.c **** 
 477:cube/Drivers/STM32F0xx_HAL_Driver/Src/stm32f0xx_hal_tim_ex.c **** /**
 478:cube/Drivers/STM32F0xx_HAL_Driver/Src/stm32f0xx_hal_tim_ex.c ****   * @brief  Starts the TIM Output Compare signal generation on the complementary
 479:cube/Drivers/STM32F0xx_HAL_Driver/Src/stm32f0xx_hal_tim_ex.c ****   *         output.
 480:cube/Drivers/STM32F0xx_HAL_Driver/Src/stm32f0xx_hal_tim_ex.c ****   * @param  htim TIM Output Compare handle 
 481:cube/Drivers/STM32F0xx_HAL_Driver/Src/stm32f0xx_hal_tim_ex.c ****   * @param  Channel TIM Channel to be enabled
 482:cube/Drivers/STM32F0xx_HAL_Driver/Src/stm32f0xx_hal_tim_ex.c ****   *          This parameter can be one of the following values:
 483:cube/Drivers/STM32F0xx_HAL_Driver/Src/stm32f0xx_hal_tim_ex.c ****   *            @arg TIM_CHANNEL_1: TIM Channel 1 selected
 484:cube/Drivers/STM32F0xx_HAL_Driver/Src/stm32f0xx_hal_tim_ex.c ****   *            @arg TIM_CHANNEL_2: TIM Channel 2 selected
 485:cube/Drivers/STM32F0xx_HAL_Driver/Src/stm32f0xx_hal_tim_ex.c ****   *            @arg TIM_CHANNEL_3: TIM Channel 3 selected
 486:cube/Drivers/STM32F0xx_HAL_Driver/Src/stm32f0xx_hal_tim_ex.c ****   *            @arg TIM_CHANNEL_4: TIM Channel 4 selected
 487:cube/Drivers/STM32F0xx_HAL_Driver/Src/stm32f0xx_hal_tim_ex.c ****   * @retval HAL status
 488:cube/Drivers/STM32F0xx_HAL_Driver/Src/stm32f0xx_hal_tim_ex.c ****   */
 489:cube/Drivers/STM32F0xx_HAL_Driver/Src/stm32f0xx_hal_tim_ex.c **** HAL_StatusTypeDef HAL_TIMEx_OCN_Start(TIM_HandleTypeDef *htim, uint32_t Channel)
ARM GAS  /tmp/ccpevmba.s 			page 24


 490:cube/Drivers/STM32F0xx_HAL_Driver/Src/stm32f0xx_hal_tim_ex.c **** {
 844              		.loc 1 490 0
 845              		.cfi_startproc
 846              		@ args = 0, pretend = 0, frame = 8
 847              		@ frame_needed = 1, uses_anonymous_args = 0
 848 0000 80B5     		push	{r7, lr}
 849              		.cfi_def_cfa_offset 8
 850              		.cfi_offset 7, -8
 851              		.cfi_offset 14, -4
 852 0002 82B0     		sub	sp, sp, #8
 853              		.cfi_def_cfa_offset 16
 854 0004 00AF     		add	r7, sp, #0
 855              		.cfi_def_cfa_register 7
 856 0006 7860     		str	r0, [r7, #4]
 857 0008 3960     		str	r1, [r7]
 491:cube/Drivers/STM32F0xx_HAL_Driver/Src/stm32f0xx_hal_tim_ex.c ****   /* Check the parameters */
 492:cube/Drivers/STM32F0xx_HAL_Driver/Src/stm32f0xx_hal_tim_ex.c ****   assert_param(IS_TIM_CCXN_INSTANCE(htim->Instance, Channel));
 493:cube/Drivers/STM32F0xx_HAL_Driver/Src/stm32f0xx_hal_tim_ex.c **** 
 494:cube/Drivers/STM32F0xx_HAL_Driver/Src/stm32f0xx_hal_tim_ex.c ****      /* Enable the Capture compare channel N */
 495:cube/Drivers/STM32F0xx_HAL_Driver/Src/stm32f0xx_hal_tim_ex.c ****      TIM_CCxNChannelCmd(htim->Instance, Channel, TIM_CCxN_ENABLE);
 858              		.loc 1 495 0
 859 000a 7B68     		ldr	r3, [r7, #4]
 860 000c 1B68     		ldr	r3, [r3]
 861 000e 3968     		ldr	r1, [r7]
 862 0010 0422     		movs	r2, #4
 863 0012 1800     		movs	r0, r3
 864 0014 FFF7FEFF 		bl	TIM_CCxNChannelCmd
 496:cube/Drivers/STM32F0xx_HAL_Driver/Src/stm32f0xx_hal_tim_ex.c **** 
 497:cube/Drivers/STM32F0xx_HAL_Driver/Src/stm32f0xx_hal_tim_ex.c ****   /* Enable the Main Ouput */
 498:cube/Drivers/STM32F0xx_HAL_Driver/Src/stm32f0xx_hal_tim_ex.c ****     __HAL_TIM_MOE_ENABLE(htim);
 865              		.loc 1 498 0
 866 0018 7B68     		ldr	r3, [r7, #4]
 867 001a 1B68     		ldr	r3, [r3]
 868 001c 5A6C     		ldr	r2, [r3, #68]
 869 001e 7B68     		ldr	r3, [r7, #4]
 870 0020 1B68     		ldr	r3, [r3]
 871 0022 8021     		movs	r1, #128
 872 0024 0902     		lsls	r1, r1, #8
 873 0026 0A43     		orrs	r2, r1
 874 0028 5A64     		str	r2, [r3, #68]
 499:cube/Drivers/STM32F0xx_HAL_Driver/Src/stm32f0xx_hal_tim_ex.c **** 
 500:cube/Drivers/STM32F0xx_HAL_Driver/Src/stm32f0xx_hal_tim_ex.c ****   /* Enable the Peripheral */
 501:cube/Drivers/STM32F0xx_HAL_Driver/Src/stm32f0xx_hal_tim_ex.c ****   __HAL_TIM_ENABLE(htim);
 875              		.loc 1 501 0
 876 002a 7B68     		ldr	r3, [r7, #4]
 877 002c 1B68     		ldr	r3, [r3]
 878 002e 1A68     		ldr	r2, [r3]
 879 0030 7B68     		ldr	r3, [r7, #4]
 880 0032 1B68     		ldr	r3, [r3]
 881 0034 0121     		movs	r1, #1
 882 0036 0A43     		orrs	r2, r1
 883 0038 1A60     		str	r2, [r3]
 502:cube/Drivers/STM32F0xx_HAL_Driver/Src/stm32f0xx_hal_tim_ex.c **** 
 503:cube/Drivers/STM32F0xx_HAL_Driver/Src/stm32f0xx_hal_tim_ex.c ****   /* Return function status */
 504:cube/Drivers/STM32F0xx_HAL_Driver/Src/stm32f0xx_hal_tim_ex.c ****   return HAL_OK;
 884              		.loc 1 504 0
 885 003a 0023     		movs	r3, #0
ARM GAS  /tmp/ccpevmba.s 			page 25


 505:cube/Drivers/STM32F0xx_HAL_Driver/Src/stm32f0xx_hal_tim_ex.c **** }
 886              		.loc 1 505 0
 887 003c 1800     		movs	r0, r3
 888 003e BD46     		mov	sp, r7
 889 0040 02B0     		add	sp, sp, #8
 890              		@ sp needed
 891 0042 80BD     		pop	{r7, pc}
 892              		.cfi_endproc
 893              	.LFE47:
 895              		.section	.text.HAL_TIMEx_OCN_Stop,"ax",%progbits
 896              		.align	1
 897              		.global	HAL_TIMEx_OCN_Stop
 898              		.syntax unified
 899              		.code	16
 900              		.thumb_func
 901              		.fpu softvfp
 903              	HAL_TIMEx_OCN_Stop:
 904              	.LFB48:
 506:cube/Drivers/STM32F0xx_HAL_Driver/Src/stm32f0xx_hal_tim_ex.c **** 
 507:cube/Drivers/STM32F0xx_HAL_Driver/Src/stm32f0xx_hal_tim_ex.c **** /**
 508:cube/Drivers/STM32F0xx_HAL_Driver/Src/stm32f0xx_hal_tim_ex.c ****   * @brief  Stops the TIM Output Compare signal generation on the complementary
 509:cube/Drivers/STM32F0xx_HAL_Driver/Src/stm32f0xx_hal_tim_ex.c ****   *         output.
 510:cube/Drivers/STM32F0xx_HAL_Driver/Src/stm32f0xx_hal_tim_ex.c ****   * @param  htim TIM handle
 511:cube/Drivers/STM32F0xx_HAL_Driver/Src/stm32f0xx_hal_tim_ex.c ****   * @param  Channel TIM Channel to be disabled
 512:cube/Drivers/STM32F0xx_HAL_Driver/Src/stm32f0xx_hal_tim_ex.c ****   *          This parameter can be one of the following values:
 513:cube/Drivers/STM32F0xx_HAL_Driver/Src/stm32f0xx_hal_tim_ex.c ****   *            @arg TIM_CHANNEL_1: TIM Channel 1 selected
 514:cube/Drivers/STM32F0xx_HAL_Driver/Src/stm32f0xx_hal_tim_ex.c ****   *            @arg TIM_CHANNEL_2: TIM Channel 2 selected
 515:cube/Drivers/STM32F0xx_HAL_Driver/Src/stm32f0xx_hal_tim_ex.c ****   *            @arg TIM_CHANNEL_3: TIM Channel 3 selected
 516:cube/Drivers/STM32F0xx_HAL_Driver/Src/stm32f0xx_hal_tim_ex.c ****   *            @arg TIM_CHANNEL_4: TIM Channel 4 selected
 517:cube/Drivers/STM32F0xx_HAL_Driver/Src/stm32f0xx_hal_tim_ex.c ****   * @retval HAL status
 518:cube/Drivers/STM32F0xx_HAL_Driver/Src/stm32f0xx_hal_tim_ex.c ****   */
 519:cube/Drivers/STM32F0xx_HAL_Driver/Src/stm32f0xx_hal_tim_ex.c **** HAL_StatusTypeDef HAL_TIMEx_OCN_Stop(TIM_HandleTypeDef *htim, uint32_t Channel)
 520:cube/Drivers/STM32F0xx_HAL_Driver/Src/stm32f0xx_hal_tim_ex.c **** {
 905              		.loc 1 520 0
 906              		.cfi_startproc
 907              		@ args = 0, pretend = 0, frame = 8
 908              		@ frame_needed = 1, uses_anonymous_args = 0
 909 0000 80B5     		push	{r7, lr}
 910              		.cfi_def_cfa_offset 8
 911              		.cfi_offset 7, -8
 912              		.cfi_offset 14, -4
 913 0002 82B0     		sub	sp, sp, #8
 914              		.cfi_def_cfa_offset 16
 915 0004 00AF     		add	r7, sp, #0
 916              		.cfi_def_cfa_register 7
 917 0006 7860     		str	r0, [r7, #4]
 918 0008 3960     		str	r1, [r7]
 521:cube/Drivers/STM32F0xx_HAL_Driver/Src/stm32f0xx_hal_tim_ex.c ****   /* Check the parameters */
 522:cube/Drivers/STM32F0xx_HAL_Driver/Src/stm32f0xx_hal_tim_ex.c ****   assert_param(IS_TIM_CCXN_INSTANCE(htim->Instance, Channel));
 523:cube/Drivers/STM32F0xx_HAL_Driver/Src/stm32f0xx_hal_tim_ex.c **** 
 524:cube/Drivers/STM32F0xx_HAL_Driver/Src/stm32f0xx_hal_tim_ex.c ****     /* Disable the Capture compare channel N */
 525:cube/Drivers/STM32F0xx_HAL_Driver/Src/stm32f0xx_hal_tim_ex.c ****   TIM_CCxNChannelCmd(htim->Instance, Channel, TIM_CCxN_DISABLE);
 919              		.loc 1 525 0
 920 000a 7B68     		ldr	r3, [r7, #4]
 921 000c 1B68     		ldr	r3, [r3]
 922 000e 3968     		ldr	r1, [r7]
 923 0010 0022     		movs	r2, #0
ARM GAS  /tmp/ccpevmba.s 			page 26


 924 0012 1800     		movs	r0, r3
 925 0014 FFF7FEFF 		bl	TIM_CCxNChannelCmd
 526:cube/Drivers/STM32F0xx_HAL_Driver/Src/stm32f0xx_hal_tim_ex.c **** 
 527:cube/Drivers/STM32F0xx_HAL_Driver/Src/stm32f0xx_hal_tim_ex.c ****   /* Disable the Main Ouput */
 528:cube/Drivers/STM32F0xx_HAL_Driver/Src/stm32f0xx_hal_tim_ex.c ****     __HAL_TIM_MOE_DISABLE(htim);
 926              		.loc 1 528 0
 927 0018 7B68     		ldr	r3, [r7, #4]
 928 001a 1B68     		ldr	r3, [r3]
 929 001c 1B6A     		ldr	r3, [r3, #32]
 930 001e 154A     		ldr	r2, .L45
 931 0020 1340     		ands	r3, r2
 932 0022 0DD1     		bne	.L42
 933              		.loc 1 528 0 is_stmt 0 discriminator 1
 934 0024 7B68     		ldr	r3, [r7, #4]
 935 0026 1B68     		ldr	r3, [r3]
 936 0028 1B6A     		ldr	r3, [r3, #32]
 937 002a 134A     		ldr	r2, .L45+4
 938 002c 1340     		ands	r3, r2
 939 002e 07D1     		bne	.L42
 940              		.loc 1 528 0 discriminator 2
 941 0030 7B68     		ldr	r3, [r7, #4]
 942 0032 1B68     		ldr	r3, [r3]
 943 0034 5A6C     		ldr	r2, [r3, #68]
 944 0036 7B68     		ldr	r3, [r7, #4]
 945 0038 1B68     		ldr	r3, [r3]
 946 003a 1049     		ldr	r1, .L45+8
 947 003c 0A40     		ands	r2, r1
 948 003e 5A64     		str	r2, [r3, #68]
 949              	.L42:
 529:cube/Drivers/STM32F0xx_HAL_Driver/Src/stm32f0xx_hal_tim_ex.c **** 
 530:cube/Drivers/STM32F0xx_HAL_Driver/Src/stm32f0xx_hal_tim_ex.c ****   /* Disable the Peripheral */
 531:cube/Drivers/STM32F0xx_HAL_Driver/Src/stm32f0xx_hal_tim_ex.c ****   __HAL_TIM_DISABLE(htim);
 950              		.loc 1 531 0 is_stmt 1
 951 0040 7B68     		ldr	r3, [r7, #4]
 952 0042 1B68     		ldr	r3, [r3]
 953 0044 1B6A     		ldr	r3, [r3, #32]
 954 0046 0B4A     		ldr	r2, .L45
 955 0048 1340     		ands	r3, r2
 956 004a 0DD1     		bne	.L43
 957              		.loc 1 531 0 is_stmt 0 discriminator 1
 958 004c 7B68     		ldr	r3, [r7, #4]
 959 004e 1B68     		ldr	r3, [r3]
 960 0050 1B6A     		ldr	r3, [r3, #32]
 961 0052 094A     		ldr	r2, .L45+4
 962 0054 1340     		ands	r3, r2
 963 0056 07D1     		bne	.L43
 964              		.loc 1 531 0 discriminator 2
 965 0058 7B68     		ldr	r3, [r7, #4]
 966 005a 1B68     		ldr	r3, [r3]
 967 005c 1A68     		ldr	r2, [r3]
 968 005e 7B68     		ldr	r3, [r7, #4]
 969 0060 1B68     		ldr	r3, [r3]
 970 0062 0121     		movs	r1, #1
 971 0064 8A43     		bics	r2, r1
 972 0066 1A60     		str	r2, [r3]
 973              	.L43:
 532:cube/Drivers/STM32F0xx_HAL_Driver/Src/stm32f0xx_hal_tim_ex.c **** 
ARM GAS  /tmp/ccpevmba.s 			page 27


 533:cube/Drivers/STM32F0xx_HAL_Driver/Src/stm32f0xx_hal_tim_ex.c ****   /* Return function status */
 534:cube/Drivers/STM32F0xx_HAL_Driver/Src/stm32f0xx_hal_tim_ex.c ****   return HAL_OK;
 974              		.loc 1 534 0 is_stmt 1
 975 0068 0023     		movs	r3, #0
 535:cube/Drivers/STM32F0xx_HAL_Driver/Src/stm32f0xx_hal_tim_ex.c **** }
 976              		.loc 1 535 0
 977 006a 1800     		movs	r0, r3
 978 006c BD46     		mov	sp, r7
 979 006e 02B0     		add	sp, sp, #8
 980              		@ sp needed
 981 0070 80BD     		pop	{r7, pc}
 982              	.L46:
 983 0072 C046     		.align	2
 984              	.L45:
 985 0074 11110000 		.word	4369
 986 0078 44040000 		.word	1092
 987 007c FF7FFFFF 		.word	-32769
 988              		.cfi_endproc
 989              	.LFE48:
 991              		.section	.text.HAL_TIMEx_OCN_Start_IT,"ax",%progbits
 992              		.align	1
 993              		.global	HAL_TIMEx_OCN_Start_IT
 994              		.syntax unified
 995              		.code	16
 996              		.thumb_func
 997              		.fpu softvfp
 999              	HAL_TIMEx_OCN_Start_IT:
 1000              	.LFB49:
 536:cube/Drivers/STM32F0xx_HAL_Driver/Src/stm32f0xx_hal_tim_ex.c **** 
 537:cube/Drivers/STM32F0xx_HAL_Driver/Src/stm32f0xx_hal_tim_ex.c **** /**
 538:cube/Drivers/STM32F0xx_HAL_Driver/Src/stm32f0xx_hal_tim_ex.c ****   * @brief  Starts the TIM Output Compare signal generation in interrupt mode 
 539:cube/Drivers/STM32F0xx_HAL_Driver/Src/stm32f0xx_hal_tim_ex.c ****   *         on the complementary output.
 540:cube/Drivers/STM32F0xx_HAL_Driver/Src/stm32f0xx_hal_tim_ex.c ****   * @param  htim TIM OC handle
 541:cube/Drivers/STM32F0xx_HAL_Driver/Src/stm32f0xx_hal_tim_ex.c ****   * @param  Channel TIM Channel to be enabled
 542:cube/Drivers/STM32F0xx_HAL_Driver/Src/stm32f0xx_hal_tim_ex.c ****   *          This parameter can be one of the following values:
 543:cube/Drivers/STM32F0xx_HAL_Driver/Src/stm32f0xx_hal_tim_ex.c ****   *            @arg TIM_CHANNEL_1: TIM Channel 1 selected
 544:cube/Drivers/STM32F0xx_HAL_Driver/Src/stm32f0xx_hal_tim_ex.c ****   *            @arg TIM_CHANNEL_2: TIM Channel 2 selected
 545:cube/Drivers/STM32F0xx_HAL_Driver/Src/stm32f0xx_hal_tim_ex.c ****   *            @arg TIM_CHANNEL_3: TIM Channel 3 selected
 546:cube/Drivers/STM32F0xx_HAL_Driver/Src/stm32f0xx_hal_tim_ex.c ****   *            @arg TIM_CHANNEL_4: TIM Channel 4 selected
 547:cube/Drivers/STM32F0xx_HAL_Driver/Src/stm32f0xx_hal_tim_ex.c ****   * @retval HAL status
 548:cube/Drivers/STM32F0xx_HAL_Driver/Src/stm32f0xx_hal_tim_ex.c ****   */
 549:cube/Drivers/STM32F0xx_HAL_Driver/Src/stm32f0xx_hal_tim_ex.c **** HAL_StatusTypeDef HAL_TIMEx_OCN_Start_IT(TIM_HandleTypeDef *htim, uint32_t Channel)
 550:cube/Drivers/STM32F0xx_HAL_Driver/Src/stm32f0xx_hal_tim_ex.c **** {
 1001              		.loc 1 550 0
 1002              		.cfi_startproc
 1003              		@ args = 0, pretend = 0, frame = 8
 1004              		@ frame_needed = 1, uses_anonymous_args = 0
 1005 0000 80B5     		push	{r7, lr}
 1006              		.cfi_def_cfa_offset 8
 1007              		.cfi_offset 7, -8
 1008              		.cfi_offset 14, -4
 1009 0002 82B0     		sub	sp, sp, #8
 1010              		.cfi_def_cfa_offset 16
 1011 0004 00AF     		add	r7, sp, #0
 1012              		.cfi_def_cfa_register 7
 1013 0006 7860     		str	r0, [r7, #4]
 1014 0008 3960     		str	r1, [r7]
ARM GAS  /tmp/ccpevmba.s 			page 28


 551:cube/Drivers/STM32F0xx_HAL_Driver/Src/stm32f0xx_hal_tim_ex.c ****   /* Check the parameters */
 552:cube/Drivers/STM32F0xx_HAL_Driver/Src/stm32f0xx_hal_tim_ex.c ****   assert_param(IS_TIM_CCXN_INSTANCE(htim->Instance, Channel));
 553:cube/Drivers/STM32F0xx_HAL_Driver/Src/stm32f0xx_hal_tim_ex.c **** 
 554:cube/Drivers/STM32F0xx_HAL_Driver/Src/stm32f0xx_hal_tim_ex.c ****   switch (Channel)
 1015              		.loc 1 554 0
 1016 000a 3B68     		ldr	r3, [r7]
 1017 000c 042B     		cmp	r3, #4
 1018 000e 11D0     		beq	.L49
 1019 0010 02D8     		bhi	.L50
 1020 0012 002B     		cmp	r3, #0
 1021 0014 05D0     		beq	.L51
 555:cube/Drivers/STM32F0xx_HAL_Driver/Src/stm32f0xx_hal_tim_ex.c ****   {
 556:cube/Drivers/STM32F0xx_HAL_Driver/Src/stm32f0xx_hal_tim_ex.c ****     case TIM_CHANNEL_1:
 557:cube/Drivers/STM32F0xx_HAL_Driver/Src/stm32f0xx_hal_tim_ex.c ****     {
 558:cube/Drivers/STM32F0xx_HAL_Driver/Src/stm32f0xx_hal_tim_ex.c ****       /* Enable the TIM Output Compare interrupt */
 559:cube/Drivers/STM32F0xx_HAL_Driver/Src/stm32f0xx_hal_tim_ex.c ****       __HAL_TIM_ENABLE_IT(htim, TIM_IT_CC1);
 560:cube/Drivers/STM32F0xx_HAL_Driver/Src/stm32f0xx_hal_tim_ex.c ****     }
 561:cube/Drivers/STM32F0xx_HAL_Driver/Src/stm32f0xx_hal_tim_ex.c ****     break;
 562:cube/Drivers/STM32F0xx_HAL_Driver/Src/stm32f0xx_hal_tim_ex.c **** 
 563:cube/Drivers/STM32F0xx_HAL_Driver/Src/stm32f0xx_hal_tim_ex.c ****     case TIM_CHANNEL_2:
 564:cube/Drivers/STM32F0xx_HAL_Driver/Src/stm32f0xx_hal_tim_ex.c ****     {
 565:cube/Drivers/STM32F0xx_HAL_Driver/Src/stm32f0xx_hal_tim_ex.c ****       /* Enable the TIM Output Compare interrupt */
 566:cube/Drivers/STM32F0xx_HAL_Driver/Src/stm32f0xx_hal_tim_ex.c ****       __HAL_TIM_ENABLE_IT(htim, TIM_IT_CC2);
 567:cube/Drivers/STM32F0xx_HAL_Driver/Src/stm32f0xx_hal_tim_ex.c ****     }
 568:cube/Drivers/STM32F0xx_HAL_Driver/Src/stm32f0xx_hal_tim_ex.c ****     break;
 569:cube/Drivers/STM32F0xx_HAL_Driver/Src/stm32f0xx_hal_tim_ex.c **** 
 570:cube/Drivers/STM32F0xx_HAL_Driver/Src/stm32f0xx_hal_tim_ex.c ****     case TIM_CHANNEL_3:
 571:cube/Drivers/STM32F0xx_HAL_Driver/Src/stm32f0xx_hal_tim_ex.c ****     {
 572:cube/Drivers/STM32F0xx_HAL_Driver/Src/stm32f0xx_hal_tim_ex.c ****       /* Enable the TIM Output Compare interrupt */
 573:cube/Drivers/STM32F0xx_HAL_Driver/Src/stm32f0xx_hal_tim_ex.c ****       __HAL_TIM_ENABLE_IT(htim, TIM_IT_CC3);
 574:cube/Drivers/STM32F0xx_HAL_Driver/Src/stm32f0xx_hal_tim_ex.c ****     }
 575:cube/Drivers/STM32F0xx_HAL_Driver/Src/stm32f0xx_hal_tim_ex.c ****     break;
 576:cube/Drivers/STM32F0xx_HAL_Driver/Src/stm32f0xx_hal_tim_ex.c **** 
 577:cube/Drivers/STM32F0xx_HAL_Driver/Src/stm32f0xx_hal_tim_ex.c ****     case TIM_CHANNEL_4:
 578:cube/Drivers/STM32F0xx_HAL_Driver/Src/stm32f0xx_hal_tim_ex.c ****     {
 579:cube/Drivers/STM32F0xx_HAL_Driver/Src/stm32f0xx_hal_tim_ex.c ****       /* Enable the TIM Output Compare interrupt */
 580:cube/Drivers/STM32F0xx_HAL_Driver/Src/stm32f0xx_hal_tim_ex.c ****       __HAL_TIM_ENABLE_IT(htim, TIM_IT_CC4);
 581:cube/Drivers/STM32F0xx_HAL_Driver/Src/stm32f0xx_hal_tim_ex.c ****     }
 582:cube/Drivers/STM32F0xx_HAL_Driver/Src/stm32f0xx_hal_tim_ex.c ****     break;
 583:cube/Drivers/STM32F0xx_HAL_Driver/Src/stm32f0xx_hal_tim_ex.c **** 
 584:cube/Drivers/STM32F0xx_HAL_Driver/Src/stm32f0xx_hal_tim_ex.c ****     default:
 585:cube/Drivers/STM32F0xx_HAL_Driver/Src/stm32f0xx_hal_tim_ex.c ****     break;
 1022              		.loc 1 585 0
 1023 0016 28E0     		b	.L54
 1024              	.L50:
 554:cube/Drivers/STM32F0xx_HAL_Driver/Src/stm32f0xx_hal_tim_ex.c ****   {
 1025              		.loc 1 554 0
 1026 0018 082B     		cmp	r3, #8
 1027 001a 14D0     		beq	.L52
 1028 001c 0C2B     		cmp	r3, #12
 1029 001e 1BD0     		beq	.L53
 1030              		.loc 1 585 0
 1031 0020 23E0     		b	.L54
 1032              	.L51:
 559:cube/Drivers/STM32F0xx_HAL_Driver/Src/stm32f0xx_hal_tim_ex.c ****     }
 1033              		.loc 1 559 0
 1034 0022 7B68     		ldr	r3, [r7, #4]
ARM GAS  /tmp/ccpevmba.s 			page 29


 1035 0024 1B68     		ldr	r3, [r3]
 1036 0026 DA68     		ldr	r2, [r3, #12]
 1037 0028 7B68     		ldr	r3, [r7, #4]
 1038 002a 1B68     		ldr	r3, [r3]
 1039 002c 0221     		movs	r1, #2
 1040 002e 0A43     		orrs	r2, r1
 1041 0030 DA60     		str	r2, [r3, #12]
 561:cube/Drivers/STM32F0xx_HAL_Driver/Src/stm32f0xx_hal_tim_ex.c **** 
 1042              		.loc 1 561 0
 1043 0032 1AE0     		b	.L54
 1044              	.L49:
 566:cube/Drivers/STM32F0xx_HAL_Driver/Src/stm32f0xx_hal_tim_ex.c ****     }
 1045              		.loc 1 566 0
 1046 0034 7B68     		ldr	r3, [r7, #4]
 1047 0036 1B68     		ldr	r3, [r3]
 1048 0038 DA68     		ldr	r2, [r3, #12]
 1049 003a 7B68     		ldr	r3, [r7, #4]
 1050 003c 1B68     		ldr	r3, [r3]
 1051 003e 0421     		movs	r1, #4
 1052 0040 0A43     		orrs	r2, r1
 1053 0042 DA60     		str	r2, [r3, #12]
 568:cube/Drivers/STM32F0xx_HAL_Driver/Src/stm32f0xx_hal_tim_ex.c **** 
 1054              		.loc 1 568 0
 1055 0044 11E0     		b	.L54
 1056              	.L52:
 573:cube/Drivers/STM32F0xx_HAL_Driver/Src/stm32f0xx_hal_tim_ex.c ****     }
 1057              		.loc 1 573 0
 1058 0046 7B68     		ldr	r3, [r7, #4]
 1059 0048 1B68     		ldr	r3, [r3]
 1060 004a DA68     		ldr	r2, [r3, #12]
 1061 004c 7B68     		ldr	r3, [r7, #4]
 1062 004e 1B68     		ldr	r3, [r3]
 1063 0050 0821     		movs	r1, #8
 1064 0052 0A43     		orrs	r2, r1
 1065 0054 DA60     		str	r2, [r3, #12]
 575:cube/Drivers/STM32F0xx_HAL_Driver/Src/stm32f0xx_hal_tim_ex.c **** 
 1066              		.loc 1 575 0
 1067 0056 08E0     		b	.L54
 1068              	.L53:
 580:cube/Drivers/STM32F0xx_HAL_Driver/Src/stm32f0xx_hal_tim_ex.c ****     }
 1069              		.loc 1 580 0
 1070 0058 7B68     		ldr	r3, [r7, #4]
 1071 005a 1B68     		ldr	r3, [r3]
 1072 005c DA68     		ldr	r2, [r3, #12]
 1073 005e 7B68     		ldr	r3, [r7, #4]
 1074 0060 1B68     		ldr	r3, [r3]
 1075 0062 1021     		movs	r1, #16
 1076 0064 0A43     		orrs	r2, r1
 1077 0066 DA60     		str	r2, [r3, #12]
 582:cube/Drivers/STM32F0xx_HAL_Driver/Src/stm32f0xx_hal_tim_ex.c **** 
 1078              		.loc 1 582 0
 1079 0068 C046     		nop
 1080              	.L54:
 586:cube/Drivers/STM32F0xx_HAL_Driver/Src/stm32f0xx_hal_tim_ex.c ****   }
 587:cube/Drivers/STM32F0xx_HAL_Driver/Src/stm32f0xx_hal_tim_ex.c **** 
 588:cube/Drivers/STM32F0xx_HAL_Driver/Src/stm32f0xx_hal_tim_ex.c ****   /* Enable the TIM Break interrupt */
 589:cube/Drivers/STM32F0xx_HAL_Driver/Src/stm32f0xx_hal_tim_ex.c ****   __HAL_TIM_ENABLE_IT(htim, TIM_IT_BREAK);
ARM GAS  /tmp/ccpevmba.s 			page 30


 1081              		.loc 1 589 0
 1082 006a 7B68     		ldr	r3, [r7, #4]
 1083 006c 1B68     		ldr	r3, [r3]
 1084 006e DA68     		ldr	r2, [r3, #12]
 1085 0070 7B68     		ldr	r3, [r7, #4]
 1086 0072 1B68     		ldr	r3, [r3]
 1087 0074 8021     		movs	r1, #128
 1088 0076 0A43     		orrs	r2, r1
 1089 0078 DA60     		str	r2, [r3, #12]
 590:cube/Drivers/STM32F0xx_HAL_Driver/Src/stm32f0xx_hal_tim_ex.c **** 
 591:cube/Drivers/STM32F0xx_HAL_Driver/Src/stm32f0xx_hal_tim_ex.c ****      /* Enable the Capture compare channel N */
 592:cube/Drivers/STM32F0xx_HAL_Driver/Src/stm32f0xx_hal_tim_ex.c ****      TIM_CCxNChannelCmd(htim->Instance, Channel, TIM_CCxN_ENABLE);
 1090              		.loc 1 592 0
 1091 007a 7B68     		ldr	r3, [r7, #4]
 1092 007c 1B68     		ldr	r3, [r3]
 1093 007e 3968     		ldr	r1, [r7]
 1094 0080 0422     		movs	r2, #4
 1095 0082 1800     		movs	r0, r3
 1096 0084 FFF7FEFF 		bl	TIM_CCxNChannelCmd
 593:cube/Drivers/STM32F0xx_HAL_Driver/Src/stm32f0xx_hal_tim_ex.c **** 
 594:cube/Drivers/STM32F0xx_HAL_Driver/Src/stm32f0xx_hal_tim_ex.c ****   /* Enable the Main Ouput */
 595:cube/Drivers/STM32F0xx_HAL_Driver/Src/stm32f0xx_hal_tim_ex.c ****     __HAL_TIM_MOE_ENABLE(htim);
 1097              		.loc 1 595 0
 1098 0088 7B68     		ldr	r3, [r7, #4]
 1099 008a 1B68     		ldr	r3, [r3]
 1100 008c 5A6C     		ldr	r2, [r3, #68]
 1101 008e 7B68     		ldr	r3, [r7, #4]
 1102 0090 1B68     		ldr	r3, [r3]
 1103 0092 8021     		movs	r1, #128
 1104 0094 0902     		lsls	r1, r1, #8
 1105 0096 0A43     		orrs	r2, r1
 1106 0098 5A64     		str	r2, [r3, #68]
 596:cube/Drivers/STM32F0xx_HAL_Driver/Src/stm32f0xx_hal_tim_ex.c **** 
 597:cube/Drivers/STM32F0xx_HAL_Driver/Src/stm32f0xx_hal_tim_ex.c ****   /* Enable the Peripheral */
 598:cube/Drivers/STM32F0xx_HAL_Driver/Src/stm32f0xx_hal_tim_ex.c ****   __HAL_TIM_ENABLE(htim);
 1107              		.loc 1 598 0
 1108 009a 7B68     		ldr	r3, [r7, #4]
 1109 009c 1B68     		ldr	r3, [r3]
 1110 009e 1A68     		ldr	r2, [r3]
 1111 00a0 7B68     		ldr	r3, [r7, #4]
 1112 00a2 1B68     		ldr	r3, [r3]
 1113 00a4 0121     		movs	r1, #1
 1114 00a6 0A43     		orrs	r2, r1
 1115 00a8 1A60     		str	r2, [r3]
 599:cube/Drivers/STM32F0xx_HAL_Driver/Src/stm32f0xx_hal_tim_ex.c **** 
 600:cube/Drivers/STM32F0xx_HAL_Driver/Src/stm32f0xx_hal_tim_ex.c ****   /* Return function status */
 601:cube/Drivers/STM32F0xx_HAL_Driver/Src/stm32f0xx_hal_tim_ex.c ****   return HAL_OK;
 1116              		.loc 1 601 0
 1117 00aa 0023     		movs	r3, #0
 602:cube/Drivers/STM32F0xx_HAL_Driver/Src/stm32f0xx_hal_tim_ex.c **** }
 1118              		.loc 1 602 0
 1119 00ac 1800     		movs	r0, r3
 1120 00ae BD46     		mov	sp, r7
 1121 00b0 02B0     		add	sp, sp, #8
 1122              		@ sp needed
 1123 00b2 80BD     		pop	{r7, pc}
 1124              		.cfi_endproc
ARM GAS  /tmp/ccpevmba.s 			page 31


 1125              	.LFE49:
 1127              		.section	.text.HAL_TIMEx_OCN_Stop_IT,"ax",%progbits
 1128              		.align	1
 1129              		.global	HAL_TIMEx_OCN_Stop_IT
 1130              		.syntax unified
 1131              		.code	16
 1132              		.thumb_func
 1133              		.fpu softvfp
 1135              	HAL_TIMEx_OCN_Stop_IT:
 1136              	.LFB50:
 603:cube/Drivers/STM32F0xx_HAL_Driver/Src/stm32f0xx_hal_tim_ex.c **** 
 604:cube/Drivers/STM32F0xx_HAL_Driver/Src/stm32f0xx_hal_tim_ex.c **** /**
 605:cube/Drivers/STM32F0xx_HAL_Driver/Src/stm32f0xx_hal_tim_ex.c ****   * @brief  Stops the TIM Output Compare signal generation in interrupt mode 
 606:cube/Drivers/STM32F0xx_HAL_Driver/Src/stm32f0xx_hal_tim_ex.c ****   *         on the complementary output.
 607:cube/Drivers/STM32F0xx_HAL_Driver/Src/stm32f0xx_hal_tim_ex.c ****   * @param  htim TIM Output Compare handle
 608:cube/Drivers/STM32F0xx_HAL_Driver/Src/stm32f0xx_hal_tim_ex.c ****   * @param  Channel TIM Channel to be disabled
 609:cube/Drivers/STM32F0xx_HAL_Driver/Src/stm32f0xx_hal_tim_ex.c ****   *          This parameter can be one of the following values:
 610:cube/Drivers/STM32F0xx_HAL_Driver/Src/stm32f0xx_hal_tim_ex.c ****   *            @arg TIM_CHANNEL_1: TIM Channel 1 selected
 611:cube/Drivers/STM32F0xx_HAL_Driver/Src/stm32f0xx_hal_tim_ex.c ****   *            @arg TIM_CHANNEL_2: TIM Channel 2 selected
 612:cube/Drivers/STM32F0xx_HAL_Driver/Src/stm32f0xx_hal_tim_ex.c ****   *            @arg TIM_CHANNEL_3: TIM Channel 3 selected
 613:cube/Drivers/STM32F0xx_HAL_Driver/Src/stm32f0xx_hal_tim_ex.c ****   *            @arg TIM_CHANNEL_4: TIM Channel 4 selected
 614:cube/Drivers/STM32F0xx_HAL_Driver/Src/stm32f0xx_hal_tim_ex.c ****   * @retval HAL status
 615:cube/Drivers/STM32F0xx_HAL_Driver/Src/stm32f0xx_hal_tim_ex.c ****   */
 616:cube/Drivers/STM32F0xx_HAL_Driver/Src/stm32f0xx_hal_tim_ex.c **** HAL_StatusTypeDef HAL_TIMEx_OCN_Stop_IT(TIM_HandleTypeDef *htim, uint32_t Channel)
 617:cube/Drivers/STM32F0xx_HAL_Driver/Src/stm32f0xx_hal_tim_ex.c **** {
 1137              		.loc 1 617 0
 1138              		.cfi_startproc
 1139              		@ args = 0, pretend = 0, frame = 16
 1140              		@ frame_needed = 1, uses_anonymous_args = 0
 1141 0000 80B5     		push	{r7, lr}
 1142              		.cfi_def_cfa_offset 8
 1143              		.cfi_offset 7, -8
 1144              		.cfi_offset 14, -4
 1145 0002 84B0     		sub	sp, sp, #16
 1146              		.cfi_def_cfa_offset 24
 1147 0004 00AF     		add	r7, sp, #0
 1148              		.cfi_def_cfa_register 7
 1149 0006 7860     		str	r0, [r7, #4]
 1150 0008 3960     		str	r1, [r7]
 618:cube/Drivers/STM32F0xx_HAL_Driver/Src/stm32f0xx_hal_tim_ex.c ****   uint32_t tmpccer = 0U;
 1151              		.loc 1 618 0
 1152 000a 0023     		movs	r3, #0
 1153 000c FB60     		str	r3, [r7, #12]
 619:cube/Drivers/STM32F0xx_HAL_Driver/Src/stm32f0xx_hal_tim_ex.c **** 
 620:cube/Drivers/STM32F0xx_HAL_Driver/Src/stm32f0xx_hal_tim_ex.c ****   /* Check the parameters */
 621:cube/Drivers/STM32F0xx_HAL_Driver/Src/stm32f0xx_hal_tim_ex.c ****   assert_param(IS_TIM_CCXN_INSTANCE(htim->Instance, Channel));
 622:cube/Drivers/STM32F0xx_HAL_Driver/Src/stm32f0xx_hal_tim_ex.c **** 
 623:cube/Drivers/STM32F0xx_HAL_Driver/Src/stm32f0xx_hal_tim_ex.c ****   switch (Channel)
 1154              		.loc 1 623 0
 1155 000e 3B68     		ldr	r3, [r7]
 1156 0010 042B     		cmp	r3, #4
 1157 0012 11D0     		beq	.L58
 1158 0014 02D8     		bhi	.L59
 1159 0016 002B     		cmp	r3, #0
 1160 0018 05D0     		beq	.L60
 624:cube/Drivers/STM32F0xx_HAL_Driver/Src/stm32f0xx_hal_tim_ex.c ****   {
 625:cube/Drivers/STM32F0xx_HAL_Driver/Src/stm32f0xx_hal_tim_ex.c ****     case TIM_CHANNEL_1:
ARM GAS  /tmp/ccpevmba.s 			page 32


 626:cube/Drivers/STM32F0xx_HAL_Driver/Src/stm32f0xx_hal_tim_ex.c ****     {
 627:cube/Drivers/STM32F0xx_HAL_Driver/Src/stm32f0xx_hal_tim_ex.c ****       /* Disable the TIM Output Compare interrupt */
 628:cube/Drivers/STM32F0xx_HAL_Driver/Src/stm32f0xx_hal_tim_ex.c ****       __HAL_TIM_DISABLE_IT(htim, TIM_IT_CC1);
 629:cube/Drivers/STM32F0xx_HAL_Driver/Src/stm32f0xx_hal_tim_ex.c ****     }
 630:cube/Drivers/STM32F0xx_HAL_Driver/Src/stm32f0xx_hal_tim_ex.c ****     break;
 631:cube/Drivers/STM32F0xx_HAL_Driver/Src/stm32f0xx_hal_tim_ex.c **** 
 632:cube/Drivers/STM32F0xx_HAL_Driver/Src/stm32f0xx_hal_tim_ex.c ****     case TIM_CHANNEL_2:
 633:cube/Drivers/STM32F0xx_HAL_Driver/Src/stm32f0xx_hal_tim_ex.c ****     {
 634:cube/Drivers/STM32F0xx_HAL_Driver/Src/stm32f0xx_hal_tim_ex.c ****       /* Disable the TIM Output Compare interrupt */
 635:cube/Drivers/STM32F0xx_HAL_Driver/Src/stm32f0xx_hal_tim_ex.c ****       __HAL_TIM_DISABLE_IT(htim, TIM_IT_CC2);
 636:cube/Drivers/STM32F0xx_HAL_Driver/Src/stm32f0xx_hal_tim_ex.c ****     }
 637:cube/Drivers/STM32F0xx_HAL_Driver/Src/stm32f0xx_hal_tim_ex.c ****     break;
 638:cube/Drivers/STM32F0xx_HAL_Driver/Src/stm32f0xx_hal_tim_ex.c **** 
 639:cube/Drivers/STM32F0xx_HAL_Driver/Src/stm32f0xx_hal_tim_ex.c ****     case TIM_CHANNEL_3:
 640:cube/Drivers/STM32F0xx_HAL_Driver/Src/stm32f0xx_hal_tim_ex.c ****     {
 641:cube/Drivers/STM32F0xx_HAL_Driver/Src/stm32f0xx_hal_tim_ex.c ****       /* Disable the TIM Output Compare interrupt */
 642:cube/Drivers/STM32F0xx_HAL_Driver/Src/stm32f0xx_hal_tim_ex.c ****       __HAL_TIM_DISABLE_IT(htim, TIM_IT_CC3);
 643:cube/Drivers/STM32F0xx_HAL_Driver/Src/stm32f0xx_hal_tim_ex.c ****     }
 644:cube/Drivers/STM32F0xx_HAL_Driver/Src/stm32f0xx_hal_tim_ex.c ****     break;
 645:cube/Drivers/STM32F0xx_HAL_Driver/Src/stm32f0xx_hal_tim_ex.c **** 
 646:cube/Drivers/STM32F0xx_HAL_Driver/Src/stm32f0xx_hal_tim_ex.c ****     case TIM_CHANNEL_4:
 647:cube/Drivers/STM32F0xx_HAL_Driver/Src/stm32f0xx_hal_tim_ex.c ****     {
 648:cube/Drivers/STM32F0xx_HAL_Driver/Src/stm32f0xx_hal_tim_ex.c ****       /* Disable the TIM Output Compare interrupt */
 649:cube/Drivers/STM32F0xx_HAL_Driver/Src/stm32f0xx_hal_tim_ex.c ****       __HAL_TIM_DISABLE_IT(htim, TIM_IT_CC4);
 650:cube/Drivers/STM32F0xx_HAL_Driver/Src/stm32f0xx_hal_tim_ex.c ****     }
 651:cube/Drivers/STM32F0xx_HAL_Driver/Src/stm32f0xx_hal_tim_ex.c ****     break;
 652:cube/Drivers/STM32F0xx_HAL_Driver/Src/stm32f0xx_hal_tim_ex.c **** 
 653:cube/Drivers/STM32F0xx_HAL_Driver/Src/stm32f0xx_hal_tim_ex.c ****     default:
 654:cube/Drivers/STM32F0xx_HAL_Driver/Src/stm32f0xx_hal_tim_ex.c ****     break;
 1161              		.loc 1 654 0
 1162 001a 28E0     		b	.L63
 1163              	.L59:
 623:cube/Drivers/STM32F0xx_HAL_Driver/Src/stm32f0xx_hal_tim_ex.c ****   {
 1164              		.loc 1 623 0
 1165 001c 082B     		cmp	r3, #8
 1166 001e 14D0     		beq	.L61
 1167 0020 0C2B     		cmp	r3, #12
 1168 0022 1BD0     		beq	.L62
 1169              		.loc 1 654 0
 1170 0024 23E0     		b	.L63
 1171              	.L60:
 628:cube/Drivers/STM32F0xx_HAL_Driver/Src/stm32f0xx_hal_tim_ex.c ****     }
 1172              		.loc 1 628 0
 1173 0026 7B68     		ldr	r3, [r7, #4]
 1174 0028 1B68     		ldr	r3, [r3]
 1175 002a DA68     		ldr	r2, [r3, #12]
 1176 002c 7B68     		ldr	r3, [r7, #4]
 1177 002e 1B68     		ldr	r3, [r3]
 1178 0030 0221     		movs	r1, #2
 1179 0032 8A43     		bics	r2, r1
 1180 0034 DA60     		str	r2, [r3, #12]
 630:cube/Drivers/STM32F0xx_HAL_Driver/Src/stm32f0xx_hal_tim_ex.c **** 
 1181              		.loc 1 630 0
 1182 0036 1AE0     		b	.L63
 1183              	.L58:
 635:cube/Drivers/STM32F0xx_HAL_Driver/Src/stm32f0xx_hal_tim_ex.c ****     }
 1184              		.loc 1 635 0
ARM GAS  /tmp/ccpevmba.s 			page 33


 1185 0038 7B68     		ldr	r3, [r7, #4]
 1186 003a 1B68     		ldr	r3, [r3]
 1187 003c DA68     		ldr	r2, [r3, #12]
 1188 003e 7B68     		ldr	r3, [r7, #4]
 1189 0040 1B68     		ldr	r3, [r3]
 1190 0042 0421     		movs	r1, #4
 1191 0044 8A43     		bics	r2, r1
 1192 0046 DA60     		str	r2, [r3, #12]
 637:cube/Drivers/STM32F0xx_HAL_Driver/Src/stm32f0xx_hal_tim_ex.c **** 
 1193              		.loc 1 637 0
 1194 0048 11E0     		b	.L63
 1195              	.L61:
 642:cube/Drivers/STM32F0xx_HAL_Driver/Src/stm32f0xx_hal_tim_ex.c ****     }
 1196              		.loc 1 642 0
 1197 004a 7B68     		ldr	r3, [r7, #4]
 1198 004c 1B68     		ldr	r3, [r3]
 1199 004e DA68     		ldr	r2, [r3, #12]
 1200 0050 7B68     		ldr	r3, [r7, #4]
 1201 0052 1B68     		ldr	r3, [r3]
 1202 0054 0821     		movs	r1, #8
 1203 0056 8A43     		bics	r2, r1
 1204 0058 DA60     		str	r2, [r3, #12]
 644:cube/Drivers/STM32F0xx_HAL_Driver/Src/stm32f0xx_hal_tim_ex.c **** 
 1205              		.loc 1 644 0
 1206 005a 08E0     		b	.L63
 1207              	.L62:
 649:cube/Drivers/STM32F0xx_HAL_Driver/Src/stm32f0xx_hal_tim_ex.c ****     }
 1208              		.loc 1 649 0
 1209 005c 7B68     		ldr	r3, [r7, #4]
 1210 005e 1B68     		ldr	r3, [r3]
 1211 0060 DA68     		ldr	r2, [r3, #12]
 1212 0062 7B68     		ldr	r3, [r7, #4]
 1213 0064 1B68     		ldr	r3, [r3]
 1214 0066 1021     		movs	r1, #16
 1215 0068 8A43     		bics	r2, r1
 1216 006a DA60     		str	r2, [r3, #12]
 651:cube/Drivers/STM32F0xx_HAL_Driver/Src/stm32f0xx_hal_tim_ex.c **** 
 1217              		.loc 1 651 0
 1218 006c C046     		nop
 1219              	.L63:
 655:cube/Drivers/STM32F0xx_HAL_Driver/Src/stm32f0xx_hal_tim_ex.c ****   }
 656:cube/Drivers/STM32F0xx_HAL_Driver/Src/stm32f0xx_hal_tim_ex.c **** 
 657:cube/Drivers/STM32F0xx_HAL_Driver/Src/stm32f0xx_hal_tim_ex.c ****      /* Disable the Capture compare channel N */
 658:cube/Drivers/STM32F0xx_HAL_Driver/Src/stm32f0xx_hal_tim_ex.c ****      TIM_CCxNChannelCmd(htim->Instance, Channel, TIM_CCxN_DISABLE);
 1220              		.loc 1 658 0
 1221 006e 7B68     		ldr	r3, [r7, #4]
 1222 0070 1B68     		ldr	r3, [r3]
 1223 0072 3968     		ldr	r1, [r7]
 1224 0074 0022     		movs	r2, #0
 1225 0076 1800     		movs	r0, r3
 1226 0078 FFF7FEFF 		bl	TIM_CCxNChannelCmd
 659:cube/Drivers/STM32F0xx_HAL_Driver/Src/stm32f0xx_hal_tim_ex.c **** 
 660:cube/Drivers/STM32F0xx_HAL_Driver/Src/stm32f0xx_hal_tim_ex.c ****   /* Disable the TIM Break interrupt (only if no more channel is active) */
 661:cube/Drivers/STM32F0xx_HAL_Driver/Src/stm32f0xx_hal_tim_ex.c ****   tmpccer = htim->Instance->CCER;
 1227              		.loc 1 661 0
 1228 007c 7B68     		ldr	r3, [r7, #4]
 1229 007e 1B68     		ldr	r3, [r3]
ARM GAS  /tmp/ccpevmba.s 			page 34


 1230 0080 1B6A     		ldr	r3, [r3, #32]
 1231 0082 FB60     		str	r3, [r7, #12]
 662:cube/Drivers/STM32F0xx_HAL_Driver/Src/stm32f0xx_hal_tim_ex.c ****   if ((tmpccer & (TIM_CCER_CC1NE | TIM_CCER_CC2NE | TIM_CCER_CC3NE)) == RESET)
 1232              		.loc 1 662 0
 1233 0084 FB68     		ldr	r3, [r7, #12]
 1234 0086 1C4A     		ldr	r2, .L68
 1235 0088 1340     		ands	r3, r2
 1236 008a 07D1     		bne	.L64
 663:cube/Drivers/STM32F0xx_HAL_Driver/Src/stm32f0xx_hal_tim_ex.c ****   {
 664:cube/Drivers/STM32F0xx_HAL_Driver/Src/stm32f0xx_hal_tim_ex.c ****     __HAL_TIM_DISABLE_IT(htim, TIM_IT_BREAK);
 1237              		.loc 1 664 0
 1238 008c 7B68     		ldr	r3, [r7, #4]
 1239 008e 1B68     		ldr	r3, [r3]
 1240 0090 DA68     		ldr	r2, [r3, #12]
 1241 0092 7B68     		ldr	r3, [r7, #4]
 1242 0094 1B68     		ldr	r3, [r3]
 1243 0096 8021     		movs	r1, #128
 1244 0098 8A43     		bics	r2, r1
 1245 009a DA60     		str	r2, [r3, #12]
 1246              	.L64:
 665:cube/Drivers/STM32F0xx_HAL_Driver/Src/stm32f0xx_hal_tim_ex.c ****   }
 666:cube/Drivers/STM32F0xx_HAL_Driver/Src/stm32f0xx_hal_tim_ex.c **** 
 667:cube/Drivers/STM32F0xx_HAL_Driver/Src/stm32f0xx_hal_tim_ex.c ****   /* Disable the Main Ouput */
 668:cube/Drivers/STM32F0xx_HAL_Driver/Src/stm32f0xx_hal_tim_ex.c ****     __HAL_TIM_MOE_DISABLE(htim);
 1247              		.loc 1 668 0
 1248 009c 7B68     		ldr	r3, [r7, #4]
 1249 009e 1B68     		ldr	r3, [r3]
 1250 00a0 1B6A     		ldr	r3, [r3, #32]
 1251 00a2 164A     		ldr	r2, .L68+4
 1252 00a4 1340     		ands	r3, r2
 1253 00a6 0DD1     		bne	.L65
 1254              		.loc 1 668 0 is_stmt 0 discriminator 1
 1255 00a8 7B68     		ldr	r3, [r7, #4]
 1256 00aa 1B68     		ldr	r3, [r3]
 1257 00ac 1B6A     		ldr	r3, [r3, #32]
 1258 00ae 124A     		ldr	r2, .L68
 1259 00b0 1340     		ands	r3, r2
 1260 00b2 07D1     		bne	.L65
 1261              		.loc 1 668 0 discriminator 2
 1262 00b4 7B68     		ldr	r3, [r7, #4]
 1263 00b6 1B68     		ldr	r3, [r3]
 1264 00b8 5A6C     		ldr	r2, [r3, #68]
 1265 00ba 7B68     		ldr	r3, [r7, #4]
 1266 00bc 1B68     		ldr	r3, [r3]
 1267 00be 1049     		ldr	r1, .L68+8
 1268 00c0 0A40     		ands	r2, r1
 1269 00c2 5A64     		str	r2, [r3, #68]
 1270              	.L65:
 669:cube/Drivers/STM32F0xx_HAL_Driver/Src/stm32f0xx_hal_tim_ex.c **** 
 670:cube/Drivers/STM32F0xx_HAL_Driver/Src/stm32f0xx_hal_tim_ex.c ****   /* Disable the Peripheral */
 671:cube/Drivers/STM32F0xx_HAL_Driver/Src/stm32f0xx_hal_tim_ex.c ****   __HAL_TIM_DISABLE(htim);
 1271              		.loc 1 671 0 is_stmt 1
 1272 00c4 7B68     		ldr	r3, [r7, #4]
 1273 00c6 1B68     		ldr	r3, [r3]
 1274 00c8 1B6A     		ldr	r3, [r3, #32]
 1275 00ca 0C4A     		ldr	r2, .L68+4
 1276 00cc 1340     		ands	r3, r2
ARM GAS  /tmp/ccpevmba.s 			page 35


 1277 00ce 0DD1     		bne	.L66
 1278              		.loc 1 671 0 is_stmt 0 discriminator 1
 1279 00d0 7B68     		ldr	r3, [r7, #4]
 1280 00d2 1B68     		ldr	r3, [r3]
 1281 00d4 1B6A     		ldr	r3, [r3, #32]
 1282 00d6 084A     		ldr	r2, .L68
 1283 00d8 1340     		ands	r3, r2
 1284 00da 07D1     		bne	.L66
 1285              		.loc 1 671 0 discriminator 2
 1286 00dc 7B68     		ldr	r3, [r7, #4]
 1287 00de 1B68     		ldr	r3, [r3]
 1288 00e0 1A68     		ldr	r2, [r3]
 1289 00e2 7B68     		ldr	r3, [r7, #4]
 1290 00e4 1B68     		ldr	r3, [r3]
 1291 00e6 0121     		movs	r1, #1
 1292 00e8 8A43     		bics	r2, r1
 1293 00ea 1A60     		str	r2, [r3]
 1294              	.L66:
 672:cube/Drivers/STM32F0xx_HAL_Driver/Src/stm32f0xx_hal_tim_ex.c **** 
 673:cube/Drivers/STM32F0xx_HAL_Driver/Src/stm32f0xx_hal_tim_ex.c ****   /* Return function status */
 674:cube/Drivers/STM32F0xx_HAL_Driver/Src/stm32f0xx_hal_tim_ex.c ****   return HAL_OK;
 1295              		.loc 1 674 0 is_stmt 1
 1296 00ec 0023     		movs	r3, #0
 675:cube/Drivers/STM32F0xx_HAL_Driver/Src/stm32f0xx_hal_tim_ex.c **** }
 1297              		.loc 1 675 0
 1298 00ee 1800     		movs	r0, r3
 1299 00f0 BD46     		mov	sp, r7
 1300 00f2 04B0     		add	sp, sp, #16
 1301              		@ sp needed
 1302 00f4 80BD     		pop	{r7, pc}
 1303              	.L69:
 1304 00f6 C046     		.align	2
 1305              	.L68:
 1306 00f8 44040000 		.word	1092
 1307 00fc 11110000 		.word	4369
 1308 0100 FF7FFFFF 		.word	-32769
 1309              		.cfi_endproc
 1310              	.LFE50:
 1312              		.section	.text.HAL_TIMEx_OCN_Start_DMA,"ax",%progbits
 1313              		.align	1
 1314              		.global	HAL_TIMEx_OCN_Start_DMA
 1315              		.syntax unified
 1316              		.code	16
 1317              		.thumb_func
 1318              		.fpu softvfp
 1320              	HAL_TIMEx_OCN_Start_DMA:
 1321              	.LFB51:
 676:cube/Drivers/STM32F0xx_HAL_Driver/Src/stm32f0xx_hal_tim_ex.c **** 
 677:cube/Drivers/STM32F0xx_HAL_Driver/Src/stm32f0xx_hal_tim_ex.c **** /**
 678:cube/Drivers/STM32F0xx_HAL_Driver/Src/stm32f0xx_hal_tim_ex.c ****   * @brief  Starts the TIM Output Compare signal generation in DMA mode 
 679:cube/Drivers/STM32F0xx_HAL_Driver/Src/stm32f0xx_hal_tim_ex.c ****   *         on the complementary output.
 680:cube/Drivers/STM32F0xx_HAL_Driver/Src/stm32f0xx_hal_tim_ex.c ****   * @param  htim TIM Output Compare handle
 681:cube/Drivers/STM32F0xx_HAL_Driver/Src/stm32f0xx_hal_tim_ex.c ****   * @param  Channel TIM Channel to be enabled
 682:cube/Drivers/STM32F0xx_HAL_Driver/Src/stm32f0xx_hal_tim_ex.c ****   *          This parameter can be one of the following values:
 683:cube/Drivers/STM32F0xx_HAL_Driver/Src/stm32f0xx_hal_tim_ex.c ****   *            @arg TIM_CHANNEL_1: TIM Channel 1 selected
 684:cube/Drivers/STM32F0xx_HAL_Driver/Src/stm32f0xx_hal_tim_ex.c ****   *            @arg TIM_CHANNEL_2: TIM Channel 2 selected
 685:cube/Drivers/STM32F0xx_HAL_Driver/Src/stm32f0xx_hal_tim_ex.c ****   *            @arg TIM_CHANNEL_3: TIM Channel 3 selected
ARM GAS  /tmp/ccpevmba.s 			page 36


 686:cube/Drivers/STM32F0xx_HAL_Driver/Src/stm32f0xx_hal_tim_ex.c ****   *            @arg TIM_CHANNEL_4: TIM Channel 4 selected
 687:cube/Drivers/STM32F0xx_HAL_Driver/Src/stm32f0xx_hal_tim_ex.c ****   * @param  pData The source Buffer address.
 688:cube/Drivers/STM32F0xx_HAL_Driver/Src/stm32f0xx_hal_tim_ex.c ****   * @param  Length The length of data to be transferred from memory to TIM peripheral
 689:cube/Drivers/STM32F0xx_HAL_Driver/Src/stm32f0xx_hal_tim_ex.c ****   * @retval HAL status
 690:cube/Drivers/STM32F0xx_HAL_Driver/Src/stm32f0xx_hal_tim_ex.c ****   */
 691:cube/Drivers/STM32F0xx_HAL_Driver/Src/stm32f0xx_hal_tim_ex.c **** HAL_StatusTypeDef HAL_TIMEx_OCN_Start_DMA(TIM_HandleTypeDef *htim, uint32_t Channel, uint32_t *pDat
 692:cube/Drivers/STM32F0xx_HAL_Driver/Src/stm32f0xx_hal_tim_ex.c **** {
 1322              		.loc 1 692 0
 1323              		.cfi_startproc
 1324              		@ args = 0, pretend = 0, frame = 16
 1325              		@ frame_needed = 1, uses_anonymous_args = 0
 1326 0000 80B5     		push	{r7, lr}
 1327              		.cfi_def_cfa_offset 8
 1328              		.cfi_offset 7, -8
 1329              		.cfi_offset 14, -4
 1330 0002 84B0     		sub	sp, sp, #16
 1331              		.cfi_def_cfa_offset 24
 1332 0004 00AF     		add	r7, sp, #0
 1333              		.cfi_def_cfa_register 7
 1334 0006 F860     		str	r0, [r7, #12]
 1335 0008 B960     		str	r1, [r7, #8]
 1336 000a 7A60     		str	r2, [r7, #4]
 1337 000c 1A00     		movs	r2, r3
 1338 000e BB1C     		adds	r3, r7, #2
 1339 0010 1A80     		strh	r2, [r3]
 693:cube/Drivers/STM32F0xx_HAL_Driver/Src/stm32f0xx_hal_tim_ex.c ****   /* Check the parameters */
 694:cube/Drivers/STM32F0xx_HAL_Driver/Src/stm32f0xx_hal_tim_ex.c ****   assert_param(IS_TIM_CCXN_INSTANCE(htim->Instance, Channel));
 695:cube/Drivers/STM32F0xx_HAL_Driver/Src/stm32f0xx_hal_tim_ex.c **** 
 696:cube/Drivers/STM32F0xx_HAL_Driver/Src/stm32f0xx_hal_tim_ex.c ****   if((htim->State == HAL_TIM_STATE_BUSY))
 1340              		.loc 1 696 0
 1341 0012 FB68     		ldr	r3, [r7, #12]
 1342 0014 3D22     		movs	r2, #61
 1343 0016 9B5C     		ldrb	r3, [r3, r2]
 1344 0018 DBB2     		uxtb	r3, r3
 1345 001a 022B     		cmp	r3, #2
 1346 001c 01D1     		bne	.L71
 697:cube/Drivers/STM32F0xx_HAL_Driver/Src/stm32f0xx_hal_tim_ex.c ****   {
 698:cube/Drivers/STM32F0xx_HAL_Driver/Src/stm32f0xx_hal_tim_ex.c ****      return HAL_BUSY;
 1347              		.loc 1 698 0
 1348 001e 0223     		movs	r3, #2
 1349 0020 ABE0     		b	.L72
 1350              	.L71:
 699:cube/Drivers/STM32F0xx_HAL_Driver/Src/stm32f0xx_hal_tim_ex.c ****   }
 700:cube/Drivers/STM32F0xx_HAL_Driver/Src/stm32f0xx_hal_tim_ex.c ****   else if((htim->State == HAL_TIM_STATE_READY))
 1351              		.loc 1 700 0
 1352 0022 FB68     		ldr	r3, [r7, #12]
 1353 0024 3D22     		movs	r2, #61
 1354 0026 9B5C     		ldrb	r3, [r3, r2]
 1355 0028 DBB2     		uxtb	r3, r3
 1356 002a 012B     		cmp	r3, #1
 1357 002c 0CD1     		bne	.L73
 701:cube/Drivers/STM32F0xx_HAL_Driver/Src/stm32f0xx_hal_tim_ex.c ****   {
 702:cube/Drivers/STM32F0xx_HAL_Driver/Src/stm32f0xx_hal_tim_ex.c ****     if(((uint32_t)pData == 0U ) && (Length > 0U))
 1358              		.loc 1 702 0
 1359 002e 7B68     		ldr	r3, [r7, #4]
 1360 0030 002B     		cmp	r3, #0
 1361 0032 05D1     		bne	.L74
ARM GAS  /tmp/ccpevmba.s 			page 37


 1362              		.loc 1 702 0 is_stmt 0 discriminator 1
 1363 0034 BB1C     		adds	r3, r7, #2
 1364 0036 1B88     		ldrh	r3, [r3]
 1365 0038 002B     		cmp	r3, #0
 1366 003a 01D0     		beq	.L74
 703:cube/Drivers/STM32F0xx_HAL_Driver/Src/stm32f0xx_hal_tim_ex.c ****     {
 704:cube/Drivers/STM32F0xx_HAL_Driver/Src/stm32f0xx_hal_tim_ex.c ****       return HAL_ERROR;
 1367              		.loc 1 704 0 is_stmt 1
 1368 003c 0123     		movs	r3, #1
 1369 003e 9CE0     		b	.L72
 1370              	.L74:
 705:cube/Drivers/STM32F0xx_HAL_Driver/Src/stm32f0xx_hal_tim_ex.c ****     }
 706:cube/Drivers/STM32F0xx_HAL_Driver/Src/stm32f0xx_hal_tim_ex.c ****     else
 707:cube/Drivers/STM32F0xx_HAL_Driver/Src/stm32f0xx_hal_tim_ex.c ****     {
 708:cube/Drivers/STM32F0xx_HAL_Driver/Src/stm32f0xx_hal_tim_ex.c ****       htim->State = HAL_TIM_STATE_BUSY;
 1371              		.loc 1 708 0
 1372 0040 FB68     		ldr	r3, [r7, #12]
 1373 0042 3D22     		movs	r2, #61
 1374 0044 0221     		movs	r1, #2
 1375 0046 9954     		strb	r1, [r3, r2]
 1376              	.L73:
 709:cube/Drivers/STM32F0xx_HAL_Driver/Src/stm32f0xx_hal_tim_ex.c ****     }
 710:cube/Drivers/STM32F0xx_HAL_Driver/Src/stm32f0xx_hal_tim_ex.c ****   }
 711:cube/Drivers/STM32F0xx_HAL_Driver/Src/stm32f0xx_hal_tim_ex.c ****   switch (Channel)
 1377              		.loc 1 711 0
 1378 0048 BB68     		ldr	r3, [r7, #8]
 1379 004a 042B     		cmp	r3, #4
 1380 004c 25D0     		beq	.L76
 1381 004e 02D8     		bhi	.L77
 1382 0050 002B     		cmp	r3, #0
 1383 0052 05D0     		beq	.L78
 712:cube/Drivers/STM32F0xx_HAL_Driver/Src/stm32f0xx_hal_tim_ex.c ****   {
 713:cube/Drivers/STM32F0xx_HAL_Driver/Src/stm32f0xx_hal_tim_ex.c ****     case TIM_CHANNEL_1:
 714:cube/Drivers/STM32F0xx_HAL_Driver/Src/stm32f0xx_hal_tim_ex.c ****     {
 715:cube/Drivers/STM32F0xx_HAL_Driver/Src/stm32f0xx_hal_tim_ex.c ****       /* Set the DMA Period elapsed callback */
 716:cube/Drivers/STM32F0xx_HAL_Driver/Src/stm32f0xx_hal_tim_ex.c ****       htim->hdma[TIM_DMA_ID_CC1]->XferCpltCallback = TIM_DMADelayPulseCplt;
 717:cube/Drivers/STM32F0xx_HAL_Driver/Src/stm32f0xx_hal_tim_ex.c **** 
 718:cube/Drivers/STM32F0xx_HAL_Driver/Src/stm32f0xx_hal_tim_ex.c ****       /* Set the DMA error callback */
 719:cube/Drivers/STM32F0xx_HAL_Driver/Src/stm32f0xx_hal_tim_ex.c ****       htim->hdma[TIM_DMA_ID_CC1]->XferErrorCallback = TIM_DMAError ;
 720:cube/Drivers/STM32F0xx_HAL_Driver/Src/stm32f0xx_hal_tim_ex.c **** 
 721:cube/Drivers/STM32F0xx_HAL_Driver/Src/stm32f0xx_hal_tim_ex.c ****       /* Enable the DMA channel */
 722:cube/Drivers/STM32F0xx_HAL_Driver/Src/stm32f0xx_hal_tim_ex.c ****       HAL_DMA_Start_IT(htim->hdma[TIM_DMA_ID_CC1], (uint32_t)pData, (uint32_t)&htim->Instance->CCR1
 723:cube/Drivers/STM32F0xx_HAL_Driver/Src/stm32f0xx_hal_tim_ex.c **** 
 724:cube/Drivers/STM32F0xx_HAL_Driver/Src/stm32f0xx_hal_tim_ex.c ****       /* Enable the TIM Output Compare DMA request */
 725:cube/Drivers/STM32F0xx_HAL_Driver/Src/stm32f0xx_hal_tim_ex.c ****       __HAL_TIM_ENABLE_DMA(htim, TIM_DMA_CC1);
 726:cube/Drivers/STM32F0xx_HAL_Driver/Src/stm32f0xx_hal_tim_ex.c ****     }
 727:cube/Drivers/STM32F0xx_HAL_Driver/Src/stm32f0xx_hal_tim_ex.c ****     break;
 728:cube/Drivers/STM32F0xx_HAL_Driver/Src/stm32f0xx_hal_tim_ex.c **** 
 729:cube/Drivers/STM32F0xx_HAL_Driver/Src/stm32f0xx_hal_tim_ex.c ****     case TIM_CHANNEL_2:
 730:cube/Drivers/STM32F0xx_HAL_Driver/Src/stm32f0xx_hal_tim_ex.c ****     {
 731:cube/Drivers/STM32F0xx_HAL_Driver/Src/stm32f0xx_hal_tim_ex.c ****       /* Set the DMA Period elapsed callback */
 732:cube/Drivers/STM32F0xx_HAL_Driver/Src/stm32f0xx_hal_tim_ex.c ****       htim->hdma[TIM_DMA_ID_CC2]->XferCpltCallback = TIM_DMADelayPulseCplt;
 733:cube/Drivers/STM32F0xx_HAL_Driver/Src/stm32f0xx_hal_tim_ex.c **** 
 734:cube/Drivers/STM32F0xx_HAL_Driver/Src/stm32f0xx_hal_tim_ex.c ****       /* Set the DMA error callback */
 735:cube/Drivers/STM32F0xx_HAL_Driver/Src/stm32f0xx_hal_tim_ex.c ****       htim->hdma[TIM_DMA_ID_CC2]->XferErrorCallback = TIM_DMAError ;
 736:cube/Drivers/STM32F0xx_HAL_Driver/Src/stm32f0xx_hal_tim_ex.c **** 
 737:cube/Drivers/STM32F0xx_HAL_Driver/Src/stm32f0xx_hal_tim_ex.c ****       /* Enable the DMA channel */
ARM GAS  /tmp/ccpevmba.s 			page 38


 738:cube/Drivers/STM32F0xx_HAL_Driver/Src/stm32f0xx_hal_tim_ex.c ****       HAL_DMA_Start_IT(htim->hdma[TIM_DMA_ID_CC2], (uint32_t)pData, (uint32_t)&htim->Instance->CCR2
 739:cube/Drivers/STM32F0xx_HAL_Driver/Src/stm32f0xx_hal_tim_ex.c **** 
 740:cube/Drivers/STM32F0xx_HAL_Driver/Src/stm32f0xx_hal_tim_ex.c ****       /* Enable the TIM Output Compare DMA request */
 741:cube/Drivers/STM32F0xx_HAL_Driver/Src/stm32f0xx_hal_tim_ex.c ****       __HAL_TIM_ENABLE_DMA(htim, TIM_DMA_CC2);
 742:cube/Drivers/STM32F0xx_HAL_Driver/Src/stm32f0xx_hal_tim_ex.c ****     }
 743:cube/Drivers/STM32F0xx_HAL_Driver/Src/stm32f0xx_hal_tim_ex.c ****     break;
 744:cube/Drivers/STM32F0xx_HAL_Driver/Src/stm32f0xx_hal_tim_ex.c **** 
 745:cube/Drivers/STM32F0xx_HAL_Driver/Src/stm32f0xx_hal_tim_ex.c ****     case TIM_CHANNEL_3:
 746:cube/Drivers/STM32F0xx_HAL_Driver/Src/stm32f0xx_hal_tim_ex.c **** {
 747:cube/Drivers/STM32F0xx_HAL_Driver/Src/stm32f0xx_hal_tim_ex.c ****       /* Set the DMA Period elapsed callback */
 748:cube/Drivers/STM32F0xx_HAL_Driver/Src/stm32f0xx_hal_tim_ex.c ****       htim->hdma[TIM_DMA_ID_CC3]->XferCpltCallback = TIM_DMADelayPulseCplt;
 749:cube/Drivers/STM32F0xx_HAL_Driver/Src/stm32f0xx_hal_tim_ex.c **** 
 750:cube/Drivers/STM32F0xx_HAL_Driver/Src/stm32f0xx_hal_tim_ex.c ****       /* Set the DMA error callback */
 751:cube/Drivers/STM32F0xx_HAL_Driver/Src/stm32f0xx_hal_tim_ex.c ****       htim->hdma[TIM_DMA_ID_CC3]->XferErrorCallback = TIM_DMAError ;
 752:cube/Drivers/STM32F0xx_HAL_Driver/Src/stm32f0xx_hal_tim_ex.c **** 
 753:cube/Drivers/STM32F0xx_HAL_Driver/Src/stm32f0xx_hal_tim_ex.c ****       /* Enable the DMA channel */
 754:cube/Drivers/STM32F0xx_HAL_Driver/Src/stm32f0xx_hal_tim_ex.c ****       HAL_DMA_Start_IT(htim->hdma[TIM_DMA_ID_CC3], (uint32_t)pData, (uint32_t)&htim->Instance->CCR3
 755:cube/Drivers/STM32F0xx_HAL_Driver/Src/stm32f0xx_hal_tim_ex.c **** 
 756:cube/Drivers/STM32F0xx_HAL_Driver/Src/stm32f0xx_hal_tim_ex.c ****       /* Enable the TIM Output Compare DMA request */
 757:cube/Drivers/STM32F0xx_HAL_Driver/Src/stm32f0xx_hal_tim_ex.c ****       __HAL_TIM_ENABLE_DMA(htim, TIM_DMA_CC3);
 758:cube/Drivers/STM32F0xx_HAL_Driver/Src/stm32f0xx_hal_tim_ex.c ****     }
 759:cube/Drivers/STM32F0xx_HAL_Driver/Src/stm32f0xx_hal_tim_ex.c ****     break;
 760:cube/Drivers/STM32F0xx_HAL_Driver/Src/stm32f0xx_hal_tim_ex.c **** 
 761:cube/Drivers/STM32F0xx_HAL_Driver/Src/stm32f0xx_hal_tim_ex.c ****     case TIM_CHANNEL_4:
 762:cube/Drivers/STM32F0xx_HAL_Driver/Src/stm32f0xx_hal_tim_ex.c ****     {
 763:cube/Drivers/STM32F0xx_HAL_Driver/Src/stm32f0xx_hal_tim_ex.c ****      /* Set the DMA Period elapsed callback */
 764:cube/Drivers/STM32F0xx_HAL_Driver/Src/stm32f0xx_hal_tim_ex.c ****       htim->hdma[TIM_DMA_ID_CC4]->XferCpltCallback = TIM_DMADelayPulseCplt;
 765:cube/Drivers/STM32F0xx_HAL_Driver/Src/stm32f0xx_hal_tim_ex.c **** 
 766:cube/Drivers/STM32F0xx_HAL_Driver/Src/stm32f0xx_hal_tim_ex.c ****       /* Set the DMA error callback */
 767:cube/Drivers/STM32F0xx_HAL_Driver/Src/stm32f0xx_hal_tim_ex.c ****       htim->hdma[TIM_DMA_ID_CC4]->XferErrorCallback = TIM_DMAError ;
 768:cube/Drivers/STM32F0xx_HAL_Driver/Src/stm32f0xx_hal_tim_ex.c **** 
 769:cube/Drivers/STM32F0xx_HAL_Driver/Src/stm32f0xx_hal_tim_ex.c ****       /* Enable the DMA channel */
 770:cube/Drivers/STM32F0xx_HAL_Driver/Src/stm32f0xx_hal_tim_ex.c ****       HAL_DMA_Start_IT(htim->hdma[TIM_DMA_ID_CC4], (uint32_t)pData, (uint32_t)&htim->Instance->CCR4
 771:cube/Drivers/STM32F0xx_HAL_Driver/Src/stm32f0xx_hal_tim_ex.c **** 
 772:cube/Drivers/STM32F0xx_HAL_Driver/Src/stm32f0xx_hal_tim_ex.c ****       /* Enable the TIM Output Compare DMA request */
 773:cube/Drivers/STM32F0xx_HAL_Driver/Src/stm32f0xx_hal_tim_ex.c ****       __HAL_TIM_ENABLE_DMA(htim, TIM_DMA_CC4);
 774:cube/Drivers/STM32F0xx_HAL_Driver/Src/stm32f0xx_hal_tim_ex.c ****     }
 775:cube/Drivers/STM32F0xx_HAL_Driver/Src/stm32f0xx_hal_tim_ex.c ****     break;
 776:cube/Drivers/STM32F0xx_HAL_Driver/Src/stm32f0xx_hal_tim_ex.c **** 
 777:cube/Drivers/STM32F0xx_HAL_Driver/Src/stm32f0xx_hal_tim_ex.c ****     default:
 778:cube/Drivers/STM32F0xx_HAL_Driver/Src/stm32f0xx_hal_tim_ex.c ****     break;
 1384              		.loc 1 778 0
 1385 0054 78E0     		b	.L81
 1386              	.L77:
 711:cube/Drivers/STM32F0xx_HAL_Driver/Src/stm32f0xx_hal_tim_ex.c ****   {
 1387              		.loc 1 711 0
 1388 0056 082B     		cmp	r3, #8
 1389 0058 3CD0     		beq	.L79
 1390 005a 0C2B     		cmp	r3, #12
 1391 005c 57D0     		beq	.L80
 1392              		.loc 1 778 0
 1393 005e 73E0     		b	.L81
 1394              	.L78:
 716:cube/Drivers/STM32F0xx_HAL_Driver/Src/stm32f0xx_hal_tim_ex.c **** 
 1395              		.loc 1 716 0
 1396 0060 FB68     		ldr	r3, [r7, #12]
 1397 0062 5B6A     		ldr	r3, [r3, #36]
ARM GAS  /tmp/ccpevmba.s 			page 39


 1398 0064 474A     		ldr	r2, .L82
 1399 0066 9A62     		str	r2, [r3, #40]
 719:cube/Drivers/STM32F0xx_HAL_Driver/Src/stm32f0xx_hal_tim_ex.c **** 
 1400              		.loc 1 719 0
 1401 0068 FB68     		ldr	r3, [r7, #12]
 1402 006a 5B6A     		ldr	r3, [r3, #36]
 1403 006c 464A     		ldr	r2, .L82+4
 1404 006e 1A63     		str	r2, [r3, #48]
 722:cube/Drivers/STM32F0xx_HAL_Driver/Src/stm32f0xx_hal_tim_ex.c **** 
 1405              		.loc 1 722 0
 1406 0070 FB68     		ldr	r3, [r7, #12]
 1407 0072 586A     		ldr	r0, [r3, #36]
 1408 0074 7968     		ldr	r1, [r7, #4]
 1409 0076 FB68     		ldr	r3, [r7, #12]
 1410 0078 1B68     		ldr	r3, [r3]
 1411 007a 3433     		adds	r3, r3, #52
 1412 007c 1A00     		movs	r2, r3
 1413 007e BB1C     		adds	r3, r7, #2
 1414 0080 1B88     		ldrh	r3, [r3]
 1415 0082 FFF7FEFF 		bl	HAL_DMA_Start_IT
 725:cube/Drivers/STM32F0xx_HAL_Driver/Src/stm32f0xx_hal_tim_ex.c ****     }
 1416              		.loc 1 725 0
 1417 0086 FB68     		ldr	r3, [r7, #12]
 1418 0088 1B68     		ldr	r3, [r3]
 1419 008a DA68     		ldr	r2, [r3, #12]
 1420 008c FB68     		ldr	r3, [r7, #12]
 1421 008e 1B68     		ldr	r3, [r3]
 1422 0090 8021     		movs	r1, #128
 1423 0092 8900     		lsls	r1, r1, #2
 1424 0094 0A43     		orrs	r2, r1
 1425 0096 DA60     		str	r2, [r3, #12]
 727:cube/Drivers/STM32F0xx_HAL_Driver/Src/stm32f0xx_hal_tim_ex.c **** 
 1426              		.loc 1 727 0
 1427 0098 56E0     		b	.L81
 1428              	.L76:
 732:cube/Drivers/STM32F0xx_HAL_Driver/Src/stm32f0xx_hal_tim_ex.c **** 
 1429              		.loc 1 732 0
 1430 009a FB68     		ldr	r3, [r7, #12]
 1431 009c 9B6A     		ldr	r3, [r3, #40]
 1432 009e 394A     		ldr	r2, .L82
 1433 00a0 9A62     		str	r2, [r3, #40]
 735:cube/Drivers/STM32F0xx_HAL_Driver/Src/stm32f0xx_hal_tim_ex.c **** 
 1434              		.loc 1 735 0
 1435 00a2 FB68     		ldr	r3, [r7, #12]
 1436 00a4 9B6A     		ldr	r3, [r3, #40]
 1437 00a6 384A     		ldr	r2, .L82+4
 1438 00a8 1A63     		str	r2, [r3, #48]
 738:cube/Drivers/STM32F0xx_HAL_Driver/Src/stm32f0xx_hal_tim_ex.c **** 
 1439              		.loc 1 738 0
 1440 00aa FB68     		ldr	r3, [r7, #12]
 1441 00ac 986A     		ldr	r0, [r3, #40]
 1442 00ae 7968     		ldr	r1, [r7, #4]
 1443 00b0 FB68     		ldr	r3, [r7, #12]
 1444 00b2 1B68     		ldr	r3, [r3]
 1445 00b4 3833     		adds	r3, r3, #56
 1446 00b6 1A00     		movs	r2, r3
 1447 00b8 BB1C     		adds	r3, r7, #2
ARM GAS  /tmp/ccpevmba.s 			page 40


 1448 00ba 1B88     		ldrh	r3, [r3]
 1449 00bc FFF7FEFF 		bl	HAL_DMA_Start_IT
 741:cube/Drivers/STM32F0xx_HAL_Driver/Src/stm32f0xx_hal_tim_ex.c ****     }
 1450              		.loc 1 741 0
 1451 00c0 FB68     		ldr	r3, [r7, #12]
 1452 00c2 1B68     		ldr	r3, [r3]
 1453 00c4 DA68     		ldr	r2, [r3, #12]
 1454 00c6 FB68     		ldr	r3, [r7, #12]
 1455 00c8 1B68     		ldr	r3, [r3]
 1456 00ca 8021     		movs	r1, #128
 1457 00cc C900     		lsls	r1, r1, #3
 1458 00ce 0A43     		orrs	r2, r1
 1459 00d0 DA60     		str	r2, [r3, #12]
 743:cube/Drivers/STM32F0xx_HAL_Driver/Src/stm32f0xx_hal_tim_ex.c **** 
 1460              		.loc 1 743 0
 1461 00d2 39E0     		b	.L81
 1462              	.L79:
 748:cube/Drivers/STM32F0xx_HAL_Driver/Src/stm32f0xx_hal_tim_ex.c **** 
 1463              		.loc 1 748 0
 1464 00d4 FB68     		ldr	r3, [r7, #12]
 1465 00d6 DB6A     		ldr	r3, [r3, #44]
 1466 00d8 2A4A     		ldr	r2, .L82
 1467 00da 9A62     		str	r2, [r3, #40]
 751:cube/Drivers/STM32F0xx_HAL_Driver/Src/stm32f0xx_hal_tim_ex.c **** 
 1468              		.loc 1 751 0
 1469 00dc FB68     		ldr	r3, [r7, #12]
 1470 00de DB6A     		ldr	r3, [r3, #44]
 1471 00e0 294A     		ldr	r2, .L82+4
 1472 00e2 1A63     		str	r2, [r3, #48]
 754:cube/Drivers/STM32F0xx_HAL_Driver/Src/stm32f0xx_hal_tim_ex.c **** 
 1473              		.loc 1 754 0
 1474 00e4 FB68     		ldr	r3, [r7, #12]
 1475 00e6 D86A     		ldr	r0, [r3, #44]
 1476 00e8 7968     		ldr	r1, [r7, #4]
 1477 00ea FB68     		ldr	r3, [r7, #12]
 1478 00ec 1B68     		ldr	r3, [r3]
 1479 00ee 3C33     		adds	r3, r3, #60
 1480 00f0 1A00     		movs	r2, r3
 1481 00f2 BB1C     		adds	r3, r7, #2
 1482 00f4 1B88     		ldrh	r3, [r3]
 1483 00f6 FFF7FEFF 		bl	HAL_DMA_Start_IT
 757:cube/Drivers/STM32F0xx_HAL_Driver/Src/stm32f0xx_hal_tim_ex.c ****     }
 1484              		.loc 1 757 0
 1485 00fa FB68     		ldr	r3, [r7, #12]
 1486 00fc 1B68     		ldr	r3, [r3]
 1487 00fe DA68     		ldr	r2, [r3, #12]
 1488 0100 FB68     		ldr	r3, [r7, #12]
 1489 0102 1B68     		ldr	r3, [r3]
 1490 0104 8021     		movs	r1, #128
 1491 0106 0901     		lsls	r1, r1, #4
 1492 0108 0A43     		orrs	r2, r1
 1493 010a DA60     		str	r2, [r3, #12]
 759:cube/Drivers/STM32F0xx_HAL_Driver/Src/stm32f0xx_hal_tim_ex.c **** 
 1494              		.loc 1 759 0
 1495 010c 1CE0     		b	.L81
 1496              	.L80:
 764:cube/Drivers/STM32F0xx_HAL_Driver/Src/stm32f0xx_hal_tim_ex.c **** 
ARM GAS  /tmp/ccpevmba.s 			page 41


 1497              		.loc 1 764 0
 1498 010e FB68     		ldr	r3, [r7, #12]
 1499 0110 1B6B     		ldr	r3, [r3, #48]
 1500 0112 1C4A     		ldr	r2, .L82
 1501 0114 9A62     		str	r2, [r3, #40]
 767:cube/Drivers/STM32F0xx_HAL_Driver/Src/stm32f0xx_hal_tim_ex.c **** 
 1502              		.loc 1 767 0
 1503 0116 FB68     		ldr	r3, [r7, #12]
 1504 0118 1B6B     		ldr	r3, [r3, #48]
 1505 011a 1B4A     		ldr	r2, .L82+4
 1506 011c 1A63     		str	r2, [r3, #48]
 770:cube/Drivers/STM32F0xx_HAL_Driver/Src/stm32f0xx_hal_tim_ex.c **** 
 1507              		.loc 1 770 0
 1508 011e FB68     		ldr	r3, [r7, #12]
 1509 0120 186B     		ldr	r0, [r3, #48]
 1510 0122 7968     		ldr	r1, [r7, #4]
 1511 0124 FB68     		ldr	r3, [r7, #12]
 1512 0126 1B68     		ldr	r3, [r3]
 1513 0128 4033     		adds	r3, r3, #64
 1514 012a 1A00     		movs	r2, r3
 1515 012c BB1C     		adds	r3, r7, #2
 1516 012e 1B88     		ldrh	r3, [r3]
 1517 0130 FFF7FEFF 		bl	HAL_DMA_Start_IT
 773:cube/Drivers/STM32F0xx_HAL_Driver/Src/stm32f0xx_hal_tim_ex.c ****     }
 1518              		.loc 1 773 0
 1519 0134 FB68     		ldr	r3, [r7, #12]
 1520 0136 1B68     		ldr	r3, [r3]
 1521 0138 DA68     		ldr	r2, [r3, #12]
 1522 013a FB68     		ldr	r3, [r7, #12]
 1523 013c 1B68     		ldr	r3, [r3]
 1524 013e 8021     		movs	r1, #128
 1525 0140 4901     		lsls	r1, r1, #5
 1526 0142 0A43     		orrs	r2, r1
 1527 0144 DA60     		str	r2, [r3, #12]
 775:cube/Drivers/STM32F0xx_HAL_Driver/Src/stm32f0xx_hal_tim_ex.c **** 
 1528              		.loc 1 775 0
 1529 0146 C046     		nop
 1530              	.L81:
 779:cube/Drivers/STM32F0xx_HAL_Driver/Src/stm32f0xx_hal_tim_ex.c ****   }
 780:cube/Drivers/STM32F0xx_HAL_Driver/Src/stm32f0xx_hal_tim_ex.c **** 
 781:cube/Drivers/STM32F0xx_HAL_Driver/Src/stm32f0xx_hal_tim_ex.c ****   /* Enable the Capture compare channel N */
 782:cube/Drivers/STM32F0xx_HAL_Driver/Src/stm32f0xx_hal_tim_ex.c ****   TIM_CCxNChannelCmd(htim->Instance, Channel, TIM_CCxN_ENABLE);
 1531              		.loc 1 782 0
 1532 0148 FB68     		ldr	r3, [r7, #12]
 1533 014a 1B68     		ldr	r3, [r3]
 1534 014c B968     		ldr	r1, [r7, #8]
 1535 014e 0422     		movs	r2, #4
 1536 0150 1800     		movs	r0, r3
 1537 0152 FFF7FEFF 		bl	TIM_CCxNChannelCmd
 783:cube/Drivers/STM32F0xx_HAL_Driver/Src/stm32f0xx_hal_tim_ex.c **** 
 784:cube/Drivers/STM32F0xx_HAL_Driver/Src/stm32f0xx_hal_tim_ex.c ****   /* Enable the Main Ouput */
 785:cube/Drivers/STM32F0xx_HAL_Driver/Src/stm32f0xx_hal_tim_ex.c ****   __HAL_TIM_MOE_ENABLE(htim);
 1538              		.loc 1 785 0
 1539 0156 FB68     		ldr	r3, [r7, #12]
 1540 0158 1B68     		ldr	r3, [r3]
 1541 015a 5A6C     		ldr	r2, [r3, #68]
 1542 015c FB68     		ldr	r3, [r7, #12]
ARM GAS  /tmp/ccpevmba.s 			page 42


 1543 015e 1B68     		ldr	r3, [r3]
 1544 0160 8021     		movs	r1, #128
 1545 0162 0902     		lsls	r1, r1, #8
 1546 0164 0A43     		orrs	r2, r1
 1547 0166 5A64     		str	r2, [r3, #68]
 786:cube/Drivers/STM32F0xx_HAL_Driver/Src/stm32f0xx_hal_tim_ex.c **** 
 787:cube/Drivers/STM32F0xx_HAL_Driver/Src/stm32f0xx_hal_tim_ex.c ****   /* Enable the Peripheral */
 788:cube/Drivers/STM32F0xx_HAL_Driver/Src/stm32f0xx_hal_tim_ex.c ****   __HAL_TIM_ENABLE(htim);
 1548              		.loc 1 788 0
 1549 0168 FB68     		ldr	r3, [r7, #12]
 1550 016a 1B68     		ldr	r3, [r3]
 1551 016c 1A68     		ldr	r2, [r3]
 1552 016e FB68     		ldr	r3, [r7, #12]
 1553 0170 1B68     		ldr	r3, [r3]
 1554 0172 0121     		movs	r1, #1
 1555 0174 0A43     		orrs	r2, r1
 1556 0176 1A60     		str	r2, [r3]
 789:cube/Drivers/STM32F0xx_HAL_Driver/Src/stm32f0xx_hal_tim_ex.c **** 
 790:cube/Drivers/STM32F0xx_HAL_Driver/Src/stm32f0xx_hal_tim_ex.c ****   /* Return function status */
 791:cube/Drivers/STM32F0xx_HAL_Driver/Src/stm32f0xx_hal_tim_ex.c ****   return HAL_OK;
 1557              		.loc 1 791 0
 1558 0178 0023     		movs	r3, #0
 1559              	.L72:
 792:cube/Drivers/STM32F0xx_HAL_Driver/Src/stm32f0xx_hal_tim_ex.c **** }
 1560              		.loc 1 792 0
 1561 017a 1800     		movs	r0, r3
 1562 017c BD46     		mov	sp, r7
 1563 017e 04B0     		add	sp, sp, #16
 1564              		@ sp needed
 1565 0180 80BD     		pop	{r7, pc}
 1566              	.L83:
 1567 0182 C046     		.align	2
 1568              	.L82:
 1569 0184 00000000 		.word	TIM_DMADelayPulseCplt
 1570 0188 00000000 		.word	TIM_DMAError
 1571              		.cfi_endproc
 1572              	.LFE51:
 1574              		.section	.text.HAL_TIMEx_OCN_Stop_DMA,"ax",%progbits
 1575              		.align	1
 1576              		.global	HAL_TIMEx_OCN_Stop_DMA
 1577              		.syntax unified
 1578              		.code	16
 1579              		.thumb_func
 1580              		.fpu softvfp
 1582              	HAL_TIMEx_OCN_Stop_DMA:
 1583              	.LFB52:
 793:cube/Drivers/STM32F0xx_HAL_Driver/Src/stm32f0xx_hal_tim_ex.c **** 
 794:cube/Drivers/STM32F0xx_HAL_Driver/Src/stm32f0xx_hal_tim_ex.c **** /**
 795:cube/Drivers/STM32F0xx_HAL_Driver/Src/stm32f0xx_hal_tim_ex.c ****   * @brief  Stops the TIM Output Compare signal generation in DMA mode 
 796:cube/Drivers/STM32F0xx_HAL_Driver/Src/stm32f0xx_hal_tim_ex.c ****   *         on the complementary output.
 797:cube/Drivers/STM32F0xx_HAL_Driver/Src/stm32f0xx_hal_tim_ex.c ****   * @param  htim TIM Output Compare handle
 798:cube/Drivers/STM32F0xx_HAL_Driver/Src/stm32f0xx_hal_tim_ex.c ****   * @param  Channel TIM Channel to be disabled
 799:cube/Drivers/STM32F0xx_HAL_Driver/Src/stm32f0xx_hal_tim_ex.c ****   *          This parameter can be one of the following values:
 800:cube/Drivers/STM32F0xx_HAL_Driver/Src/stm32f0xx_hal_tim_ex.c ****   *            @arg TIM_CHANNEL_1: TIM Channel 1 selected
 801:cube/Drivers/STM32F0xx_HAL_Driver/Src/stm32f0xx_hal_tim_ex.c ****   *            @arg TIM_CHANNEL_2: TIM Channel 2 selected
 802:cube/Drivers/STM32F0xx_HAL_Driver/Src/stm32f0xx_hal_tim_ex.c ****   *            @arg TIM_CHANNEL_3: TIM Channel 3 selected
 803:cube/Drivers/STM32F0xx_HAL_Driver/Src/stm32f0xx_hal_tim_ex.c ****   *            @arg TIM_CHANNEL_4: TIM Channel 4 selected
ARM GAS  /tmp/ccpevmba.s 			page 43


 804:cube/Drivers/STM32F0xx_HAL_Driver/Src/stm32f0xx_hal_tim_ex.c ****   * @retval HAL status
 805:cube/Drivers/STM32F0xx_HAL_Driver/Src/stm32f0xx_hal_tim_ex.c ****   */
 806:cube/Drivers/STM32F0xx_HAL_Driver/Src/stm32f0xx_hal_tim_ex.c **** HAL_StatusTypeDef HAL_TIMEx_OCN_Stop_DMA(TIM_HandleTypeDef *htim, uint32_t Channel)
 807:cube/Drivers/STM32F0xx_HAL_Driver/Src/stm32f0xx_hal_tim_ex.c **** {
 1584              		.loc 1 807 0
 1585              		.cfi_startproc
 1586              		@ args = 0, pretend = 0, frame = 8
 1587              		@ frame_needed = 1, uses_anonymous_args = 0
 1588 0000 80B5     		push	{r7, lr}
 1589              		.cfi_def_cfa_offset 8
 1590              		.cfi_offset 7, -8
 1591              		.cfi_offset 14, -4
 1592 0002 82B0     		sub	sp, sp, #8
 1593              		.cfi_def_cfa_offset 16
 1594 0004 00AF     		add	r7, sp, #0
 1595              		.cfi_def_cfa_register 7
 1596 0006 7860     		str	r0, [r7, #4]
 1597 0008 3960     		str	r1, [r7]
 808:cube/Drivers/STM32F0xx_HAL_Driver/Src/stm32f0xx_hal_tim_ex.c ****   /* Check the parameters */
 809:cube/Drivers/STM32F0xx_HAL_Driver/Src/stm32f0xx_hal_tim_ex.c ****   assert_param(IS_TIM_CCXN_INSTANCE(htim->Instance, Channel));
 810:cube/Drivers/STM32F0xx_HAL_Driver/Src/stm32f0xx_hal_tim_ex.c **** 
 811:cube/Drivers/STM32F0xx_HAL_Driver/Src/stm32f0xx_hal_tim_ex.c ****   switch (Channel)
 1598              		.loc 1 811 0
 1599 000a 3B68     		ldr	r3, [r7]
 1600 000c 042B     		cmp	r3, #4
 1601 000e 11D0     		beq	.L86
 1602 0010 02D8     		bhi	.L87
 1603 0012 002B     		cmp	r3, #0
 1604 0014 05D0     		beq	.L88
 812:cube/Drivers/STM32F0xx_HAL_Driver/Src/stm32f0xx_hal_tim_ex.c ****   {
 813:cube/Drivers/STM32F0xx_HAL_Driver/Src/stm32f0xx_hal_tim_ex.c ****     case TIM_CHANNEL_1:
 814:cube/Drivers/STM32F0xx_HAL_Driver/Src/stm32f0xx_hal_tim_ex.c ****     {
 815:cube/Drivers/STM32F0xx_HAL_Driver/Src/stm32f0xx_hal_tim_ex.c ****       /* Disable the TIM Output Compare DMA request */
 816:cube/Drivers/STM32F0xx_HAL_Driver/Src/stm32f0xx_hal_tim_ex.c ****       __HAL_TIM_DISABLE_DMA(htim, TIM_DMA_CC1);
 817:cube/Drivers/STM32F0xx_HAL_Driver/Src/stm32f0xx_hal_tim_ex.c ****     }
 818:cube/Drivers/STM32F0xx_HAL_Driver/Src/stm32f0xx_hal_tim_ex.c ****     break;
 819:cube/Drivers/STM32F0xx_HAL_Driver/Src/stm32f0xx_hal_tim_ex.c **** 
 820:cube/Drivers/STM32F0xx_HAL_Driver/Src/stm32f0xx_hal_tim_ex.c ****     case TIM_CHANNEL_2:
 821:cube/Drivers/STM32F0xx_HAL_Driver/Src/stm32f0xx_hal_tim_ex.c ****     {
 822:cube/Drivers/STM32F0xx_HAL_Driver/Src/stm32f0xx_hal_tim_ex.c ****       /* Disable the TIM Output Compare DMA request */
 823:cube/Drivers/STM32F0xx_HAL_Driver/Src/stm32f0xx_hal_tim_ex.c ****       __HAL_TIM_DISABLE_DMA(htim, TIM_DMA_CC2);
 824:cube/Drivers/STM32F0xx_HAL_Driver/Src/stm32f0xx_hal_tim_ex.c ****     }
 825:cube/Drivers/STM32F0xx_HAL_Driver/Src/stm32f0xx_hal_tim_ex.c ****     break;
 826:cube/Drivers/STM32F0xx_HAL_Driver/Src/stm32f0xx_hal_tim_ex.c **** 
 827:cube/Drivers/STM32F0xx_HAL_Driver/Src/stm32f0xx_hal_tim_ex.c ****     case TIM_CHANNEL_3:
 828:cube/Drivers/STM32F0xx_HAL_Driver/Src/stm32f0xx_hal_tim_ex.c ****     {
 829:cube/Drivers/STM32F0xx_HAL_Driver/Src/stm32f0xx_hal_tim_ex.c ****       /* Disable the TIM Output Compare DMA request */
 830:cube/Drivers/STM32F0xx_HAL_Driver/Src/stm32f0xx_hal_tim_ex.c ****       __HAL_TIM_DISABLE_DMA(htim, TIM_DMA_CC3);
 831:cube/Drivers/STM32F0xx_HAL_Driver/Src/stm32f0xx_hal_tim_ex.c ****     }
 832:cube/Drivers/STM32F0xx_HAL_Driver/Src/stm32f0xx_hal_tim_ex.c ****     break;
 833:cube/Drivers/STM32F0xx_HAL_Driver/Src/stm32f0xx_hal_tim_ex.c **** 
 834:cube/Drivers/STM32F0xx_HAL_Driver/Src/stm32f0xx_hal_tim_ex.c ****     case TIM_CHANNEL_4:
 835:cube/Drivers/STM32F0xx_HAL_Driver/Src/stm32f0xx_hal_tim_ex.c ****     {
 836:cube/Drivers/STM32F0xx_HAL_Driver/Src/stm32f0xx_hal_tim_ex.c ****       /* Disable the TIM Output Compare interrupt */
 837:cube/Drivers/STM32F0xx_HAL_Driver/Src/stm32f0xx_hal_tim_ex.c ****       __HAL_TIM_DISABLE_DMA(htim, TIM_DMA_CC4);
 838:cube/Drivers/STM32F0xx_HAL_Driver/Src/stm32f0xx_hal_tim_ex.c ****     }
 839:cube/Drivers/STM32F0xx_HAL_Driver/Src/stm32f0xx_hal_tim_ex.c ****     break;
ARM GAS  /tmp/ccpevmba.s 			page 44


 840:cube/Drivers/STM32F0xx_HAL_Driver/Src/stm32f0xx_hal_tim_ex.c **** 
 841:cube/Drivers/STM32F0xx_HAL_Driver/Src/stm32f0xx_hal_tim_ex.c ****     default:
 842:cube/Drivers/STM32F0xx_HAL_Driver/Src/stm32f0xx_hal_tim_ex.c ****     break;
 1605              		.loc 1 842 0
 1606 0016 28E0     		b	.L91
 1607              	.L87:
 811:cube/Drivers/STM32F0xx_HAL_Driver/Src/stm32f0xx_hal_tim_ex.c ****   {
 1608              		.loc 1 811 0
 1609 0018 082B     		cmp	r3, #8
 1610 001a 14D0     		beq	.L89
 1611 001c 0C2B     		cmp	r3, #12
 1612 001e 1BD0     		beq	.L90
 1613              		.loc 1 842 0
 1614 0020 23E0     		b	.L91
 1615              	.L88:
 816:cube/Drivers/STM32F0xx_HAL_Driver/Src/stm32f0xx_hal_tim_ex.c ****     }
 1616              		.loc 1 816 0
 1617 0022 7B68     		ldr	r3, [r7, #4]
 1618 0024 1B68     		ldr	r3, [r3]
 1619 0026 DA68     		ldr	r2, [r3, #12]
 1620 0028 7B68     		ldr	r3, [r7, #4]
 1621 002a 1B68     		ldr	r3, [r3]
 1622 002c 2B49     		ldr	r1, .L95
 1623 002e 0A40     		ands	r2, r1
 1624 0030 DA60     		str	r2, [r3, #12]
 818:cube/Drivers/STM32F0xx_HAL_Driver/Src/stm32f0xx_hal_tim_ex.c **** 
 1625              		.loc 1 818 0
 1626 0032 1AE0     		b	.L91
 1627              	.L86:
 823:cube/Drivers/STM32F0xx_HAL_Driver/Src/stm32f0xx_hal_tim_ex.c ****     }
 1628              		.loc 1 823 0
 1629 0034 7B68     		ldr	r3, [r7, #4]
 1630 0036 1B68     		ldr	r3, [r3]
 1631 0038 DA68     		ldr	r2, [r3, #12]
 1632 003a 7B68     		ldr	r3, [r7, #4]
 1633 003c 1B68     		ldr	r3, [r3]
 1634 003e 2849     		ldr	r1, .L95+4
 1635 0040 0A40     		ands	r2, r1
 1636 0042 DA60     		str	r2, [r3, #12]
 825:cube/Drivers/STM32F0xx_HAL_Driver/Src/stm32f0xx_hal_tim_ex.c **** 
 1637              		.loc 1 825 0
 1638 0044 11E0     		b	.L91
 1639              	.L89:
 830:cube/Drivers/STM32F0xx_HAL_Driver/Src/stm32f0xx_hal_tim_ex.c ****     }
 1640              		.loc 1 830 0
 1641 0046 7B68     		ldr	r3, [r7, #4]
 1642 0048 1B68     		ldr	r3, [r3]
 1643 004a DA68     		ldr	r2, [r3, #12]
 1644 004c 7B68     		ldr	r3, [r7, #4]
 1645 004e 1B68     		ldr	r3, [r3]
 1646 0050 2449     		ldr	r1, .L95+8
 1647 0052 0A40     		ands	r2, r1
 1648 0054 DA60     		str	r2, [r3, #12]
 832:cube/Drivers/STM32F0xx_HAL_Driver/Src/stm32f0xx_hal_tim_ex.c **** 
 1649              		.loc 1 832 0
 1650 0056 08E0     		b	.L91
 1651              	.L90:
ARM GAS  /tmp/ccpevmba.s 			page 45


 837:cube/Drivers/STM32F0xx_HAL_Driver/Src/stm32f0xx_hal_tim_ex.c ****     }
 1652              		.loc 1 837 0
 1653 0058 7B68     		ldr	r3, [r7, #4]
 1654 005a 1B68     		ldr	r3, [r3]
 1655 005c DA68     		ldr	r2, [r3, #12]
 1656 005e 7B68     		ldr	r3, [r7, #4]
 1657 0060 1B68     		ldr	r3, [r3]
 1658 0062 2149     		ldr	r1, .L95+12
 1659 0064 0A40     		ands	r2, r1
 1660 0066 DA60     		str	r2, [r3, #12]
 839:cube/Drivers/STM32F0xx_HAL_Driver/Src/stm32f0xx_hal_tim_ex.c **** 
 1661              		.loc 1 839 0
 1662 0068 C046     		nop
 1663              	.L91:
 843:cube/Drivers/STM32F0xx_HAL_Driver/Src/stm32f0xx_hal_tim_ex.c ****   }
 844:cube/Drivers/STM32F0xx_HAL_Driver/Src/stm32f0xx_hal_tim_ex.c **** 
 845:cube/Drivers/STM32F0xx_HAL_Driver/Src/stm32f0xx_hal_tim_ex.c ****   /* Disable the Capture compare channel N */
 846:cube/Drivers/STM32F0xx_HAL_Driver/Src/stm32f0xx_hal_tim_ex.c ****   TIM_CCxNChannelCmd(htim->Instance, Channel, TIM_CCxN_DISABLE);
 1664              		.loc 1 846 0
 1665 006a 7B68     		ldr	r3, [r7, #4]
 1666 006c 1B68     		ldr	r3, [r3]
 1667 006e 3968     		ldr	r1, [r7]
 1668 0070 0022     		movs	r2, #0
 1669 0072 1800     		movs	r0, r3
 1670 0074 FFF7FEFF 		bl	TIM_CCxNChannelCmd
 847:cube/Drivers/STM32F0xx_HAL_Driver/Src/stm32f0xx_hal_tim_ex.c **** 
 848:cube/Drivers/STM32F0xx_HAL_Driver/Src/stm32f0xx_hal_tim_ex.c ****   /* Disable the Main Ouput */
 849:cube/Drivers/STM32F0xx_HAL_Driver/Src/stm32f0xx_hal_tim_ex.c ****   __HAL_TIM_MOE_DISABLE(htim);
 1671              		.loc 1 849 0
 1672 0078 7B68     		ldr	r3, [r7, #4]
 1673 007a 1B68     		ldr	r3, [r3]
 1674 007c 1B6A     		ldr	r3, [r3, #32]
 1675 007e 1B4A     		ldr	r2, .L95+16
 1676 0080 1340     		ands	r3, r2
 1677 0082 0DD1     		bne	.L92
 1678              		.loc 1 849 0 is_stmt 0 discriminator 1
 1679 0084 7B68     		ldr	r3, [r7, #4]
 1680 0086 1B68     		ldr	r3, [r3]
 1681 0088 1B6A     		ldr	r3, [r3, #32]
 1682 008a 194A     		ldr	r2, .L95+20
 1683 008c 1340     		ands	r3, r2
 1684 008e 07D1     		bne	.L92
 1685              		.loc 1 849 0 discriminator 2
 1686 0090 7B68     		ldr	r3, [r7, #4]
 1687 0092 1B68     		ldr	r3, [r3]
 1688 0094 5A6C     		ldr	r2, [r3, #68]
 1689 0096 7B68     		ldr	r3, [r7, #4]
 1690 0098 1B68     		ldr	r3, [r3]
 1691 009a 1649     		ldr	r1, .L95+24
 1692 009c 0A40     		ands	r2, r1
 1693 009e 5A64     		str	r2, [r3, #68]
 1694              	.L92:
 850:cube/Drivers/STM32F0xx_HAL_Driver/Src/stm32f0xx_hal_tim_ex.c **** 
 851:cube/Drivers/STM32F0xx_HAL_Driver/Src/stm32f0xx_hal_tim_ex.c ****   /* Disable the Peripheral */
 852:cube/Drivers/STM32F0xx_HAL_Driver/Src/stm32f0xx_hal_tim_ex.c ****   __HAL_TIM_DISABLE(htim);
 1695              		.loc 1 852 0 is_stmt 1
 1696 00a0 7B68     		ldr	r3, [r7, #4]
ARM GAS  /tmp/ccpevmba.s 			page 46


 1697 00a2 1B68     		ldr	r3, [r3]
 1698 00a4 1B6A     		ldr	r3, [r3, #32]
 1699 00a6 114A     		ldr	r2, .L95+16
 1700 00a8 1340     		ands	r3, r2
 1701 00aa 0DD1     		bne	.L93
 1702              		.loc 1 852 0 is_stmt 0 discriminator 1
 1703 00ac 7B68     		ldr	r3, [r7, #4]
 1704 00ae 1B68     		ldr	r3, [r3]
 1705 00b0 1B6A     		ldr	r3, [r3, #32]
 1706 00b2 0F4A     		ldr	r2, .L95+20
 1707 00b4 1340     		ands	r3, r2
 1708 00b6 07D1     		bne	.L93
 1709              		.loc 1 852 0 discriminator 2
 1710 00b8 7B68     		ldr	r3, [r7, #4]
 1711 00ba 1B68     		ldr	r3, [r3]
 1712 00bc 1A68     		ldr	r2, [r3]
 1713 00be 7B68     		ldr	r3, [r7, #4]
 1714 00c0 1B68     		ldr	r3, [r3]
 1715 00c2 0121     		movs	r1, #1
 1716 00c4 8A43     		bics	r2, r1
 1717 00c6 1A60     		str	r2, [r3]
 1718              	.L93:
 853:cube/Drivers/STM32F0xx_HAL_Driver/Src/stm32f0xx_hal_tim_ex.c **** 
 854:cube/Drivers/STM32F0xx_HAL_Driver/Src/stm32f0xx_hal_tim_ex.c ****   /* Change the htim state */
 855:cube/Drivers/STM32F0xx_HAL_Driver/Src/stm32f0xx_hal_tim_ex.c ****   htim->State = HAL_TIM_STATE_READY;
 1719              		.loc 1 855 0 is_stmt 1
 1720 00c8 7B68     		ldr	r3, [r7, #4]
 1721 00ca 3D22     		movs	r2, #61
 1722 00cc 0121     		movs	r1, #1
 1723 00ce 9954     		strb	r1, [r3, r2]
 856:cube/Drivers/STM32F0xx_HAL_Driver/Src/stm32f0xx_hal_tim_ex.c **** 
 857:cube/Drivers/STM32F0xx_HAL_Driver/Src/stm32f0xx_hal_tim_ex.c ****   /* Return function status */
 858:cube/Drivers/STM32F0xx_HAL_Driver/Src/stm32f0xx_hal_tim_ex.c ****   return HAL_OK;
 1724              		.loc 1 858 0
 1725 00d0 0023     		movs	r3, #0
 859:cube/Drivers/STM32F0xx_HAL_Driver/Src/stm32f0xx_hal_tim_ex.c **** }
 1726              		.loc 1 859 0
 1727 00d2 1800     		movs	r0, r3
 1728 00d4 BD46     		mov	sp, r7
 1729 00d6 02B0     		add	sp, sp, #8
 1730              		@ sp needed
 1731 00d8 80BD     		pop	{r7, pc}
 1732              	.L96:
 1733 00da C046     		.align	2
 1734              	.L95:
 1735 00dc FFFDFFFF 		.word	-513
 1736 00e0 FFFBFFFF 		.word	-1025
 1737 00e4 FFF7FFFF 		.word	-2049
 1738 00e8 FFEFFFFF 		.word	-4097
 1739 00ec 11110000 		.word	4369
 1740 00f0 44040000 		.word	1092
 1741 00f4 FF7FFFFF 		.word	-32769
 1742              		.cfi_endproc
 1743              	.LFE52:
 1745              		.section	.text.HAL_TIMEx_PWMN_Start,"ax",%progbits
 1746              		.align	1
 1747              		.global	HAL_TIMEx_PWMN_Start
ARM GAS  /tmp/ccpevmba.s 			page 47


 1748              		.syntax unified
 1749              		.code	16
 1750              		.thumb_func
 1751              		.fpu softvfp
 1753              	HAL_TIMEx_PWMN_Start:
 1754              	.LFB53:
 860:cube/Drivers/STM32F0xx_HAL_Driver/Src/stm32f0xx_hal_tim_ex.c **** 
 861:cube/Drivers/STM32F0xx_HAL_Driver/Src/stm32f0xx_hal_tim_ex.c **** /**
 862:cube/Drivers/STM32F0xx_HAL_Driver/Src/stm32f0xx_hal_tim_ex.c ****   * @}
 863:cube/Drivers/STM32F0xx_HAL_Driver/Src/stm32f0xx_hal_tim_ex.c ****   */
 864:cube/Drivers/STM32F0xx_HAL_Driver/Src/stm32f0xx_hal_tim_ex.c **** 
 865:cube/Drivers/STM32F0xx_HAL_Driver/Src/stm32f0xx_hal_tim_ex.c **** /** @defgroup TIMEx_Exported_Functions_Group3 Timer Complementary PWM functions
 866:cube/Drivers/STM32F0xx_HAL_Driver/Src/stm32f0xx_hal_tim_ex.c ****  *  @brief    Timer Complementary PWM functions 
 867:cube/Drivers/STM32F0xx_HAL_Driver/Src/stm32f0xx_hal_tim_ex.c ****  *
 868:cube/Drivers/STM32F0xx_HAL_Driver/Src/stm32f0xx_hal_tim_ex.c **** @verbatim 
 869:cube/Drivers/STM32F0xx_HAL_Driver/Src/stm32f0xx_hal_tim_ex.c ****   ==============================================================================
 870:cube/Drivers/STM32F0xx_HAL_Driver/Src/stm32f0xx_hal_tim_ex.c ****                  ##### Timer Complementary PWM functions #####
 871:cube/Drivers/STM32F0xx_HAL_Driver/Src/stm32f0xx_hal_tim_ex.c ****   ==============================================================================
 872:cube/Drivers/STM32F0xx_HAL_Driver/Src/stm32f0xx_hal_tim_ex.c ****   [..]
 873:cube/Drivers/STM32F0xx_HAL_Driver/Src/stm32f0xx_hal_tim_ex.c ****     This section provides functions allowing to:
 874:cube/Drivers/STM32F0xx_HAL_Driver/Src/stm32f0xx_hal_tim_ex.c ****     (+) Start the Complementary PWM.
 875:cube/Drivers/STM32F0xx_HAL_Driver/Src/stm32f0xx_hal_tim_ex.c ****     (+) Stop the Complementary PWM.
 876:cube/Drivers/STM32F0xx_HAL_Driver/Src/stm32f0xx_hal_tim_ex.c ****     (+) Start the Complementary PWM and enable interrupts.
 877:cube/Drivers/STM32F0xx_HAL_Driver/Src/stm32f0xx_hal_tim_ex.c ****     (+) Stop the Complementary PWM and disable interrupts.
 878:cube/Drivers/STM32F0xx_HAL_Driver/Src/stm32f0xx_hal_tim_ex.c ****     (+) Start the Complementary PWM and enable DMA transfers.
 879:cube/Drivers/STM32F0xx_HAL_Driver/Src/stm32f0xx_hal_tim_ex.c ****     (+) Stop the Complementary PWM and disable DMA transfers.
 880:cube/Drivers/STM32F0xx_HAL_Driver/Src/stm32f0xx_hal_tim_ex.c ****     (+) Start the Complementary Input Capture measurement.
 881:cube/Drivers/STM32F0xx_HAL_Driver/Src/stm32f0xx_hal_tim_ex.c ****     (+) Stop the Complementary Input Capture.
 882:cube/Drivers/STM32F0xx_HAL_Driver/Src/stm32f0xx_hal_tim_ex.c ****     (+) Start the Complementary Input Capture and enable interrupts.
 883:cube/Drivers/STM32F0xx_HAL_Driver/Src/stm32f0xx_hal_tim_ex.c ****     (+) Stop the Complementary Input Capture and disable interrupts.
 884:cube/Drivers/STM32F0xx_HAL_Driver/Src/stm32f0xx_hal_tim_ex.c ****     (+) Start the Complementary Input Capture and enable DMA transfers.
 885:cube/Drivers/STM32F0xx_HAL_Driver/Src/stm32f0xx_hal_tim_ex.c ****     (+) Stop the Complementary Input Capture and disable DMA transfers.
 886:cube/Drivers/STM32F0xx_HAL_Driver/Src/stm32f0xx_hal_tim_ex.c ****     (+) Start the Complementary One Pulse generation.
 887:cube/Drivers/STM32F0xx_HAL_Driver/Src/stm32f0xx_hal_tim_ex.c ****     (+) Stop the Complementary One Pulse.
 888:cube/Drivers/STM32F0xx_HAL_Driver/Src/stm32f0xx_hal_tim_ex.c ****     (+) Start the Complementary One Pulse and enable interrupts.
 889:cube/Drivers/STM32F0xx_HAL_Driver/Src/stm32f0xx_hal_tim_ex.c ****     (+) Stop the Complementary One Pulse and disable interrupts.
 890:cube/Drivers/STM32F0xx_HAL_Driver/Src/stm32f0xx_hal_tim_ex.c **** 
 891:cube/Drivers/STM32F0xx_HAL_Driver/Src/stm32f0xx_hal_tim_ex.c **** @endverbatim
 892:cube/Drivers/STM32F0xx_HAL_Driver/Src/stm32f0xx_hal_tim_ex.c ****   * @{
 893:cube/Drivers/STM32F0xx_HAL_Driver/Src/stm32f0xx_hal_tim_ex.c ****   */
 894:cube/Drivers/STM32F0xx_HAL_Driver/Src/stm32f0xx_hal_tim_ex.c **** 
 895:cube/Drivers/STM32F0xx_HAL_Driver/Src/stm32f0xx_hal_tim_ex.c **** /**
 896:cube/Drivers/STM32F0xx_HAL_Driver/Src/stm32f0xx_hal_tim_ex.c ****   * @brief  Starts the PWM signal generation on the complementary output.
 897:cube/Drivers/STM32F0xx_HAL_Driver/Src/stm32f0xx_hal_tim_ex.c ****   * @param  htim TIM handle
 898:cube/Drivers/STM32F0xx_HAL_Driver/Src/stm32f0xx_hal_tim_ex.c ****   * @param  Channel TIM Channel to be enabled
 899:cube/Drivers/STM32F0xx_HAL_Driver/Src/stm32f0xx_hal_tim_ex.c ****   *          This parameter can be one of the following values:
 900:cube/Drivers/STM32F0xx_HAL_Driver/Src/stm32f0xx_hal_tim_ex.c ****   *            @arg TIM_CHANNEL_1: TIM Channel 1 selected
 901:cube/Drivers/STM32F0xx_HAL_Driver/Src/stm32f0xx_hal_tim_ex.c ****   *            @arg TIM_CHANNEL_2: TIM Channel 2 selected
 902:cube/Drivers/STM32F0xx_HAL_Driver/Src/stm32f0xx_hal_tim_ex.c ****   *            @arg TIM_CHANNEL_3: TIM Channel 3 selected
 903:cube/Drivers/STM32F0xx_HAL_Driver/Src/stm32f0xx_hal_tim_ex.c ****   *            @arg TIM_CHANNEL_4: TIM Channel 4 selected
 904:cube/Drivers/STM32F0xx_HAL_Driver/Src/stm32f0xx_hal_tim_ex.c ****   * @retval HAL status
 905:cube/Drivers/STM32F0xx_HAL_Driver/Src/stm32f0xx_hal_tim_ex.c ****   */
 906:cube/Drivers/STM32F0xx_HAL_Driver/Src/stm32f0xx_hal_tim_ex.c **** HAL_StatusTypeDef HAL_TIMEx_PWMN_Start(TIM_HandleTypeDef *htim, uint32_t Channel)
 907:cube/Drivers/STM32F0xx_HAL_Driver/Src/stm32f0xx_hal_tim_ex.c **** {
 1755              		.loc 1 907 0
 1756              		.cfi_startproc
 1757              		@ args = 0, pretend = 0, frame = 8
ARM GAS  /tmp/ccpevmba.s 			page 48


 1758              		@ frame_needed = 1, uses_anonymous_args = 0
 1759 0000 80B5     		push	{r7, lr}
 1760              		.cfi_def_cfa_offset 8
 1761              		.cfi_offset 7, -8
 1762              		.cfi_offset 14, -4
 1763 0002 82B0     		sub	sp, sp, #8
 1764              		.cfi_def_cfa_offset 16
 1765 0004 00AF     		add	r7, sp, #0
 1766              		.cfi_def_cfa_register 7
 1767 0006 7860     		str	r0, [r7, #4]
 1768 0008 3960     		str	r1, [r7]
 908:cube/Drivers/STM32F0xx_HAL_Driver/Src/stm32f0xx_hal_tim_ex.c ****   /* Check the parameters */
 909:cube/Drivers/STM32F0xx_HAL_Driver/Src/stm32f0xx_hal_tim_ex.c ****   assert_param(IS_TIM_CCXN_INSTANCE(htim->Instance, Channel));
 910:cube/Drivers/STM32F0xx_HAL_Driver/Src/stm32f0xx_hal_tim_ex.c **** 
 911:cube/Drivers/STM32F0xx_HAL_Driver/Src/stm32f0xx_hal_tim_ex.c ****   /* Enable the complementary PWM output  */
 912:cube/Drivers/STM32F0xx_HAL_Driver/Src/stm32f0xx_hal_tim_ex.c ****   TIM_CCxNChannelCmd(htim->Instance, Channel, TIM_CCxN_ENABLE);
 1769              		.loc 1 912 0
 1770 000a 7B68     		ldr	r3, [r7, #4]
 1771 000c 1B68     		ldr	r3, [r3]
 1772 000e 3968     		ldr	r1, [r7]
 1773 0010 0422     		movs	r2, #4
 1774 0012 1800     		movs	r0, r3
 1775 0014 FFF7FEFF 		bl	TIM_CCxNChannelCmd
 913:cube/Drivers/STM32F0xx_HAL_Driver/Src/stm32f0xx_hal_tim_ex.c **** 
 914:cube/Drivers/STM32F0xx_HAL_Driver/Src/stm32f0xx_hal_tim_ex.c ****   /* Enable the Main Ouput */
 915:cube/Drivers/STM32F0xx_HAL_Driver/Src/stm32f0xx_hal_tim_ex.c ****   __HAL_TIM_MOE_ENABLE(htim);
 1776              		.loc 1 915 0
 1777 0018 7B68     		ldr	r3, [r7, #4]
 1778 001a 1B68     		ldr	r3, [r3]
 1779 001c 5A6C     		ldr	r2, [r3, #68]
 1780 001e 7B68     		ldr	r3, [r7, #4]
 1781 0020 1B68     		ldr	r3, [r3]
 1782 0022 8021     		movs	r1, #128
 1783 0024 0902     		lsls	r1, r1, #8
 1784 0026 0A43     		orrs	r2, r1
 1785 0028 5A64     		str	r2, [r3, #68]
 916:cube/Drivers/STM32F0xx_HAL_Driver/Src/stm32f0xx_hal_tim_ex.c **** 
 917:cube/Drivers/STM32F0xx_HAL_Driver/Src/stm32f0xx_hal_tim_ex.c ****   /* Enable the Peripheral */
 918:cube/Drivers/STM32F0xx_HAL_Driver/Src/stm32f0xx_hal_tim_ex.c ****   __HAL_TIM_ENABLE(htim);
 1786              		.loc 1 918 0
 1787 002a 7B68     		ldr	r3, [r7, #4]
 1788 002c 1B68     		ldr	r3, [r3]
 1789 002e 1A68     		ldr	r2, [r3]
 1790 0030 7B68     		ldr	r3, [r7, #4]
 1791 0032 1B68     		ldr	r3, [r3]
 1792 0034 0121     		movs	r1, #1
 1793 0036 0A43     		orrs	r2, r1
 1794 0038 1A60     		str	r2, [r3]
 919:cube/Drivers/STM32F0xx_HAL_Driver/Src/stm32f0xx_hal_tim_ex.c **** 
 920:cube/Drivers/STM32F0xx_HAL_Driver/Src/stm32f0xx_hal_tim_ex.c ****   /* Return function status */
 921:cube/Drivers/STM32F0xx_HAL_Driver/Src/stm32f0xx_hal_tim_ex.c ****   return HAL_OK;
 1795              		.loc 1 921 0
 1796 003a 0023     		movs	r3, #0
 922:cube/Drivers/STM32F0xx_HAL_Driver/Src/stm32f0xx_hal_tim_ex.c **** }
 1797              		.loc 1 922 0
 1798 003c 1800     		movs	r0, r3
 1799 003e BD46     		mov	sp, r7
ARM GAS  /tmp/ccpevmba.s 			page 49


 1800 0040 02B0     		add	sp, sp, #8
 1801              		@ sp needed
 1802 0042 80BD     		pop	{r7, pc}
 1803              		.cfi_endproc
 1804              	.LFE53:
 1806              		.section	.text.HAL_TIMEx_PWMN_Stop,"ax",%progbits
 1807              		.align	1
 1808              		.global	HAL_TIMEx_PWMN_Stop
 1809              		.syntax unified
 1810              		.code	16
 1811              		.thumb_func
 1812              		.fpu softvfp
 1814              	HAL_TIMEx_PWMN_Stop:
 1815              	.LFB54:
 923:cube/Drivers/STM32F0xx_HAL_Driver/Src/stm32f0xx_hal_tim_ex.c **** 
 924:cube/Drivers/STM32F0xx_HAL_Driver/Src/stm32f0xx_hal_tim_ex.c **** /**
 925:cube/Drivers/STM32F0xx_HAL_Driver/Src/stm32f0xx_hal_tim_ex.c ****   * @brief  Stops the PWM signal generation on the complementary output.
 926:cube/Drivers/STM32F0xx_HAL_Driver/Src/stm32f0xx_hal_tim_ex.c ****   * @param  htim TIM handle
 927:cube/Drivers/STM32F0xx_HAL_Driver/Src/stm32f0xx_hal_tim_ex.c ****   * @param  Channel TIM Channel to be disabled
 928:cube/Drivers/STM32F0xx_HAL_Driver/Src/stm32f0xx_hal_tim_ex.c ****   *          This parameter can be one of the following values:
 929:cube/Drivers/STM32F0xx_HAL_Driver/Src/stm32f0xx_hal_tim_ex.c ****   *            @arg TIM_CHANNEL_1: TIM Channel 1 selected
 930:cube/Drivers/STM32F0xx_HAL_Driver/Src/stm32f0xx_hal_tim_ex.c ****   *            @arg TIM_CHANNEL_2: TIM Channel 2 selected
 931:cube/Drivers/STM32F0xx_HAL_Driver/Src/stm32f0xx_hal_tim_ex.c ****   *            @arg TIM_CHANNEL_3: TIM Channel 3 selected
 932:cube/Drivers/STM32F0xx_HAL_Driver/Src/stm32f0xx_hal_tim_ex.c ****   *            @arg TIM_CHANNEL_4: TIM Channel 4 selected
 933:cube/Drivers/STM32F0xx_HAL_Driver/Src/stm32f0xx_hal_tim_ex.c ****   * @retval HAL status
 934:cube/Drivers/STM32F0xx_HAL_Driver/Src/stm32f0xx_hal_tim_ex.c ****   */
 935:cube/Drivers/STM32F0xx_HAL_Driver/Src/stm32f0xx_hal_tim_ex.c **** HAL_StatusTypeDef HAL_TIMEx_PWMN_Stop(TIM_HandleTypeDef *htim, uint32_t Channel)
 936:cube/Drivers/STM32F0xx_HAL_Driver/Src/stm32f0xx_hal_tim_ex.c **** {
 1816              		.loc 1 936 0
 1817              		.cfi_startproc
 1818              		@ args = 0, pretend = 0, frame = 8
 1819              		@ frame_needed = 1, uses_anonymous_args = 0
 1820 0000 80B5     		push	{r7, lr}
 1821              		.cfi_def_cfa_offset 8
 1822              		.cfi_offset 7, -8
 1823              		.cfi_offset 14, -4
 1824 0002 82B0     		sub	sp, sp, #8
 1825              		.cfi_def_cfa_offset 16
 1826 0004 00AF     		add	r7, sp, #0
 1827              		.cfi_def_cfa_register 7
 1828 0006 7860     		str	r0, [r7, #4]
 1829 0008 3960     		str	r1, [r7]
 937:cube/Drivers/STM32F0xx_HAL_Driver/Src/stm32f0xx_hal_tim_ex.c ****   /* Check the parameters */
 938:cube/Drivers/STM32F0xx_HAL_Driver/Src/stm32f0xx_hal_tim_ex.c ****   assert_param(IS_TIM_CCXN_INSTANCE(htim->Instance, Channel));
 939:cube/Drivers/STM32F0xx_HAL_Driver/Src/stm32f0xx_hal_tim_ex.c **** 
 940:cube/Drivers/STM32F0xx_HAL_Driver/Src/stm32f0xx_hal_tim_ex.c ****   /* Disable the complementary PWM output  */
 941:cube/Drivers/STM32F0xx_HAL_Driver/Src/stm32f0xx_hal_tim_ex.c ****   TIM_CCxNChannelCmd(htim->Instance, Channel, TIM_CCxN_DISABLE);
 1830              		.loc 1 941 0
 1831 000a 7B68     		ldr	r3, [r7, #4]
 1832 000c 1B68     		ldr	r3, [r3]
 1833 000e 3968     		ldr	r1, [r7]
 1834 0010 0022     		movs	r2, #0
 1835 0012 1800     		movs	r0, r3
 1836 0014 FFF7FEFF 		bl	TIM_CCxNChannelCmd
 942:cube/Drivers/STM32F0xx_HAL_Driver/Src/stm32f0xx_hal_tim_ex.c **** 
 943:cube/Drivers/STM32F0xx_HAL_Driver/Src/stm32f0xx_hal_tim_ex.c ****   /* Disable the Main Ouput */
 944:cube/Drivers/STM32F0xx_HAL_Driver/Src/stm32f0xx_hal_tim_ex.c ****   __HAL_TIM_MOE_DISABLE(htim);
ARM GAS  /tmp/ccpevmba.s 			page 50


 1837              		.loc 1 944 0
 1838 0018 7B68     		ldr	r3, [r7, #4]
 1839 001a 1B68     		ldr	r3, [r3]
 1840 001c 1B6A     		ldr	r3, [r3, #32]
 1841 001e 154A     		ldr	r2, .L103
 1842 0020 1340     		ands	r3, r2
 1843 0022 0DD1     		bne	.L100
 1844              		.loc 1 944 0 is_stmt 0 discriminator 1
 1845 0024 7B68     		ldr	r3, [r7, #4]
 1846 0026 1B68     		ldr	r3, [r3]
 1847 0028 1B6A     		ldr	r3, [r3, #32]
 1848 002a 134A     		ldr	r2, .L103+4
 1849 002c 1340     		ands	r3, r2
 1850 002e 07D1     		bne	.L100
 1851              		.loc 1 944 0 discriminator 2
 1852 0030 7B68     		ldr	r3, [r7, #4]
 1853 0032 1B68     		ldr	r3, [r3]
 1854 0034 5A6C     		ldr	r2, [r3, #68]
 1855 0036 7B68     		ldr	r3, [r7, #4]
 1856 0038 1B68     		ldr	r3, [r3]
 1857 003a 1049     		ldr	r1, .L103+8
 1858 003c 0A40     		ands	r2, r1
 1859 003e 5A64     		str	r2, [r3, #68]
 1860              	.L100:
 945:cube/Drivers/STM32F0xx_HAL_Driver/Src/stm32f0xx_hal_tim_ex.c **** 
 946:cube/Drivers/STM32F0xx_HAL_Driver/Src/stm32f0xx_hal_tim_ex.c ****   /* Disable the Peripheral */
 947:cube/Drivers/STM32F0xx_HAL_Driver/Src/stm32f0xx_hal_tim_ex.c ****   __HAL_TIM_DISABLE(htim);
 1861              		.loc 1 947 0 is_stmt 1
 1862 0040 7B68     		ldr	r3, [r7, #4]
 1863 0042 1B68     		ldr	r3, [r3]
 1864 0044 1B6A     		ldr	r3, [r3, #32]
 1865 0046 0B4A     		ldr	r2, .L103
 1866 0048 1340     		ands	r3, r2
 1867 004a 0DD1     		bne	.L101
 1868              		.loc 1 947 0 is_stmt 0 discriminator 1
 1869 004c 7B68     		ldr	r3, [r7, #4]
 1870 004e 1B68     		ldr	r3, [r3]
 1871 0050 1B6A     		ldr	r3, [r3, #32]
 1872 0052 094A     		ldr	r2, .L103+4
 1873 0054 1340     		ands	r3, r2
 1874 0056 07D1     		bne	.L101
 1875              		.loc 1 947 0 discriminator 2
 1876 0058 7B68     		ldr	r3, [r7, #4]
 1877 005a 1B68     		ldr	r3, [r3]
 1878 005c 1A68     		ldr	r2, [r3]
 1879 005e 7B68     		ldr	r3, [r7, #4]
 1880 0060 1B68     		ldr	r3, [r3]
 1881 0062 0121     		movs	r1, #1
 1882 0064 8A43     		bics	r2, r1
 1883 0066 1A60     		str	r2, [r3]
 1884              	.L101:
 948:cube/Drivers/STM32F0xx_HAL_Driver/Src/stm32f0xx_hal_tim_ex.c **** 
 949:cube/Drivers/STM32F0xx_HAL_Driver/Src/stm32f0xx_hal_tim_ex.c ****   /* Return function status */
 950:cube/Drivers/STM32F0xx_HAL_Driver/Src/stm32f0xx_hal_tim_ex.c ****   return HAL_OK;
 1885              		.loc 1 950 0 is_stmt 1
 1886 0068 0023     		movs	r3, #0
 951:cube/Drivers/STM32F0xx_HAL_Driver/Src/stm32f0xx_hal_tim_ex.c **** }
ARM GAS  /tmp/ccpevmba.s 			page 51


 1887              		.loc 1 951 0
 1888 006a 1800     		movs	r0, r3
 1889 006c BD46     		mov	sp, r7
 1890 006e 02B0     		add	sp, sp, #8
 1891              		@ sp needed
 1892 0070 80BD     		pop	{r7, pc}
 1893              	.L104:
 1894 0072 C046     		.align	2
 1895              	.L103:
 1896 0074 11110000 		.word	4369
 1897 0078 44040000 		.word	1092
 1898 007c FF7FFFFF 		.word	-32769
 1899              		.cfi_endproc
 1900              	.LFE54:
 1902              		.section	.text.HAL_TIMEx_PWMN_Start_IT,"ax",%progbits
 1903              		.align	1
 1904              		.global	HAL_TIMEx_PWMN_Start_IT
 1905              		.syntax unified
 1906              		.code	16
 1907              		.thumb_func
 1908              		.fpu softvfp
 1910              	HAL_TIMEx_PWMN_Start_IT:
 1911              	.LFB55:
 952:cube/Drivers/STM32F0xx_HAL_Driver/Src/stm32f0xx_hal_tim_ex.c **** 
 953:cube/Drivers/STM32F0xx_HAL_Driver/Src/stm32f0xx_hal_tim_ex.c **** /**
 954:cube/Drivers/STM32F0xx_HAL_Driver/Src/stm32f0xx_hal_tim_ex.c ****   * @brief  Starts the PWM signal generation in interrupt mode on the 
 955:cube/Drivers/STM32F0xx_HAL_Driver/Src/stm32f0xx_hal_tim_ex.c ****   *         complementary output.
 956:cube/Drivers/STM32F0xx_HAL_Driver/Src/stm32f0xx_hal_tim_ex.c ****   * @param  htim TIM handle
 957:cube/Drivers/STM32F0xx_HAL_Driver/Src/stm32f0xx_hal_tim_ex.c ****   * @param  Channel TIM Channel to be disabled
 958:cube/Drivers/STM32F0xx_HAL_Driver/Src/stm32f0xx_hal_tim_ex.c ****   *          This parameter can be one of the following values:
 959:cube/Drivers/STM32F0xx_HAL_Driver/Src/stm32f0xx_hal_tim_ex.c ****   *            @arg TIM_CHANNEL_1: TIM Channel 1 selected
 960:cube/Drivers/STM32F0xx_HAL_Driver/Src/stm32f0xx_hal_tim_ex.c ****   *            @arg TIM_CHANNEL_2: TIM Channel 2 selected
 961:cube/Drivers/STM32F0xx_HAL_Driver/Src/stm32f0xx_hal_tim_ex.c ****   *            @arg TIM_CHANNEL_3: TIM Channel 3 selected
 962:cube/Drivers/STM32F0xx_HAL_Driver/Src/stm32f0xx_hal_tim_ex.c ****   *            @arg TIM_CHANNEL_4: TIM Channel 4 selected
 963:cube/Drivers/STM32F0xx_HAL_Driver/Src/stm32f0xx_hal_tim_ex.c ****   * @retval HAL status
 964:cube/Drivers/STM32F0xx_HAL_Driver/Src/stm32f0xx_hal_tim_ex.c ****   */
 965:cube/Drivers/STM32F0xx_HAL_Driver/Src/stm32f0xx_hal_tim_ex.c **** HAL_StatusTypeDef HAL_TIMEx_PWMN_Start_IT(TIM_HandleTypeDef *htim, uint32_t Channel)
 966:cube/Drivers/STM32F0xx_HAL_Driver/Src/stm32f0xx_hal_tim_ex.c **** {
 1912              		.loc 1 966 0
 1913              		.cfi_startproc
 1914              		@ args = 0, pretend = 0, frame = 8
 1915              		@ frame_needed = 1, uses_anonymous_args = 0
 1916 0000 80B5     		push	{r7, lr}
 1917              		.cfi_def_cfa_offset 8
 1918              		.cfi_offset 7, -8
 1919              		.cfi_offset 14, -4
 1920 0002 82B0     		sub	sp, sp, #8
 1921              		.cfi_def_cfa_offset 16
 1922 0004 00AF     		add	r7, sp, #0
 1923              		.cfi_def_cfa_register 7
 1924 0006 7860     		str	r0, [r7, #4]
 1925 0008 3960     		str	r1, [r7]
 967:cube/Drivers/STM32F0xx_HAL_Driver/Src/stm32f0xx_hal_tim_ex.c ****   /* Check the parameters */
 968:cube/Drivers/STM32F0xx_HAL_Driver/Src/stm32f0xx_hal_tim_ex.c ****   assert_param(IS_TIM_CCXN_INSTANCE(htim->Instance, Channel));
 969:cube/Drivers/STM32F0xx_HAL_Driver/Src/stm32f0xx_hal_tim_ex.c **** 
 970:cube/Drivers/STM32F0xx_HAL_Driver/Src/stm32f0xx_hal_tim_ex.c ****   switch (Channel)
 1926              		.loc 1 970 0
ARM GAS  /tmp/ccpevmba.s 			page 52


 1927 000a 3B68     		ldr	r3, [r7]
 1928 000c 042B     		cmp	r3, #4
 1929 000e 11D0     		beq	.L107
 1930 0010 02D8     		bhi	.L108
 1931 0012 002B     		cmp	r3, #0
 1932 0014 05D0     		beq	.L109
 971:cube/Drivers/STM32F0xx_HAL_Driver/Src/stm32f0xx_hal_tim_ex.c ****   {
 972:cube/Drivers/STM32F0xx_HAL_Driver/Src/stm32f0xx_hal_tim_ex.c ****     case TIM_CHANNEL_1:
 973:cube/Drivers/STM32F0xx_HAL_Driver/Src/stm32f0xx_hal_tim_ex.c ****     {
 974:cube/Drivers/STM32F0xx_HAL_Driver/Src/stm32f0xx_hal_tim_ex.c ****       /* Enable the TIM Capture/Compare 1 interrupt */
 975:cube/Drivers/STM32F0xx_HAL_Driver/Src/stm32f0xx_hal_tim_ex.c ****       __HAL_TIM_ENABLE_IT(htim, TIM_IT_CC1);
 976:cube/Drivers/STM32F0xx_HAL_Driver/Src/stm32f0xx_hal_tim_ex.c ****     }
 977:cube/Drivers/STM32F0xx_HAL_Driver/Src/stm32f0xx_hal_tim_ex.c ****     break;
 978:cube/Drivers/STM32F0xx_HAL_Driver/Src/stm32f0xx_hal_tim_ex.c **** 
 979:cube/Drivers/STM32F0xx_HAL_Driver/Src/stm32f0xx_hal_tim_ex.c ****     case TIM_CHANNEL_2:
 980:cube/Drivers/STM32F0xx_HAL_Driver/Src/stm32f0xx_hal_tim_ex.c ****     {
 981:cube/Drivers/STM32F0xx_HAL_Driver/Src/stm32f0xx_hal_tim_ex.c ****       /* Enable the TIM Capture/Compare 2 interrupt */
 982:cube/Drivers/STM32F0xx_HAL_Driver/Src/stm32f0xx_hal_tim_ex.c ****       __HAL_TIM_ENABLE_IT(htim, TIM_IT_CC2);
 983:cube/Drivers/STM32F0xx_HAL_Driver/Src/stm32f0xx_hal_tim_ex.c ****     }
 984:cube/Drivers/STM32F0xx_HAL_Driver/Src/stm32f0xx_hal_tim_ex.c ****     break;
 985:cube/Drivers/STM32F0xx_HAL_Driver/Src/stm32f0xx_hal_tim_ex.c **** 
 986:cube/Drivers/STM32F0xx_HAL_Driver/Src/stm32f0xx_hal_tim_ex.c ****     case TIM_CHANNEL_3:
 987:cube/Drivers/STM32F0xx_HAL_Driver/Src/stm32f0xx_hal_tim_ex.c ****     {
 988:cube/Drivers/STM32F0xx_HAL_Driver/Src/stm32f0xx_hal_tim_ex.c ****       /* Enable the TIM Capture/Compare 3 interrupt */
 989:cube/Drivers/STM32F0xx_HAL_Driver/Src/stm32f0xx_hal_tim_ex.c ****       __HAL_TIM_ENABLE_IT(htim, TIM_IT_CC3);
 990:cube/Drivers/STM32F0xx_HAL_Driver/Src/stm32f0xx_hal_tim_ex.c ****     }
 991:cube/Drivers/STM32F0xx_HAL_Driver/Src/stm32f0xx_hal_tim_ex.c ****     break;
 992:cube/Drivers/STM32F0xx_HAL_Driver/Src/stm32f0xx_hal_tim_ex.c **** 
 993:cube/Drivers/STM32F0xx_HAL_Driver/Src/stm32f0xx_hal_tim_ex.c ****     case TIM_CHANNEL_4:
 994:cube/Drivers/STM32F0xx_HAL_Driver/Src/stm32f0xx_hal_tim_ex.c ****     {
 995:cube/Drivers/STM32F0xx_HAL_Driver/Src/stm32f0xx_hal_tim_ex.c ****       /* Enable the TIM Capture/Compare 4 interrupt */
 996:cube/Drivers/STM32F0xx_HAL_Driver/Src/stm32f0xx_hal_tim_ex.c ****       __HAL_TIM_ENABLE_IT(htim, TIM_IT_CC4);
 997:cube/Drivers/STM32F0xx_HAL_Driver/Src/stm32f0xx_hal_tim_ex.c ****     }
 998:cube/Drivers/STM32F0xx_HAL_Driver/Src/stm32f0xx_hal_tim_ex.c ****     break;
 999:cube/Drivers/STM32F0xx_HAL_Driver/Src/stm32f0xx_hal_tim_ex.c **** 
1000:cube/Drivers/STM32F0xx_HAL_Driver/Src/stm32f0xx_hal_tim_ex.c ****     default:
1001:cube/Drivers/STM32F0xx_HAL_Driver/Src/stm32f0xx_hal_tim_ex.c ****     break;
 1933              		.loc 1 1001 0
 1934 0016 28E0     		b	.L112
 1935              	.L108:
 970:cube/Drivers/STM32F0xx_HAL_Driver/Src/stm32f0xx_hal_tim_ex.c ****   {
 1936              		.loc 1 970 0
 1937 0018 082B     		cmp	r3, #8
 1938 001a 14D0     		beq	.L110
 1939 001c 0C2B     		cmp	r3, #12
 1940 001e 1BD0     		beq	.L111
 1941              		.loc 1 1001 0
 1942 0020 23E0     		b	.L112
 1943              	.L109:
 975:cube/Drivers/STM32F0xx_HAL_Driver/Src/stm32f0xx_hal_tim_ex.c ****     }
 1944              		.loc 1 975 0
 1945 0022 7B68     		ldr	r3, [r7, #4]
 1946 0024 1B68     		ldr	r3, [r3]
 1947 0026 DA68     		ldr	r2, [r3, #12]
 1948 0028 7B68     		ldr	r3, [r7, #4]
 1949 002a 1B68     		ldr	r3, [r3]
 1950 002c 0221     		movs	r1, #2
ARM GAS  /tmp/ccpevmba.s 			page 53


 1951 002e 0A43     		orrs	r2, r1
 1952 0030 DA60     		str	r2, [r3, #12]
 977:cube/Drivers/STM32F0xx_HAL_Driver/Src/stm32f0xx_hal_tim_ex.c **** 
 1953              		.loc 1 977 0
 1954 0032 1AE0     		b	.L112
 1955              	.L107:
 982:cube/Drivers/STM32F0xx_HAL_Driver/Src/stm32f0xx_hal_tim_ex.c ****     }
 1956              		.loc 1 982 0
 1957 0034 7B68     		ldr	r3, [r7, #4]
 1958 0036 1B68     		ldr	r3, [r3]
 1959 0038 DA68     		ldr	r2, [r3, #12]
 1960 003a 7B68     		ldr	r3, [r7, #4]
 1961 003c 1B68     		ldr	r3, [r3]
 1962 003e 0421     		movs	r1, #4
 1963 0040 0A43     		orrs	r2, r1
 1964 0042 DA60     		str	r2, [r3, #12]
 984:cube/Drivers/STM32F0xx_HAL_Driver/Src/stm32f0xx_hal_tim_ex.c **** 
 1965              		.loc 1 984 0
 1966 0044 11E0     		b	.L112
 1967              	.L110:
 989:cube/Drivers/STM32F0xx_HAL_Driver/Src/stm32f0xx_hal_tim_ex.c ****     }
 1968              		.loc 1 989 0
 1969 0046 7B68     		ldr	r3, [r7, #4]
 1970 0048 1B68     		ldr	r3, [r3]
 1971 004a DA68     		ldr	r2, [r3, #12]
 1972 004c 7B68     		ldr	r3, [r7, #4]
 1973 004e 1B68     		ldr	r3, [r3]
 1974 0050 0821     		movs	r1, #8
 1975 0052 0A43     		orrs	r2, r1
 1976 0054 DA60     		str	r2, [r3, #12]
 991:cube/Drivers/STM32F0xx_HAL_Driver/Src/stm32f0xx_hal_tim_ex.c **** 
 1977              		.loc 1 991 0
 1978 0056 08E0     		b	.L112
 1979              	.L111:
 996:cube/Drivers/STM32F0xx_HAL_Driver/Src/stm32f0xx_hal_tim_ex.c ****     }
 1980              		.loc 1 996 0
 1981 0058 7B68     		ldr	r3, [r7, #4]
 1982 005a 1B68     		ldr	r3, [r3]
 1983 005c DA68     		ldr	r2, [r3, #12]
 1984 005e 7B68     		ldr	r3, [r7, #4]
 1985 0060 1B68     		ldr	r3, [r3]
 1986 0062 1021     		movs	r1, #16
 1987 0064 0A43     		orrs	r2, r1
 1988 0066 DA60     		str	r2, [r3, #12]
 998:cube/Drivers/STM32F0xx_HAL_Driver/Src/stm32f0xx_hal_tim_ex.c **** 
 1989              		.loc 1 998 0
 1990 0068 C046     		nop
 1991              	.L112:
1002:cube/Drivers/STM32F0xx_HAL_Driver/Src/stm32f0xx_hal_tim_ex.c ****   }
1003:cube/Drivers/STM32F0xx_HAL_Driver/Src/stm32f0xx_hal_tim_ex.c **** 
1004:cube/Drivers/STM32F0xx_HAL_Driver/Src/stm32f0xx_hal_tim_ex.c ****   /* Enable the TIM Break interrupt */
1005:cube/Drivers/STM32F0xx_HAL_Driver/Src/stm32f0xx_hal_tim_ex.c ****   __HAL_TIM_ENABLE_IT(htim, TIM_IT_BREAK);
 1992              		.loc 1 1005 0
 1993 006a 7B68     		ldr	r3, [r7, #4]
 1994 006c 1B68     		ldr	r3, [r3]
 1995 006e DA68     		ldr	r2, [r3, #12]
 1996 0070 7B68     		ldr	r3, [r7, #4]
ARM GAS  /tmp/ccpevmba.s 			page 54


 1997 0072 1B68     		ldr	r3, [r3]
 1998 0074 8021     		movs	r1, #128
 1999 0076 0A43     		orrs	r2, r1
 2000 0078 DA60     		str	r2, [r3, #12]
1006:cube/Drivers/STM32F0xx_HAL_Driver/Src/stm32f0xx_hal_tim_ex.c **** 
1007:cube/Drivers/STM32F0xx_HAL_Driver/Src/stm32f0xx_hal_tim_ex.c ****   /* Enable the complementary PWM output  */
1008:cube/Drivers/STM32F0xx_HAL_Driver/Src/stm32f0xx_hal_tim_ex.c ****   TIM_CCxNChannelCmd(htim->Instance, Channel, TIM_CCxN_ENABLE);
 2001              		.loc 1 1008 0
 2002 007a 7B68     		ldr	r3, [r7, #4]
 2003 007c 1B68     		ldr	r3, [r3]
 2004 007e 3968     		ldr	r1, [r7]
 2005 0080 0422     		movs	r2, #4
 2006 0082 1800     		movs	r0, r3
 2007 0084 FFF7FEFF 		bl	TIM_CCxNChannelCmd
1009:cube/Drivers/STM32F0xx_HAL_Driver/Src/stm32f0xx_hal_tim_ex.c **** 
1010:cube/Drivers/STM32F0xx_HAL_Driver/Src/stm32f0xx_hal_tim_ex.c ****   /* Enable the Main Ouput */
1011:cube/Drivers/STM32F0xx_HAL_Driver/Src/stm32f0xx_hal_tim_ex.c ****   __HAL_TIM_MOE_ENABLE(htim);
 2008              		.loc 1 1011 0
 2009 0088 7B68     		ldr	r3, [r7, #4]
 2010 008a 1B68     		ldr	r3, [r3]
 2011 008c 5A6C     		ldr	r2, [r3, #68]
 2012 008e 7B68     		ldr	r3, [r7, #4]
 2013 0090 1B68     		ldr	r3, [r3]
 2014 0092 8021     		movs	r1, #128
 2015 0094 0902     		lsls	r1, r1, #8
 2016 0096 0A43     		orrs	r2, r1
 2017 0098 5A64     		str	r2, [r3, #68]
1012:cube/Drivers/STM32F0xx_HAL_Driver/Src/stm32f0xx_hal_tim_ex.c **** 
1013:cube/Drivers/STM32F0xx_HAL_Driver/Src/stm32f0xx_hal_tim_ex.c ****   /* Enable the Peripheral */
1014:cube/Drivers/STM32F0xx_HAL_Driver/Src/stm32f0xx_hal_tim_ex.c ****   __HAL_TIM_ENABLE(htim);
 2018              		.loc 1 1014 0
 2019 009a 7B68     		ldr	r3, [r7, #4]
 2020 009c 1B68     		ldr	r3, [r3]
 2021 009e 1A68     		ldr	r2, [r3]
 2022 00a0 7B68     		ldr	r3, [r7, #4]
 2023 00a2 1B68     		ldr	r3, [r3]
 2024 00a4 0121     		movs	r1, #1
 2025 00a6 0A43     		orrs	r2, r1
 2026 00a8 1A60     		str	r2, [r3]
1015:cube/Drivers/STM32F0xx_HAL_Driver/Src/stm32f0xx_hal_tim_ex.c **** 
1016:cube/Drivers/STM32F0xx_HAL_Driver/Src/stm32f0xx_hal_tim_ex.c ****   /* Return function status */
1017:cube/Drivers/STM32F0xx_HAL_Driver/Src/stm32f0xx_hal_tim_ex.c ****   return HAL_OK;
 2027              		.loc 1 1017 0
 2028 00aa 0023     		movs	r3, #0
1018:cube/Drivers/STM32F0xx_HAL_Driver/Src/stm32f0xx_hal_tim_ex.c **** }
 2029              		.loc 1 1018 0
 2030 00ac 1800     		movs	r0, r3
 2031 00ae BD46     		mov	sp, r7
 2032 00b0 02B0     		add	sp, sp, #8
 2033              		@ sp needed
 2034 00b2 80BD     		pop	{r7, pc}
 2035              		.cfi_endproc
 2036              	.LFE55:
 2038              		.section	.text.HAL_TIMEx_PWMN_Stop_IT,"ax",%progbits
 2039              		.align	1
 2040              		.global	HAL_TIMEx_PWMN_Stop_IT
 2041              		.syntax unified
ARM GAS  /tmp/ccpevmba.s 			page 55


 2042              		.code	16
 2043              		.thumb_func
 2044              		.fpu softvfp
 2046              	HAL_TIMEx_PWMN_Stop_IT:
 2047              	.LFB56:
1019:cube/Drivers/STM32F0xx_HAL_Driver/Src/stm32f0xx_hal_tim_ex.c **** 
1020:cube/Drivers/STM32F0xx_HAL_Driver/Src/stm32f0xx_hal_tim_ex.c **** /**
1021:cube/Drivers/STM32F0xx_HAL_Driver/Src/stm32f0xx_hal_tim_ex.c ****   * @brief  Stops the PWM signal generation in interrupt mode on the 
1022:cube/Drivers/STM32F0xx_HAL_Driver/Src/stm32f0xx_hal_tim_ex.c ****   *         complementary output.
1023:cube/Drivers/STM32F0xx_HAL_Driver/Src/stm32f0xx_hal_tim_ex.c ****   * @param  htim TIM handle
1024:cube/Drivers/STM32F0xx_HAL_Driver/Src/stm32f0xx_hal_tim_ex.c ****   * @param  Channel TIM Channel to be disabled
1025:cube/Drivers/STM32F0xx_HAL_Driver/Src/stm32f0xx_hal_tim_ex.c ****   *          This parameter can be one of the following values:
1026:cube/Drivers/STM32F0xx_HAL_Driver/Src/stm32f0xx_hal_tim_ex.c ****   *            @arg TIM_CHANNEL_1: TIM Channel 1 selected
1027:cube/Drivers/STM32F0xx_HAL_Driver/Src/stm32f0xx_hal_tim_ex.c ****   *            @arg TIM_CHANNEL_2: TIM Channel 2 selected
1028:cube/Drivers/STM32F0xx_HAL_Driver/Src/stm32f0xx_hal_tim_ex.c ****   *            @arg TIM_CHANNEL_3: TIM Channel 3 selected
1029:cube/Drivers/STM32F0xx_HAL_Driver/Src/stm32f0xx_hal_tim_ex.c ****   *            @arg TIM_CHANNEL_4: TIM Channel 4 selected
1030:cube/Drivers/STM32F0xx_HAL_Driver/Src/stm32f0xx_hal_tim_ex.c ****   * @retval HAL status
1031:cube/Drivers/STM32F0xx_HAL_Driver/Src/stm32f0xx_hal_tim_ex.c ****   */
1032:cube/Drivers/STM32F0xx_HAL_Driver/Src/stm32f0xx_hal_tim_ex.c **** HAL_StatusTypeDef HAL_TIMEx_PWMN_Stop_IT (TIM_HandleTypeDef *htim, uint32_t Channel)
1033:cube/Drivers/STM32F0xx_HAL_Driver/Src/stm32f0xx_hal_tim_ex.c **** {
 2048              		.loc 1 1033 0
 2049              		.cfi_startproc
 2050              		@ args = 0, pretend = 0, frame = 16
 2051              		@ frame_needed = 1, uses_anonymous_args = 0
 2052 0000 80B5     		push	{r7, lr}
 2053              		.cfi_def_cfa_offset 8
 2054              		.cfi_offset 7, -8
 2055              		.cfi_offset 14, -4
 2056 0002 84B0     		sub	sp, sp, #16
 2057              		.cfi_def_cfa_offset 24
 2058 0004 00AF     		add	r7, sp, #0
 2059              		.cfi_def_cfa_register 7
 2060 0006 7860     		str	r0, [r7, #4]
 2061 0008 3960     		str	r1, [r7]
1034:cube/Drivers/STM32F0xx_HAL_Driver/Src/stm32f0xx_hal_tim_ex.c ****   uint32_t tmpccer = 0U;
 2062              		.loc 1 1034 0
 2063 000a 0023     		movs	r3, #0
 2064 000c FB60     		str	r3, [r7, #12]
1035:cube/Drivers/STM32F0xx_HAL_Driver/Src/stm32f0xx_hal_tim_ex.c **** 
1036:cube/Drivers/STM32F0xx_HAL_Driver/Src/stm32f0xx_hal_tim_ex.c ****   /* Check the parameters */
1037:cube/Drivers/STM32F0xx_HAL_Driver/Src/stm32f0xx_hal_tim_ex.c ****   assert_param(IS_TIM_CCXN_INSTANCE(htim->Instance, Channel));
1038:cube/Drivers/STM32F0xx_HAL_Driver/Src/stm32f0xx_hal_tim_ex.c **** 
1039:cube/Drivers/STM32F0xx_HAL_Driver/Src/stm32f0xx_hal_tim_ex.c ****   switch (Channel)
 2065              		.loc 1 1039 0
 2066 000e 3B68     		ldr	r3, [r7]
 2067 0010 042B     		cmp	r3, #4
 2068 0012 11D0     		beq	.L116
 2069 0014 02D8     		bhi	.L117
 2070 0016 002B     		cmp	r3, #0
 2071 0018 05D0     		beq	.L118
1040:cube/Drivers/STM32F0xx_HAL_Driver/Src/stm32f0xx_hal_tim_ex.c ****   {
1041:cube/Drivers/STM32F0xx_HAL_Driver/Src/stm32f0xx_hal_tim_ex.c ****     case TIM_CHANNEL_1:
1042:cube/Drivers/STM32F0xx_HAL_Driver/Src/stm32f0xx_hal_tim_ex.c ****     {
1043:cube/Drivers/STM32F0xx_HAL_Driver/Src/stm32f0xx_hal_tim_ex.c ****       /* Disable the TIM Capture/Compare 1 interrupt */
1044:cube/Drivers/STM32F0xx_HAL_Driver/Src/stm32f0xx_hal_tim_ex.c ****       __HAL_TIM_DISABLE_IT(htim, TIM_IT_CC1);
1045:cube/Drivers/STM32F0xx_HAL_Driver/Src/stm32f0xx_hal_tim_ex.c ****     }
1046:cube/Drivers/STM32F0xx_HAL_Driver/Src/stm32f0xx_hal_tim_ex.c ****     break;
ARM GAS  /tmp/ccpevmba.s 			page 56


1047:cube/Drivers/STM32F0xx_HAL_Driver/Src/stm32f0xx_hal_tim_ex.c **** 
1048:cube/Drivers/STM32F0xx_HAL_Driver/Src/stm32f0xx_hal_tim_ex.c ****     case TIM_CHANNEL_2:
1049:cube/Drivers/STM32F0xx_HAL_Driver/Src/stm32f0xx_hal_tim_ex.c ****     {
1050:cube/Drivers/STM32F0xx_HAL_Driver/Src/stm32f0xx_hal_tim_ex.c ****       /* Disable the TIM Capture/Compare 2 interrupt */
1051:cube/Drivers/STM32F0xx_HAL_Driver/Src/stm32f0xx_hal_tim_ex.c ****       __HAL_TIM_DISABLE_IT(htim, TIM_IT_CC2);
1052:cube/Drivers/STM32F0xx_HAL_Driver/Src/stm32f0xx_hal_tim_ex.c ****     }
1053:cube/Drivers/STM32F0xx_HAL_Driver/Src/stm32f0xx_hal_tim_ex.c ****     break;
1054:cube/Drivers/STM32F0xx_HAL_Driver/Src/stm32f0xx_hal_tim_ex.c **** 
1055:cube/Drivers/STM32F0xx_HAL_Driver/Src/stm32f0xx_hal_tim_ex.c ****     case TIM_CHANNEL_3:
1056:cube/Drivers/STM32F0xx_HAL_Driver/Src/stm32f0xx_hal_tim_ex.c ****     {
1057:cube/Drivers/STM32F0xx_HAL_Driver/Src/stm32f0xx_hal_tim_ex.c ****       /* Disable the TIM Capture/Compare 3 interrupt */
1058:cube/Drivers/STM32F0xx_HAL_Driver/Src/stm32f0xx_hal_tim_ex.c ****       __HAL_TIM_DISABLE_IT(htim, TIM_IT_CC3);
1059:cube/Drivers/STM32F0xx_HAL_Driver/Src/stm32f0xx_hal_tim_ex.c ****     }
1060:cube/Drivers/STM32F0xx_HAL_Driver/Src/stm32f0xx_hal_tim_ex.c ****     break;
1061:cube/Drivers/STM32F0xx_HAL_Driver/Src/stm32f0xx_hal_tim_ex.c **** 
1062:cube/Drivers/STM32F0xx_HAL_Driver/Src/stm32f0xx_hal_tim_ex.c ****     case TIM_CHANNEL_4:
1063:cube/Drivers/STM32F0xx_HAL_Driver/Src/stm32f0xx_hal_tim_ex.c ****     {
1064:cube/Drivers/STM32F0xx_HAL_Driver/Src/stm32f0xx_hal_tim_ex.c ****       /* Disable the TIM Capture/Compare 3 interrupt */
1065:cube/Drivers/STM32F0xx_HAL_Driver/Src/stm32f0xx_hal_tim_ex.c ****       __HAL_TIM_DISABLE_IT(htim, TIM_IT_CC4);
1066:cube/Drivers/STM32F0xx_HAL_Driver/Src/stm32f0xx_hal_tim_ex.c ****     }
1067:cube/Drivers/STM32F0xx_HAL_Driver/Src/stm32f0xx_hal_tim_ex.c ****     break;
1068:cube/Drivers/STM32F0xx_HAL_Driver/Src/stm32f0xx_hal_tim_ex.c **** 
1069:cube/Drivers/STM32F0xx_HAL_Driver/Src/stm32f0xx_hal_tim_ex.c ****     default:
1070:cube/Drivers/STM32F0xx_HAL_Driver/Src/stm32f0xx_hal_tim_ex.c ****     break;
 2072              		.loc 1 1070 0
 2073 001a 28E0     		b	.L121
 2074              	.L117:
1039:cube/Drivers/STM32F0xx_HAL_Driver/Src/stm32f0xx_hal_tim_ex.c ****   {
 2075              		.loc 1 1039 0
 2076 001c 082B     		cmp	r3, #8
 2077 001e 14D0     		beq	.L119
 2078 0020 0C2B     		cmp	r3, #12
 2079 0022 1BD0     		beq	.L120
 2080              		.loc 1 1070 0
 2081 0024 23E0     		b	.L121
 2082              	.L118:
1044:cube/Drivers/STM32F0xx_HAL_Driver/Src/stm32f0xx_hal_tim_ex.c ****     }
 2083              		.loc 1 1044 0
 2084 0026 7B68     		ldr	r3, [r7, #4]
 2085 0028 1B68     		ldr	r3, [r3]
 2086 002a DA68     		ldr	r2, [r3, #12]
 2087 002c 7B68     		ldr	r3, [r7, #4]
 2088 002e 1B68     		ldr	r3, [r3]
 2089 0030 0221     		movs	r1, #2
 2090 0032 8A43     		bics	r2, r1
 2091 0034 DA60     		str	r2, [r3, #12]
1046:cube/Drivers/STM32F0xx_HAL_Driver/Src/stm32f0xx_hal_tim_ex.c **** 
 2092              		.loc 1 1046 0
 2093 0036 1AE0     		b	.L121
 2094              	.L116:
1051:cube/Drivers/STM32F0xx_HAL_Driver/Src/stm32f0xx_hal_tim_ex.c ****     }
 2095              		.loc 1 1051 0
 2096 0038 7B68     		ldr	r3, [r7, #4]
 2097 003a 1B68     		ldr	r3, [r3]
 2098 003c DA68     		ldr	r2, [r3, #12]
 2099 003e 7B68     		ldr	r3, [r7, #4]
 2100 0040 1B68     		ldr	r3, [r3]
ARM GAS  /tmp/ccpevmba.s 			page 57


 2101 0042 0421     		movs	r1, #4
 2102 0044 8A43     		bics	r2, r1
 2103 0046 DA60     		str	r2, [r3, #12]
1053:cube/Drivers/STM32F0xx_HAL_Driver/Src/stm32f0xx_hal_tim_ex.c **** 
 2104              		.loc 1 1053 0
 2105 0048 11E0     		b	.L121
 2106              	.L119:
1058:cube/Drivers/STM32F0xx_HAL_Driver/Src/stm32f0xx_hal_tim_ex.c ****     }
 2107              		.loc 1 1058 0
 2108 004a 7B68     		ldr	r3, [r7, #4]
 2109 004c 1B68     		ldr	r3, [r3]
 2110 004e DA68     		ldr	r2, [r3, #12]
 2111 0050 7B68     		ldr	r3, [r7, #4]
 2112 0052 1B68     		ldr	r3, [r3]
 2113 0054 0821     		movs	r1, #8
 2114 0056 8A43     		bics	r2, r1
 2115 0058 DA60     		str	r2, [r3, #12]
1060:cube/Drivers/STM32F0xx_HAL_Driver/Src/stm32f0xx_hal_tim_ex.c **** 
 2116              		.loc 1 1060 0
 2117 005a 08E0     		b	.L121
 2118              	.L120:
1065:cube/Drivers/STM32F0xx_HAL_Driver/Src/stm32f0xx_hal_tim_ex.c ****     }
 2119              		.loc 1 1065 0
 2120 005c 7B68     		ldr	r3, [r7, #4]
 2121 005e 1B68     		ldr	r3, [r3]
 2122 0060 DA68     		ldr	r2, [r3, #12]
 2123 0062 7B68     		ldr	r3, [r7, #4]
 2124 0064 1B68     		ldr	r3, [r3]
 2125 0066 1021     		movs	r1, #16
 2126 0068 8A43     		bics	r2, r1
 2127 006a DA60     		str	r2, [r3, #12]
1067:cube/Drivers/STM32F0xx_HAL_Driver/Src/stm32f0xx_hal_tim_ex.c **** 
 2128              		.loc 1 1067 0
 2129 006c C046     		nop
 2130              	.L121:
1071:cube/Drivers/STM32F0xx_HAL_Driver/Src/stm32f0xx_hal_tim_ex.c ****   }
1072:cube/Drivers/STM32F0xx_HAL_Driver/Src/stm32f0xx_hal_tim_ex.c **** 
1073:cube/Drivers/STM32F0xx_HAL_Driver/Src/stm32f0xx_hal_tim_ex.c ****   /* Disable the complementary PWM output  */
1074:cube/Drivers/STM32F0xx_HAL_Driver/Src/stm32f0xx_hal_tim_ex.c ****   TIM_CCxNChannelCmd(htim->Instance, Channel, TIM_CCxN_DISABLE);
 2131              		.loc 1 1074 0
 2132 006e 7B68     		ldr	r3, [r7, #4]
 2133 0070 1B68     		ldr	r3, [r3]
 2134 0072 3968     		ldr	r1, [r7]
 2135 0074 0022     		movs	r2, #0
 2136 0076 1800     		movs	r0, r3
 2137 0078 FFF7FEFF 		bl	TIM_CCxNChannelCmd
1075:cube/Drivers/STM32F0xx_HAL_Driver/Src/stm32f0xx_hal_tim_ex.c **** 
1076:cube/Drivers/STM32F0xx_HAL_Driver/Src/stm32f0xx_hal_tim_ex.c ****   /* Disable the TIM Break interrupt (only if no more channel is active) */
1077:cube/Drivers/STM32F0xx_HAL_Driver/Src/stm32f0xx_hal_tim_ex.c ****   tmpccer = htim->Instance->CCER;
 2138              		.loc 1 1077 0
 2139 007c 7B68     		ldr	r3, [r7, #4]
 2140 007e 1B68     		ldr	r3, [r3]
 2141 0080 1B6A     		ldr	r3, [r3, #32]
 2142 0082 FB60     		str	r3, [r7, #12]
1078:cube/Drivers/STM32F0xx_HAL_Driver/Src/stm32f0xx_hal_tim_ex.c ****   if ((tmpccer & (TIM_CCER_CC1NE | TIM_CCER_CC2NE | TIM_CCER_CC3NE)) == RESET)
 2143              		.loc 1 1078 0
 2144 0084 FB68     		ldr	r3, [r7, #12]
ARM GAS  /tmp/ccpevmba.s 			page 58


 2145 0086 1C4A     		ldr	r2, .L126
 2146 0088 1340     		ands	r3, r2
 2147 008a 07D1     		bne	.L122
1079:cube/Drivers/STM32F0xx_HAL_Driver/Src/stm32f0xx_hal_tim_ex.c ****   {
1080:cube/Drivers/STM32F0xx_HAL_Driver/Src/stm32f0xx_hal_tim_ex.c ****     __HAL_TIM_DISABLE_IT(htim, TIM_IT_BREAK);
 2148              		.loc 1 1080 0
 2149 008c 7B68     		ldr	r3, [r7, #4]
 2150 008e 1B68     		ldr	r3, [r3]
 2151 0090 DA68     		ldr	r2, [r3, #12]
 2152 0092 7B68     		ldr	r3, [r7, #4]
 2153 0094 1B68     		ldr	r3, [r3]
 2154 0096 8021     		movs	r1, #128
 2155 0098 8A43     		bics	r2, r1
 2156 009a DA60     		str	r2, [r3, #12]
 2157              	.L122:
1081:cube/Drivers/STM32F0xx_HAL_Driver/Src/stm32f0xx_hal_tim_ex.c ****   }
1082:cube/Drivers/STM32F0xx_HAL_Driver/Src/stm32f0xx_hal_tim_ex.c **** 
1083:cube/Drivers/STM32F0xx_HAL_Driver/Src/stm32f0xx_hal_tim_ex.c ****   /* Disable the Main Ouput */
1084:cube/Drivers/STM32F0xx_HAL_Driver/Src/stm32f0xx_hal_tim_ex.c ****   __HAL_TIM_MOE_DISABLE(htim);
 2158              		.loc 1 1084 0
 2159 009c 7B68     		ldr	r3, [r7, #4]
 2160 009e 1B68     		ldr	r3, [r3]
 2161 00a0 1B6A     		ldr	r3, [r3, #32]
 2162 00a2 164A     		ldr	r2, .L126+4
 2163 00a4 1340     		ands	r3, r2
 2164 00a6 0DD1     		bne	.L123
 2165              		.loc 1 1084 0 is_stmt 0 discriminator 1
 2166 00a8 7B68     		ldr	r3, [r7, #4]
 2167 00aa 1B68     		ldr	r3, [r3]
 2168 00ac 1B6A     		ldr	r3, [r3, #32]
 2169 00ae 124A     		ldr	r2, .L126
 2170 00b0 1340     		ands	r3, r2
 2171 00b2 07D1     		bne	.L123
 2172              		.loc 1 1084 0 discriminator 2
 2173 00b4 7B68     		ldr	r3, [r7, #4]
 2174 00b6 1B68     		ldr	r3, [r3]
 2175 00b8 5A6C     		ldr	r2, [r3, #68]
 2176 00ba 7B68     		ldr	r3, [r7, #4]
 2177 00bc 1B68     		ldr	r3, [r3]
 2178 00be 1049     		ldr	r1, .L126+8
 2179 00c0 0A40     		ands	r2, r1
 2180 00c2 5A64     		str	r2, [r3, #68]
 2181              	.L123:
1085:cube/Drivers/STM32F0xx_HAL_Driver/Src/stm32f0xx_hal_tim_ex.c **** 
1086:cube/Drivers/STM32F0xx_HAL_Driver/Src/stm32f0xx_hal_tim_ex.c ****   /* Disable the Peripheral */
1087:cube/Drivers/STM32F0xx_HAL_Driver/Src/stm32f0xx_hal_tim_ex.c ****   __HAL_TIM_DISABLE(htim);
 2182              		.loc 1 1087 0 is_stmt 1
 2183 00c4 7B68     		ldr	r3, [r7, #4]
 2184 00c6 1B68     		ldr	r3, [r3]
 2185 00c8 1B6A     		ldr	r3, [r3, #32]
 2186 00ca 0C4A     		ldr	r2, .L126+4
 2187 00cc 1340     		ands	r3, r2
 2188 00ce 0DD1     		bne	.L124
 2189              		.loc 1 1087 0 is_stmt 0 discriminator 1
 2190 00d0 7B68     		ldr	r3, [r7, #4]
 2191 00d2 1B68     		ldr	r3, [r3]
 2192 00d4 1B6A     		ldr	r3, [r3, #32]
ARM GAS  /tmp/ccpevmba.s 			page 59


 2193 00d6 084A     		ldr	r2, .L126
 2194 00d8 1340     		ands	r3, r2
 2195 00da 07D1     		bne	.L124
 2196              		.loc 1 1087 0 discriminator 2
 2197 00dc 7B68     		ldr	r3, [r7, #4]
 2198 00de 1B68     		ldr	r3, [r3]
 2199 00e0 1A68     		ldr	r2, [r3]
 2200 00e2 7B68     		ldr	r3, [r7, #4]
 2201 00e4 1B68     		ldr	r3, [r3]
 2202 00e6 0121     		movs	r1, #1
 2203 00e8 8A43     		bics	r2, r1
 2204 00ea 1A60     		str	r2, [r3]
 2205              	.L124:
1088:cube/Drivers/STM32F0xx_HAL_Driver/Src/stm32f0xx_hal_tim_ex.c **** 
1089:cube/Drivers/STM32F0xx_HAL_Driver/Src/stm32f0xx_hal_tim_ex.c ****   /* Return function status */
1090:cube/Drivers/STM32F0xx_HAL_Driver/Src/stm32f0xx_hal_tim_ex.c ****   return HAL_OK;
 2206              		.loc 1 1090 0 is_stmt 1
 2207 00ec 0023     		movs	r3, #0
1091:cube/Drivers/STM32F0xx_HAL_Driver/Src/stm32f0xx_hal_tim_ex.c **** }
 2208              		.loc 1 1091 0
 2209 00ee 1800     		movs	r0, r3
 2210 00f0 BD46     		mov	sp, r7
 2211 00f2 04B0     		add	sp, sp, #16
 2212              		@ sp needed
 2213 00f4 80BD     		pop	{r7, pc}
 2214              	.L127:
 2215 00f6 C046     		.align	2
 2216              	.L126:
 2217 00f8 44040000 		.word	1092
 2218 00fc 11110000 		.word	4369
 2219 0100 FF7FFFFF 		.word	-32769
 2220              		.cfi_endproc
 2221              	.LFE56:
 2223              		.section	.text.HAL_TIMEx_PWMN_Start_DMA,"ax",%progbits
 2224              		.align	1
 2225              		.global	HAL_TIMEx_PWMN_Start_DMA
 2226              		.syntax unified
 2227              		.code	16
 2228              		.thumb_func
 2229              		.fpu softvfp
 2231              	HAL_TIMEx_PWMN_Start_DMA:
 2232              	.LFB57:
1092:cube/Drivers/STM32F0xx_HAL_Driver/Src/stm32f0xx_hal_tim_ex.c **** 
1093:cube/Drivers/STM32F0xx_HAL_Driver/Src/stm32f0xx_hal_tim_ex.c **** /**
1094:cube/Drivers/STM32F0xx_HAL_Driver/Src/stm32f0xx_hal_tim_ex.c ****   * @brief  Starts the TIM PWM signal generation in DMA mode on the 
1095:cube/Drivers/STM32F0xx_HAL_Driver/Src/stm32f0xx_hal_tim_ex.c ****   *         complementary output
1096:cube/Drivers/STM32F0xx_HAL_Driver/Src/stm32f0xx_hal_tim_ex.c ****   * @param  htim TIM handle
1097:cube/Drivers/STM32F0xx_HAL_Driver/Src/stm32f0xx_hal_tim_ex.c ****   * @param  Channel TIM Channel to be enabled
1098:cube/Drivers/STM32F0xx_HAL_Driver/Src/stm32f0xx_hal_tim_ex.c ****   *          This parameter can be one of the following values:
1099:cube/Drivers/STM32F0xx_HAL_Driver/Src/stm32f0xx_hal_tim_ex.c ****   *            @arg TIM_CHANNEL_1: TIM Channel 1 selected
1100:cube/Drivers/STM32F0xx_HAL_Driver/Src/stm32f0xx_hal_tim_ex.c ****   *            @arg TIM_CHANNEL_2: TIM Channel 2 selected
1101:cube/Drivers/STM32F0xx_HAL_Driver/Src/stm32f0xx_hal_tim_ex.c ****   *            @arg TIM_CHANNEL_3: TIM Channel 3 selected
1102:cube/Drivers/STM32F0xx_HAL_Driver/Src/stm32f0xx_hal_tim_ex.c ****   *            @arg TIM_CHANNEL_4: TIM Channel 4 selected
1103:cube/Drivers/STM32F0xx_HAL_Driver/Src/stm32f0xx_hal_tim_ex.c ****   * @param  pData The source Buffer address.
1104:cube/Drivers/STM32F0xx_HAL_Driver/Src/stm32f0xx_hal_tim_ex.c ****   * @param  Length The length of data to be transferred from memory to TIM peripheral
1105:cube/Drivers/STM32F0xx_HAL_Driver/Src/stm32f0xx_hal_tim_ex.c ****   * @retval HAL status
1106:cube/Drivers/STM32F0xx_HAL_Driver/Src/stm32f0xx_hal_tim_ex.c ****   */
ARM GAS  /tmp/ccpevmba.s 			page 60


1107:cube/Drivers/STM32F0xx_HAL_Driver/Src/stm32f0xx_hal_tim_ex.c **** HAL_StatusTypeDef HAL_TIMEx_PWMN_Start_DMA(TIM_HandleTypeDef *htim, uint32_t Channel, uint32_t *pDa
1108:cube/Drivers/STM32F0xx_HAL_Driver/Src/stm32f0xx_hal_tim_ex.c **** {
 2233              		.loc 1 1108 0
 2234              		.cfi_startproc
 2235              		@ args = 0, pretend = 0, frame = 16
 2236              		@ frame_needed = 1, uses_anonymous_args = 0
 2237 0000 80B5     		push	{r7, lr}
 2238              		.cfi_def_cfa_offset 8
 2239              		.cfi_offset 7, -8
 2240              		.cfi_offset 14, -4
 2241 0002 84B0     		sub	sp, sp, #16
 2242              		.cfi_def_cfa_offset 24
 2243 0004 00AF     		add	r7, sp, #0
 2244              		.cfi_def_cfa_register 7
 2245 0006 F860     		str	r0, [r7, #12]
 2246 0008 B960     		str	r1, [r7, #8]
 2247 000a 7A60     		str	r2, [r7, #4]
 2248 000c 1A00     		movs	r2, r3
 2249 000e BB1C     		adds	r3, r7, #2
 2250 0010 1A80     		strh	r2, [r3]
1109:cube/Drivers/STM32F0xx_HAL_Driver/Src/stm32f0xx_hal_tim_ex.c ****   /* Check the parameters */
1110:cube/Drivers/STM32F0xx_HAL_Driver/Src/stm32f0xx_hal_tim_ex.c ****   assert_param(IS_TIM_CCXN_INSTANCE(htim->Instance, Channel));
1111:cube/Drivers/STM32F0xx_HAL_Driver/Src/stm32f0xx_hal_tim_ex.c **** 
1112:cube/Drivers/STM32F0xx_HAL_Driver/Src/stm32f0xx_hal_tim_ex.c ****   if((htim->State == HAL_TIM_STATE_BUSY))
 2251              		.loc 1 1112 0
 2252 0012 FB68     		ldr	r3, [r7, #12]
 2253 0014 3D22     		movs	r2, #61
 2254 0016 9B5C     		ldrb	r3, [r3, r2]
 2255 0018 DBB2     		uxtb	r3, r3
 2256 001a 022B     		cmp	r3, #2
 2257 001c 01D1     		bne	.L129
1113:cube/Drivers/STM32F0xx_HAL_Driver/Src/stm32f0xx_hal_tim_ex.c ****   {
1114:cube/Drivers/STM32F0xx_HAL_Driver/Src/stm32f0xx_hal_tim_ex.c ****      return HAL_BUSY;
 2258              		.loc 1 1114 0
 2259 001e 0223     		movs	r3, #2
 2260 0020 ABE0     		b	.L130
 2261              	.L129:
1115:cube/Drivers/STM32F0xx_HAL_Driver/Src/stm32f0xx_hal_tim_ex.c ****   }
1116:cube/Drivers/STM32F0xx_HAL_Driver/Src/stm32f0xx_hal_tim_ex.c ****   else if((htim->State == HAL_TIM_STATE_READY))
 2262              		.loc 1 1116 0
 2263 0022 FB68     		ldr	r3, [r7, #12]
 2264 0024 3D22     		movs	r2, #61
 2265 0026 9B5C     		ldrb	r3, [r3, r2]
 2266 0028 DBB2     		uxtb	r3, r3
 2267 002a 012B     		cmp	r3, #1
 2268 002c 0CD1     		bne	.L131
1117:cube/Drivers/STM32F0xx_HAL_Driver/Src/stm32f0xx_hal_tim_ex.c ****   {
1118:cube/Drivers/STM32F0xx_HAL_Driver/Src/stm32f0xx_hal_tim_ex.c ****     if(((uint32_t)pData == 0U ) && (Length > 0U))
 2269              		.loc 1 1118 0
 2270 002e 7B68     		ldr	r3, [r7, #4]
 2271 0030 002B     		cmp	r3, #0
 2272 0032 05D1     		bne	.L132
 2273              		.loc 1 1118 0 is_stmt 0 discriminator 1
 2274 0034 BB1C     		adds	r3, r7, #2
 2275 0036 1B88     		ldrh	r3, [r3]
 2276 0038 002B     		cmp	r3, #0
 2277 003a 01D0     		beq	.L132
ARM GAS  /tmp/ccpevmba.s 			page 61


1119:cube/Drivers/STM32F0xx_HAL_Driver/Src/stm32f0xx_hal_tim_ex.c ****     {
1120:cube/Drivers/STM32F0xx_HAL_Driver/Src/stm32f0xx_hal_tim_ex.c ****       return HAL_ERROR;
 2278              		.loc 1 1120 0 is_stmt 1
 2279 003c 0123     		movs	r3, #1
 2280 003e 9CE0     		b	.L130
 2281              	.L132:
1121:cube/Drivers/STM32F0xx_HAL_Driver/Src/stm32f0xx_hal_tim_ex.c ****     }
1122:cube/Drivers/STM32F0xx_HAL_Driver/Src/stm32f0xx_hal_tim_ex.c ****     else
1123:cube/Drivers/STM32F0xx_HAL_Driver/Src/stm32f0xx_hal_tim_ex.c ****     {
1124:cube/Drivers/STM32F0xx_HAL_Driver/Src/stm32f0xx_hal_tim_ex.c ****       htim->State = HAL_TIM_STATE_BUSY;
 2282              		.loc 1 1124 0
 2283 0040 FB68     		ldr	r3, [r7, #12]
 2284 0042 3D22     		movs	r2, #61
 2285 0044 0221     		movs	r1, #2
 2286 0046 9954     		strb	r1, [r3, r2]
 2287              	.L131:
1125:cube/Drivers/STM32F0xx_HAL_Driver/Src/stm32f0xx_hal_tim_ex.c ****     }
1126:cube/Drivers/STM32F0xx_HAL_Driver/Src/stm32f0xx_hal_tim_ex.c ****   }
1127:cube/Drivers/STM32F0xx_HAL_Driver/Src/stm32f0xx_hal_tim_ex.c ****   switch (Channel)
 2288              		.loc 1 1127 0
 2289 0048 BB68     		ldr	r3, [r7, #8]
 2290 004a 042B     		cmp	r3, #4
 2291 004c 25D0     		beq	.L134
 2292 004e 02D8     		bhi	.L135
 2293 0050 002B     		cmp	r3, #0
 2294 0052 05D0     		beq	.L136
1128:cube/Drivers/STM32F0xx_HAL_Driver/Src/stm32f0xx_hal_tim_ex.c ****   {
1129:cube/Drivers/STM32F0xx_HAL_Driver/Src/stm32f0xx_hal_tim_ex.c ****     case TIM_CHANNEL_1:
1130:cube/Drivers/STM32F0xx_HAL_Driver/Src/stm32f0xx_hal_tim_ex.c ****     {
1131:cube/Drivers/STM32F0xx_HAL_Driver/Src/stm32f0xx_hal_tim_ex.c ****       /* Set the DMA Period elapsed callback */
1132:cube/Drivers/STM32F0xx_HAL_Driver/Src/stm32f0xx_hal_tim_ex.c ****       htim->hdma[TIM_DMA_ID_CC1]->XferCpltCallback = TIM_DMADelayPulseCplt;
1133:cube/Drivers/STM32F0xx_HAL_Driver/Src/stm32f0xx_hal_tim_ex.c **** 
1134:cube/Drivers/STM32F0xx_HAL_Driver/Src/stm32f0xx_hal_tim_ex.c ****       /* Set the DMA error callback */
1135:cube/Drivers/STM32F0xx_HAL_Driver/Src/stm32f0xx_hal_tim_ex.c ****       htim->hdma[TIM_DMA_ID_CC1]->XferErrorCallback = TIM_DMAError ;
1136:cube/Drivers/STM32F0xx_HAL_Driver/Src/stm32f0xx_hal_tim_ex.c **** 
1137:cube/Drivers/STM32F0xx_HAL_Driver/Src/stm32f0xx_hal_tim_ex.c ****       /* Enable the DMA channel */
1138:cube/Drivers/STM32F0xx_HAL_Driver/Src/stm32f0xx_hal_tim_ex.c ****       HAL_DMA_Start_IT(htim->hdma[TIM_DMA_ID_CC1], (uint32_t)pData, (uint32_t)&htim->Instance->CCR1
1139:cube/Drivers/STM32F0xx_HAL_Driver/Src/stm32f0xx_hal_tim_ex.c **** 
1140:cube/Drivers/STM32F0xx_HAL_Driver/Src/stm32f0xx_hal_tim_ex.c ****       /* Enable the TIM Capture/Compare 1 DMA request */
1141:cube/Drivers/STM32F0xx_HAL_Driver/Src/stm32f0xx_hal_tim_ex.c ****       __HAL_TIM_ENABLE_DMA(htim, TIM_DMA_CC1);
1142:cube/Drivers/STM32F0xx_HAL_Driver/Src/stm32f0xx_hal_tim_ex.c ****     }
1143:cube/Drivers/STM32F0xx_HAL_Driver/Src/stm32f0xx_hal_tim_ex.c ****     break;
1144:cube/Drivers/STM32F0xx_HAL_Driver/Src/stm32f0xx_hal_tim_ex.c **** 
1145:cube/Drivers/STM32F0xx_HAL_Driver/Src/stm32f0xx_hal_tim_ex.c ****     case TIM_CHANNEL_2:
1146:cube/Drivers/STM32F0xx_HAL_Driver/Src/stm32f0xx_hal_tim_ex.c ****     {
1147:cube/Drivers/STM32F0xx_HAL_Driver/Src/stm32f0xx_hal_tim_ex.c ****       /* Set the DMA Period elapsed callback */
1148:cube/Drivers/STM32F0xx_HAL_Driver/Src/stm32f0xx_hal_tim_ex.c ****       htim->hdma[TIM_DMA_ID_CC2]->XferCpltCallback = TIM_DMADelayPulseCplt;
1149:cube/Drivers/STM32F0xx_HAL_Driver/Src/stm32f0xx_hal_tim_ex.c **** 
1150:cube/Drivers/STM32F0xx_HAL_Driver/Src/stm32f0xx_hal_tim_ex.c ****       /* Set the DMA error callback */
1151:cube/Drivers/STM32F0xx_HAL_Driver/Src/stm32f0xx_hal_tim_ex.c ****       htim->hdma[TIM_DMA_ID_CC2]->XferErrorCallback = TIM_DMAError ;
1152:cube/Drivers/STM32F0xx_HAL_Driver/Src/stm32f0xx_hal_tim_ex.c **** 
1153:cube/Drivers/STM32F0xx_HAL_Driver/Src/stm32f0xx_hal_tim_ex.c ****       /* Enable the DMA channel */
1154:cube/Drivers/STM32F0xx_HAL_Driver/Src/stm32f0xx_hal_tim_ex.c ****       HAL_DMA_Start_IT(htim->hdma[TIM_DMA_ID_CC2], (uint32_t)pData, (uint32_t)&htim->Instance->CCR2
1155:cube/Drivers/STM32F0xx_HAL_Driver/Src/stm32f0xx_hal_tim_ex.c **** 
1156:cube/Drivers/STM32F0xx_HAL_Driver/Src/stm32f0xx_hal_tim_ex.c ****       /* Enable the TIM Capture/Compare 2 DMA request */
1157:cube/Drivers/STM32F0xx_HAL_Driver/Src/stm32f0xx_hal_tim_ex.c ****       __HAL_TIM_ENABLE_DMA(htim, TIM_DMA_CC2);
1158:cube/Drivers/STM32F0xx_HAL_Driver/Src/stm32f0xx_hal_tim_ex.c ****     }
ARM GAS  /tmp/ccpevmba.s 			page 62


1159:cube/Drivers/STM32F0xx_HAL_Driver/Src/stm32f0xx_hal_tim_ex.c ****     break;
1160:cube/Drivers/STM32F0xx_HAL_Driver/Src/stm32f0xx_hal_tim_ex.c **** 
1161:cube/Drivers/STM32F0xx_HAL_Driver/Src/stm32f0xx_hal_tim_ex.c ****     case TIM_CHANNEL_3:
1162:cube/Drivers/STM32F0xx_HAL_Driver/Src/stm32f0xx_hal_tim_ex.c ****     {
1163:cube/Drivers/STM32F0xx_HAL_Driver/Src/stm32f0xx_hal_tim_ex.c ****       /* Set the DMA Period elapsed callback */
1164:cube/Drivers/STM32F0xx_HAL_Driver/Src/stm32f0xx_hal_tim_ex.c ****       htim->hdma[TIM_DMA_ID_CC3]->XferCpltCallback = TIM_DMADelayPulseCplt;
1165:cube/Drivers/STM32F0xx_HAL_Driver/Src/stm32f0xx_hal_tim_ex.c **** 
1166:cube/Drivers/STM32F0xx_HAL_Driver/Src/stm32f0xx_hal_tim_ex.c ****       /* Set the DMA error callback */
1167:cube/Drivers/STM32F0xx_HAL_Driver/Src/stm32f0xx_hal_tim_ex.c ****       htim->hdma[TIM_DMA_ID_CC3]->XferErrorCallback = TIM_DMAError ;
1168:cube/Drivers/STM32F0xx_HAL_Driver/Src/stm32f0xx_hal_tim_ex.c **** 
1169:cube/Drivers/STM32F0xx_HAL_Driver/Src/stm32f0xx_hal_tim_ex.c ****       /* Enable the DMA channel */
1170:cube/Drivers/STM32F0xx_HAL_Driver/Src/stm32f0xx_hal_tim_ex.c ****       HAL_DMA_Start_IT(htim->hdma[TIM_DMA_ID_CC3], (uint32_t)pData, (uint32_t)&htim->Instance->CCR3
1171:cube/Drivers/STM32F0xx_HAL_Driver/Src/stm32f0xx_hal_tim_ex.c **** 
1172:cube/Drivers/STM32F0xx_HAL_Driver/Src/stm32f0xx_hal_tim_ex.c ****       /* Enable the TIM Capture/Compare 3 DMA request */
1173:cube/Drivers/STM32F0xx_HAL_Driver/Src/stm32f0xx_hal_tim_ex.c ****       __HAL_TIM_ENABLE_DMA(htim, TIM_DMA_CC3);
1174:cube/Drivers/STM32F0xx_HAL_Driver/Src/stm32f0xx_hal_tim_ex.c ****     }
1175:cube/Drivers/STM32F0xx_HAL_Driver/Src/stm32f0xx_hal_tim_ex.c ****     break;
1176:cube/Drivers/STM32F0xx_HAL_Driver/Src/stm32f0xx_hal_tim_ex.c **** 
1177:cube/Drivers/STM32F0xx_HAL_Driver/Src/stm32f0xx_hal_tim_ex.c ****     case TIM_CHANNEL_4:
1178:cube/Drivers/STM32F0xx_HAL_Driver/Src/stm32f0xx_hal_tim_ex.c ****     {
1179:cube/Drivers/STM32F0xx_HAL_Driver/Src/stm32f0xx_hal_tim_ex.c ****      /* Set the DMA Period elapsed callback */
1180:cube/Drivers/STM32F0xx_HAL_Driver/Src/stm32f0xx_hal_tim_ex.c ****       htim->hdma[TIM_DMA_ID_CC4]->XferCpltCallback = TIM_DMADelayPulseCplt;
1181:cube/Drivers/STM32F0xx_HAL_Driver/Src/stm32f0xx_hal_tim_ex.c **** 
1182:cube/Drivers/STM32F0xx_HAL_Driver/Src/stm32f0xx_hal_tim_ex.c ****       /* Set the DMA error callback */
1183:cube/Drivers/STM32F0xx_HAL_Driver/Src/stm32f0xx_hal_tim_ex.c ****       htim->hdma[TIM_DMA_ID_CC4]->XferErrorCallback = TIM_DMAError ;
1184:cube/Drivers/STM32F0xx_HAL_Driver/Src/stm32f0xx_hal_tim_ex.c **** 
1185:cube/Drivers/STM32F0xx_HAL_Driver/Src/stm32f0xx_hal_tim_ex.c ****       /* Enable the DMA channel */
1186:cube/Drivers/STM32F0xx_HAL_Driver/Src/stm32f0xx_hal_tim_ex.c ****       HAL_DMA_Start_IT(htim->hdma[TIM_DMA_ID_CC4], (uint32_t)pData, (uint32_t)&htim->Instance->CCR4
1187:cube/Drivers/STM32F0xx_HAL_Driver/Src/stm32f0xx_hal_tim_ex.c **** 
1188:cube/Drivers/STM32F0xx_HAL_Driver/Src/stm32f0xx_hal_tim_ex.c ****       /* Enable the TIM Capture/Compare 4 DMA request */
1189:cube/Drivers/STM32F0xx_HAL_Driver/Src/stm32f0xx_hal_tim_ex.c ****       __HAL_TIM_ENABLE_DMA(htim, TIM_DMA_CC4);
1190:cube/Drivers/STM32F0xx_HAL_Driver/Src/stm32f0xx_hal_tim_ex.c ****     }
1191:cube/Drivers/STM32F0xx_HAL_Driver/Src/stm32f0xx_hal_tim_ex.c ****     break;
1192:cube/Drivers/STM32F0xx_HAL_Driver/Src/stm32f0xx_hal_tim_ex.c **** 
1193:cube/Drivers/STM32F0xx_HAL_Driver/Src/stm32f0xx_hal_tim_ex.c ****     default:
1194:cube/Drivers/STM32F0xx_HAL_Driver/Src/stm32f0xx_hal_tim_ex.c ****     break;
 2295              		.loc 1 1194 0
 2296 0054 78E0     		b	.L139
 2297              	.L135:
1127:cube/Drivers/STM32F0xx_HAL_Driver/Src/stm32f0xx_hal_tim_ex.c ****   {
 2298              		.loc 1 1127 0
 2299 0056 082B     		cmp	r3, #8
 2300 0058 3CD0     		beq	.L137
 2301 005a 0C2B     		cmp	r3, #12
 2302 005c 57D0     		beq	.L138
 2303              		.loc 1 1194 0
 2304 005e 73E0     		b	.L139
 2305              	.L136:
1132:cube/Drivers/STM32F0xx_HAL_Driver/Src/stm32f0xx_hal_tim_ex.c **** 
 2306              		.loc 1 1132 0
 2307 0060 FB68     		ldr	r3, [r7, #12]
 2308 0062 5B6A     		ldr	r3, [r3, #36]
 2309 0064 474A     		ldr	r2, .L140
 2310 0066 9A62     		str	r2, [r3, #40]
1135:cube/Drivers/STM32F0xx_HAL_Driver/Src/stm32f0xx_hal_tim_ex.c **** 
 2311              		.loc 1 1135 0
 2312 0068 FB68     		ldr	r3, [r7, #12]
ARM GAS  /tmp/ccpevmba.s 			page 63


 2313 006a 5B6A     		ldr	r3, [r3, #36]
 2314 006c 464A     		ldr	r2, .L140+4
 2315 006e 1A63     		str	r2, [r3, #48]
1138:cube/Drivers/STM32F0xx_HAL_Driver/Src/stm32f0xx_hal_tim_ex.c **** 
 2316              		.loc 1 1138 0
 2317 0070 FB68     		ldr	r3, [r7, #12]
 2318 0072 586A     		ldr	r0, [r3, #36]
 2319 0074 7968     		ldr	r1, [r7, #4]
 2320 0076 FB68     		ldr	r3, [r7, #12]
 2321 0078 1B68     		ldr	r3, [r3]
 2322 007a 3433     		adds	r3, r3, #52
 2323 007c 1A00     		movs	r2, r3
 2324 007e BB1C     		adds	r3, r7, #2
 2325 0080 1B88     		ldrh	r3, [r3]
 2326 0082 FFF7FEFF 		bl	HAL_DMA_Start_IT
1141:cube/Drivers/STM32F0xx_HAL_Driver/Src/stm32f0xx_hal_tim_ex.c ****     }
 2327              		.loc 1 1141 0
 2328 0086 FB68     		ldr	r3, [r7, #12]
 2329 0088 1B68     		ldr	r3, [r3]
 2330 008a DA68     		ldr	r2, [r3, #12]
 2331 008c FB68     		ldr	r3, [r7, #12]
 2332 008e 1B68     		ldr	r3, [r3]
 2333 0090 8021     		movs	r1, #128
 2334 0092 8900     		lsls	r1, r1, #2
 2335 0094 0A43     		orrs	r2, r1
 2336 0096 DA60     		str	r2, [r3, #12]
1143:cube/Drivers/STM32F0xx_HAL_Driver/Src/stm32f0xx_hal_tim_ex.c **** 
 2337              		.loc 1 1143 0
 2338 0098 56E0     		b	.L139
 2339              	.L134:
1148:cube/Drivers/STM32F0xx_HAL_Driver/Src/stm32f0xx_hal_tim_ex.c **** 
 2340              		.loc 1 1148 0
 2341 009a FB68     		ldr	r3, [r7, #12]
 2342 009c 9B6A     		ldr	r3, [r3, #40]
 2343 009e 394A     		ldr	r2, .L140
 2344 00a0 9A62     		str	r2, [r3, #40]
1151:cube/Drivers/STM32F0xx_HAL_Driver/Src/stm32f0xx_hal_tim_ex.c **** 
 2345              		.loc 1 1151 0
 2346 00a2 FB68     		ldr	r3, [r7, #12]
 2347 00a4 9B6A     		ldr	r3, [r3, #40]
 2348 00a6 384A     		ldr	r2, .L140+4
 2349 00a8 1A63     		str	r2, [r3, #48]
1154:cube/Drivers/STM32F0xx_HAL_Driver/Src/stm32f0xx_hal_tim_ex.c **** 
 2350              		.loc 1 1154 0
 2351 00aa FB68     		ldr	r3, [r7, #12]
 2352 00ac 986A     		ldr	r0, [r3, #40]
 2353 00ae 7968     		ldr	r1, [r7, #4]
 2354 00b0 FB68     		ldr	r3, [r7, #12]
 2355 00b2 1B68     		ldr	r3, [r3]
 2356 00b4 3833     		adds	r3, r3, #56
 2357 00b6 1A00     		movs	r2, r3
 2358 00b8 BB1C     		adds	r3, r7, #2
 2359 00ba 1B88     		ldrh	r3, [r3]
 2360 00bc FFF7FEFF 		bl	HAL_DMA_Start_IT
1157:cube/Drivers/STM32F0xx_HAL_Driver/Src/stm32f0xx_hal_tim_ex.c ****     }
 2361              		.loc 1 1157 0
 2362 00c0 FB68     		ldr	r3, [r7, #12]
ARM GAS  /tmp/ccpevmba.s 			page 64


 2363 00c2 1B68     		ldr	r3, [r3]
 2364 00c4 DA68     		ldr	r2, [r3, #12]
 2365 00c6 FB68     		ldr	r3, [r7, #12]
 2366 00c8 1B68     		ldr	r3, [r3]
 2367 00ca 8021     		movs	r1, #128
 2368 00cc C900     		lsls	r1, r1, #3
 2369 00ce 0A43     		orrs	r2, r1
 2370 00d0 DA60     		str	r2, [r3, #12]
1159:cube/Drivers/STM32F0xx_HAL_Driver/Src/stm32f0xx_hal_tim_ex.c **** 
 2371              		.loc 1 1159 0
 2372 00d2 39E0     		b	.L139
 2373              	.L137:
1164:cube/Drivers/STM32F0xx_HAL_Driver/Src/stm32f0xx_hal_tim_ex.c **** 
 2374              		.loc 1 1164 0
 2375 00d4 FB68     		ldr	r3, [r7, #12]
 2376 00d6 DB6A     		ldr	r3, [r3, #44]
 2377 00d8 2A4A     		ldr	r2, .L140
 2378 00da 9A62     		str	r2, [r3, #40]
1167:cube/Drivers/STM32F0xx_HAL_Driver/Src/stm32f0xx_hal_tim_ex.c **** 
 2379              		.loc 1 1167 0
 2380 00dc FB68     		ldr	r3, [r7, #12]
 2381 00de DB6A     		ldr	r3, [r3, #44]
 2382 00e0 294A     		ldr	r2, .L140+4
 2383 00e2 1A63     		str	r2, [r3, #48]
1170:cube/Drivers/STM32F0xx_HAL_Driver/Src/stm32f0xx_hal_tim_ex.c **** 
 2384              		.loc 1 1170 0
 2385 00e4 FB68     		ldr	r3, [r7, #12]
 2386 00e6 D86A     		ldr	r0, [r3, #44]
 2387 00e8 7968     		ldr	r1, [r7, #4]
 2388 00ea FB68     		ldr	r3, [r7, #12]
 2389 00ec 1B68     		ldr	r3, [r3]
 2390 00ee 3C33     		adds	r3, r3, #60
 2391 00f0 1A00     		movs	r2, r3
 2392 00f2 BB1C     		adds	r3, r7, #2
 2393 00f4 1B88     		ldrh	r3, [r3]
 2394 00f6 FFF7FEFF 		bl	HAL_DMA_Start_IT
1173:cube/Drivers/STM32F0xx_HAL_Driver/Src/stm32f0xx_hal_tim_ex.c ****     }
 2395              		.loc 1 1173 0
 2396 00fa FB68     		ldr	r3, [r7, #12]
 2397 00fc 1B68     		ldr	r3, [r3]
 2398 00fe DA68     		ldr	r2, [r3, #12]
 2399 0100 FB68     		ldr	r3, [r7, #12]
 2400 0102 1B68     		ldr	r3, [r3]
 2401 0104 8021     		movs	r1, #128
 2402 0106 0901     		lsls	r1, r1, #4
 2403 0108 0A43     		orrs	r2, r1
 2404 010a DA60     		str	r2, [r3, #12]
1175:cube/Drivers/STM32F0xx_HAL_Driver/Src/stm32f0xx_hal_tim_ex.c **** 
 2405              		.loc 1 1175 0
 2406 010c 1CE0     		b	.L139
 2407              	.L138:
1180:cube/Drivers/STM32F0xx_HAL_Driver/Src/stm32f0xx_hal_tim_ex.c **** 
 2408              		.loc 1 1180 0
 2409 010e FB68     		ldr	r3, [r7, #12]
 2410 0110 1B6B     		ldr	r3, [r3, #48]
 2411 0112 1C4A     		ldr	r2, .L140
 2412 0114 9A62     		str	r2, [r3, #40]
ARM GAS  /tmp/ccpevmba.s 			page 65


1183:cube/Drivers/STM32F0xx_HAL_Driver/Src/stm32f0xx_hal_tim_ex.c **** 
 2413              		.loc 1 1183 0
 2414 0116 FB68     		ldr	r3, [r7, #12]
 2415 0118 1B6B     		ldr	r3, [r3, #48]
 2416 011a 1B4A     		ldr	r2, .L140+4
 2417 011c 1A63     		str	r2, [r3, #48]
1186:cube/Drivers/STM32F0xx_HAL_Driver/Src/stm32f0xx_hal_tim_ex.c **** 
 2418              		.loc 1 1186 0
 2419 011e FB68     		ldr	r3, [r7, #12]
 2420 0120 186B     		ldr	r0, [r3, #48]
 2421 0122 7968     		ldr	r1, [r7, #4]
 2422 0124 FB68     		ldr	r3, [r7, #12]
 2423 0126 1B68     		ldr	r3, [r3]
 2424 0128 4033     		adds	r3, r3, #64
 2425 012a 1A00     		movs	r2, r3
 2426 012c BB1C     		adds	r3, r7, #2
 2427 012e 1B88     		ldrh	r3, [r3]
 2428 0130 FFF7FEFF 		bl	HAL_DMA_Start_IT
1189:cube/Drivers/STM32F0xx_HAL_Driver/Src/stm32f0xx_hal_tim_ex.c ****     }
 2429              		.loc 1 1189 0
 2430 0134 FB68     		ldr	r3, [r7, #12]
 2431 0136 1B68     		ldr	r3, [r3]
 2432 0138 DA68     		ldr	r2, [r3, #12]
 2433 013a FB68     		ldr	r3, [r7, #12]
 2434 013c 1B68     		ldr	r3, [r3]
 2435 013e 8021     		movs	r1, #128
 2436 0140 4901     		lsls	r1, r1, #5
 2437 0142 0A43     		orrs	r2, r1
 2438 0144 DA60     		str	r2, [r3, #12]
1191:cube/Drivers/STM32F0xx_HAL_Driver/Src/stm32f0xx_hal_tim_ex.c **** 
 2439              		.loc 1 1191 0
 2440 0146 C046     		nop
 2441              	.L139:
1195:cube/Drivers/STM32F0xx_HAL_Driver/Src/stm32f0xx_hal_tim_ex.c ****   }
1196:cube/Drivers/STM32F0xx_HAL_Driver/Src/stm32f0xx_hal_tim_ex.c **** 
1197:cube/Drivers/STM32F0xx_HAL_Driver/Src/stm32f0xx_hal_tim_ex.c ****   /* Enable the complementary PWM output  */
1198:cube/Drivers/STM32F0xx_HAL_Driver/Src/stm32f0xx_hal_tim_ex.c ****      TIM_CCxNChannelCmd(htim->Instance, Channel, TIM_CCxN_ENABLE);
 2442              		.loc 1 1198 0
 2443 0148 FB68     		ldr	r3, [r7, #12]
 2444 014a 1B68     		ldr	r3, [r3]
 2445 014c B968     		ldr	r1, [r7, #8]
 2446 014e 0422     		movs	r2, #4
 2447 0150 1800     		movs	r0, r3
 2448 0152 FFF7FEFF 		bl	TIM_CCxNChannelCmd
1199:cube/Drivers/STM32F0xx_HAL_Driver/Src/stm32f0xx_hal_tim_ex.c **** 
1200:cube/Drivers/STM32F0xx_HAL_Driver/Src/stm32f0xx_hal_tim_ex.c ****   /* Enable the Main Ouput */
1201:cube/Drivers/STM32F0xx_HAL_Driver/Src/stm32f0xx_hal_tim_ex.c ****     __HAL_TIM_MOE_ENABLE(htim);
 2449              		.loc 1 1201 0
 2450 0156 FB68     		ldr	r3, [r7, #12]
 2451 0158 1B68     		ldr	r3, [r3]
 2452 015a 5A6C     		ldr	r2, [r3, #68]
 2453 015c FB68     		ldr	r3, [r7, #12]
 2454 015e 1B68     		ldr	r3, [r3]
 2455 0160 8021     		movs	r1, #128
 2456 0162 0902     		lsls	r1, r1, #8
 2457 0164 0A43     		orrs	r2, r1
 2458 0166 5A64     		str	r2, [r3, #68]
ARM GAS  /tmp/ccpevmba.s 			page 66


1202:cube/Drivers/STM32F0xx_HAL_Driver/Src/stm32f0xx_hal_tim_ex.c **** 
1203:cube/Drivers/STM32F0xx_HAL_Driver/Src/stm32f0xx_hal_tim_ex.c ****   /* Enable the Peripheral */
1204:cube/Drivers/STM32F0xx_HAL_Driver/Src/stm32f0xx_hal_tim_ex.c ****   __HAL_TIM_ENABLE(htim);
 2459              		.loc 1 1204 0
 2460 0168 FB68     		ldr	r3, [r7, #12]
 2461 016a 1B68     		ldr	r3, [r3]
 2462 016c 1A68     		ldr	r2, [r3]
 2463 016e FB68     		ldr	r3, [r7, #12]
 2464 0170 1B68     		ldr	r3, [r3]
 2465 0172 0121     		movs	r1, #1
 2466 0174 0A43     		orrs	r2, r1
 2467 0176 1A60     		str	r2, [r3]
1205:cube/Drivers/STM32F0xx_HAL_Driver/Src/stm32f0xx_hal_tim_ex.c **** 
1206:cube/Drivers/STM32F0xx_HAL_Driver/Src/stm32f0xx_hal_tim_ex.c ****   /* Return function status */
1207:cube/Drivers/STM32F0xx_HAL_Driver/Src/stm32f0xx_hal_tim_ex.c ****   return HAL_OK;
 2468              		.loc 1 1207 0
 2469 0178 0023     		movs	r3, #0
 2470              	.L130:
1208:cube/Drivers/STM32F0xx_HAL_Driver/Src/stm32f0xx_hal_tim_ex.c **** }
 2471              		.loc 1 1208 0
 2472 017a 1800     		movs	r0, r3
 2473 017c BD46     		mov	sp, r7
 2474 017e 04B0     		add	sp, sp, #16
 2475              		@ sp needed
 2476 0180 80BD     		pop	{r7, pc}
 2477              	.L141:
 2478 0182 C046     		.align	2
 2479              	.L140:
 2480 0184 00000000 		.word	TIM_DMADelayPulseCplt
 2481 0188 00000000 		.word	TIM_DMAError
 2482              		.cfi_endproc
 2483              	.LFE57:
 2485              		.section	.text.HAL_TIMEx_PWMN_Stop_DMA,"ax",%progbits
 2486              		.align	1
 2487              		.global	HAL_TIMEx_PWMN_Stop_DMA
 2488              		.syntax unified
 2489              		.code	16
 2490              		.thumb_func
 2491              		.fpu softvfp
 2493              	HAL_TIMEx_PWMN_Stop_DMA:
 2494              	.LFB58:
1209:cube/Drivers/STM32F0xx_HAL_Driver/Src/stm32f0xx_hal_tim_ex.c **** 
1210:cube/Drivers/STM32F0xx_HAL_Driver/Src/stm32f0xx_hal_tim_ex.c **** /**
1211:cube/Drivers/STM32F0xx_HAL_Driver/Src/stm32f0xx_hal_tim_ex.c ****   * @brief  Stops the TIM PWM signal generation in DMA mode on the complementary
1212:cube/Drivers/STM32F0xx_HAL_Driver/Src/stm32f0xx_hal_tim_ex.c ****   *         output
1213:cube/Drivers/STM32F0xx_HAL_Driver/Src/stm32f0xx_hal_tim_ex.c ****   * @param  htim TIM handle
1214:cube/Drivers/STM32F0xx_HAL_Driver/Src/stm32f0xx_hal_tim_ex.c ****   * @param  Channel TIM Channel to be disabled
1215:cube/Drivers/STM32F0xx_HAL_Driver/Src/stm32f0xx_hal_tim_ex.c ****   *          This parameter can be one of the following values:
1216:cube/Drivers/STM32F0xx_HAL_Driver/Src/stm32f0xx_hal_tim_ex.c ****   *            @arg TIM_CHANNEL_1: TIM Channel 1 selected
1217:cube/Drivers/STM32F0xx_HAL_Driver/Src/stm32f0xx_hal_tim_ex.c ****   *            @arg TIM_CHANNEL_2: TIM Channel 2 selected
1218:cube/Drivers/STM32F0xx_HAL_Driver/Src/stm32f0xx_hal_tim_ex.c ****   *            @arg TIM_CHANNEL_3: TIM Channel 3 selected
1219:cube/Drivers/STM32F0xx_HAL_Driver/Src/stm32f0xx_hal_tim_ex.c ****   *            @arg TIM_CHANNEL_4: TIM Channel 4 selected
1220:cube/Drivers/STM32F0xx_HAL_Driver/Src/stm32f0xx_hal_tim_ex.c ****   * @retval HAL status
1221:cube/Drivers/STM32F0xx_HAL_Driver/Src/stm32f0xx_hal_tim_ex.c ****   */
1222:cube/Drivers/STM32F0xx_HAL_Driver/Src/stm32f0xx_hal_tim_ex.c **** HAL_StatusTypeDef HAL_TIMEx_PWMN_Stop_DMA(TIM_HandleTypeDef *htim, uint32_t Channel)
1223:cube/Drivers/STM32F0xx_HAL_Driver/Src/stm32f0xx_hal_tim_ex.c **** {
 2495              		.loc 1 1223 0
ARM GAS  /tmp/ccpevmba.s 			page 67


 2496              		.cfi_startproc
 2497              		@ args = 0, pretend = 0, frame = 8
 2498              		@ frame_needed = 1, uses_anonymous_args = 0
 2499 0000 80B5     		push	{r7, lr}
 2500              		.cfi_def_cfa_offset 8
 2501              		.cfi_offset 7, -8
 2502              		.cfi_offset 14, -4
 2503 0002 82B0     		sub	sp, sp, #8
 2504              		.cfi_def_cfa_offset 16
 2505 0004 00AF     		add	r7, sp, #0
 2506              		.cfi_def_cfa_register 7
 2507 0006 7860     		str	r0, [r7, #4]
 2508 0008 3960     		str	r1, [r7]
1224:cube/Drivers/STM32F0xx_HAL_Driver/Src/stm32f0xx_hal_tim_ex.c ****   /* Check the parameters */
1225:cube/Drivers/STM32F0xx_HAL_Driver/Src/stm32f0xx_hal_tim_ex.c ****   assert_param(IS_TIM_CCXN_INSTANCE(htim->Instance, Channel));
1226:cube/Drivers/STM32F0xx_HAL_Driver/Src/stm32f0xx_hal_tim_ex.c **** 
1227:cube/Drivers/STM32F0xx_HAL_Driver/Src/stm32f0xx_hal_tim_ex.c ****   switch (Channel)
 2509              		.loc 1 1227 0
 2510 000a 3B68     		ldr	r3, [r7]
 2511 000c 042B     		cmp	r3, #4
 2512 000e 11D0     		beq	.L144
 2513 0010 02D8     		bhi	.L145
 2514 0012 002B     		cmp	r3, #0
 2515 0014 05D0     		beq	.L146
1228:cube/Drivers/STM32F0xx_HAL_Driver/Src/stm32f0xx_hal_tim_ex.c ****   {
1229:cube/Drivers/STM32F0xx_HAL_Driver/Src/stm32f0xx_hal_tim_ex.c ****     case TIM_CHANNEL_1:
1230:cube/Drivers/STM32F0xx_HAL_Driver/Src/stm32f0xx_hal_tim_ex.c ****     {
1231:cube/Drivers/STM32F0xx_HAL_Driver/Src/stm32f0xx_hal_tim_ex.c ****       /* Disable the TIM Capture/Compare 1 DMA request */
1232:cube/Drivers/STM32F0xx_HAL_Driver/Src/stm32f0xx_hal_tim_ex.c ****       __HAL_TIM_DISABLE_DMA(htim, TIM_DMA_CC1);
1233:cube/Drivers/STM32F0xx_HAL_Driver/Src/stm32f0xx_hal_tim_ex.c ****     }
1234:cube/Drivers/STM32F0xx_HAL_Driver/Src/stm32f0xx_hal_tim_ex.c ****     break;
1235:cube/Drivers/STM32F0xx_HAL_Driver/Src/stm32f0xx_hal_tim_ex.c **** 
1236:cube/Drivers/STM32F0xx_HAL_Driver/Src/stm32f0xx_hal_tim_ex.c ****     case TIM_CHANNEL_2:
1237:cube/Drivers/STM32F0xx_HAL_Driver/Src/stm32f0xx_hal_tim_ex.c ****     {
1238:cube/Drivers/STM32F0xx_HAL_Driver/Src/stm32f0xx_hal_tim_ex.c ****       /* Disable the TIM Capture/Compare 2 DMA request */
1239:cube/Drivers/STM32F0xx_HAL_Driver/Src/stm32f0xx_hal_tim_ex.c ****       __HAL_TIM_DISABLE_DMA(htim, TIM_DMA_CC2);
1240:cube/Drivers/STM32F0xx_HAL_Driver/Src/stm32f0xx_hal_tim_ex.c ****     }
1241:cube/Drivers/STM32F0xx_HAL_Driver/Src/stm32f0xx_hal_tim_ex.c ****     break;
1242:cube/Drivers/STM32F0xx_HAL_Driver/Src/stm32f0xx_hal_tim_ex.c **** 
1243:cube/Drivers/STM32F0xx_HAL_Driver/Src/stm32f0xx_hal_tim_ex.c ****     case TIM_CHANNEL_3:
1244:cube/Drivers/STM32F0xx_HAL_Driver/Src/stm32f0xx_hal_tim_ex.c ****     {
1245:cube/Drivers/STM32F0xx_HAL_Driver/Src/stm32f0xx_hal_tim_ex.c ****       /* Disable the TIM Capture/Compare 3 DMA request */
1246:cube/Drivers/STM32F0xx_HAL_Driver/Src/stm32f0xx_hal_tim_ex.c ****       __HAL_TIM_DISABLE_DMA(htim, TIM_DMA_CC3);
1247:cube/Drivers/STM32F0xx_HAL_Driver/Src/stm32f0xx_hal_tim_ex.c ****     }
1248:cube/Drivers/STM32F0xx_HAL_Driver/Src/stm32f0xx_hal_tim_ex.c ****     break;
1249:cube/Drivers/STM32F0xx_HAL_Driver/Src/stm32f0xx_hal_tim_ex.c **** 
1250:cube/Drivers/STM32F0xx_HAL_Driver/Src/stm32f0xx_hal_tim_ex.c ****     case TIM_CHANNEL_4:
1251:cube/Drivers/STM32F0xx_HAL_Driver/Src/stm32f0xx_hal_tim_ex.c ****     {
1252:cube/Drivers/STM32F0xx_HAL_Driver/Src/stm32f0xx_hal_tim_ex.c ****       /* Disable the TIM Capture/Compare 4 DMA request */
1253:cube/Drivers/STM32F0xx_HAL_Driver/Src/stm32f0xx_hal_tim_ex.c ****       __HAL_TIM_DISABLE_DMA(htim, TIM_DMA_CC4);
1254:cube/Drivers/STM32F0xx_HAL_Driver/Src/stm32f0xx_hal_tim_ex.c ****     }
1255:cube/Drivers/STM32F0xx_HAL_Driver/Src/stm32f0xx_hal_tim_ex.c ****     break;
1256:cube/Drivers/STM32F0xx_HAL_Driver/Src/stm32f0xx_hal_tim_ex.c **** 
1257:cube/Drivers/STM32F0xx_HAL_Driver/Src/stm32f0xx_hal_tim_ex.c ****     default:
1258:cube/Drivers/STM32F0xx_HAL_Driver/Src/stm32f0xx_hal_tim_ex.c ****     break;
 2516              		.loc 1 1258 0
 2517 0016 28E0     		b	.L149
ARM GAS  /tmp/ccpevmba.s 			page 68


 2518              	.L145:
1227:cube/Drivers/STM32F0xx_HAL_Driver/Src/stm32f0xx_hal_tim_ex.c ****   {
 2519              		.loc 1 1227 0
 2520 0018 082B     		cmp	r3, #8
 2521 001a 14D0     		beq	.L147
 2522 001c 0C2B     		cmp	r3, #12
 2523 001e 1BD0     		beq	.L148
 2524              		.loc 1 1258 0
 2525 0020 23E0     		b	.L149
 2526              	.L146:
1232:cube/Drivers/STM32F0xx_HAL_Driver/Src/stm32f0xx_hal_tim_ex.c ****     }
 2527              		.loc 1 1232 0
 2528 0022 7B68     		ldr	r3, [r7, #4]
 2529 0024 1B68     		ldr	r3, [r3]
 2530 0026 DA68     		ldr	r2, [r3, #12]
 2531 0028 7B68     		ldr	r3, [r7, #4]
 2532 002a 1B68     		ldr	r3, [r3]
 2533 002c 2B49     		ldr	r1, .L153
 2534 002e 0A40     		ands	r2, r1
 2535 0030 DA60     		str	r2, [r3, #12]
1234:cube/Drivers/STM32F0xx_HAL_Driver/Src/stm32f0xx_hal_tim_ex.c **** 
 2536              		.loc 1 1234 0
 2537 0032 1AE0     		b	.L149
 2538              	.L144:
1239:cube/Drivers/STM32F0xx_HAL_Driver/Src/stm32f0xx_hal_tim_ex.c ****     }
 2539              		.loc 1 1239 0
 2540 0034 7B68     		ldr	r3, [r7, #4]
 2541 0036 1B68     		ldr	r3, [r3]
 2542 0038 DA68     		ldr	r2, [r3, #12]
 2543 003a 7B68     		ldr	r3, [r7, #4]
 2544 003c 1B68     		ldr	r3, [r3]
 2545 003e 2849     		ldr	r1, .L153+4
 2546 0040 0A40     		ands	r2, r1
 2547 0042 DA60     		str	r2, [r3, #12]
1241:cube/Drivers/STM32F0xx_HAL_Driver/Src/stm32f0xx_hal_tim_ex.c **** 
 2548              		.loc 1 1241 0
 2549 0044 11E0     		b	.L149
 2550              	.L147:
1246:cube/Drivers/STM32F0xx_HAL_Driver/Src/stm32f0xx_hal_tim_ex.c ****     }
 2551              		.loc 1 1246 0
 2552 0046 7B68     		ldr	r3, [r7, #4]
 2553 0048 1B68     		ldr	r3, [r3]
 2554 004a DA68     		ldr	r2, [r3, #12]
 2555 004c 7B68     		ldr	r3, [r7, #4]
 2556 004e 1B68     		ldr	r3, [r3]
 2557 0050 2449     		ldr	r1, .L153+8
 2558 0052 0A40     		ands	r2, r1
 2559 0054 DA60     		str	r2, [r3, #12]
1248:cube/Drivers/STM32F0xx_HAL_Driver/Src/stm32f0xx_hal_tim_ex.c **** 
 2560              		.loc 1 1248 0
 2561 0056 08E0     		b	.L149
 2562              	.L148:
1253:cube/Drivers/STM32F0xx_HAL_Driver/Src/stm32f0xx_hal_tim_ex.c ****     }
 2563              		.loc 1 1253 0
 2564 0058 7B68     		ldr	r3, [r7, #4]
 2565 005a 1B68     		ldr	r3, [r3]
 2566 005c DA68     		ldr	r2, [r3, #12]
ARM GAS  /tmp/ccpevmba.s 			page 69


 2567 005e 7B68     		ldr	r3, [r7, #4]
 2568 0060 1B68     		ldr	r3, [r3]
 2569 0062 2149     		ldr	r1, .L153+12
 2570 0064 0A40     		ands	r2, r1
 2571 0066 DA60     		str	r2, [r3, #12]
1255:cube/Drivers/STM32F0xx_HAL_Driver/Src/stm32f0xx_hal_tim_ex.c **** 
 2572              		.loc 1 1255 0
 2573 0068 C046     		nop
 2574              	.L149:
1259:cube/Drivers/STM32F0xx_HAL_Driver/Src/stm32f0xx_hal_tim_ex.c ****   }
1260:cube/Drivers/STM32F0xx_HAL_Driver/Src/stm32f0xx_hal_tim_ex.c **** 
1261:cube/Drivers/STM32F0xx_HAL_Driver/Src/stm32f0xx_hal_tim_ex.c ****   /* Disable the complementary PWM output */
1262:cube/Drivers/STM32F0xx_HAL_Driver/Src/stm32f0xx_hal_tim_ex.c ****     TIM_CCxNChannelCmd(htim->Instance, Channel, TIM_CCxN_DISABLE);
 2575              		.loc 1 1262 0
 2576 006a 7B68     		ldr	r3, [r7, #4]
 2577 006c 1B68     		ldr	r3, [r3]
 2578 006e 3968     		ldr	r1, [r7]
 2579 0070 0022     		movs	r2, #0
 2580 0072 1800     		movs	r0, r3
 2581 0074 FFF7FEFF 		bl	TIM_CCxNChannelCmd
1263:cube/Drivers/STM32F0xx_HAL_Driver/Src/stm32f0xx_hal_tim_ex.c **** 
1264:cube/Drivers/STM32F0xx_HAL_Driver/Src/stm32f0xx_hal_tim_ex.c ****   /* Disable the Main Ouput */
1265:cube/Drivers/STM32F0xx_HAL_Driver/Src/stm32f0xx_hal_tim_ex.c ****     __HAL_TIM_MOE_DISABLE(htim);
 2582              		.loc 1 1265 0
 2583 0078 7B68     		ldr	r3, [r7, #4]
 2584 007a 1B68     		ldr	r3, [r3]
 2585 007c 1B6A     		ldr	r3, [r3, #32]
 2586 007e 1B4A     		ldr	r2, .L153+16
 2587 0080 1340     		ands	r3, r2
 2588 0082 0DD1     		bne	.L150
 2589              		.loc 1 1265 0 is_stmt 0 discriminator 1
 2590 0084 7B68     		ldr	r3, [r7, #4]
 2591 0086 1B68     		ldr	r3, [r3]
 2592 0088 1B6A     		ldr	r3, [r3, #32]
 2593 008a 194A     		ldr	r2, .L153+20
 2594 008c 1340     		ands	r3, r2
 2595 008e 07D1     		bne	.L150
 2596              		.loc 1 1265 0 discriminator 2
 2597 0090 7B68     		ldr	r3, [r7, #4]
 2598 0092 1B68     		ldr	r3, [r3]
 2599 0094 5A6C     		ldr	r2, [r3, #68]
 2600 0096 7B68     		ldr	r3, [r7, #4]
 2601 0098 1B68     		ldr	r3, [r3]
 2602 009a 1649     		ldr	r1, .L153+24
 2603 009c 0A40     		ands	r2, r1
 2604 009e 5A64     		str	r2, [r3, #68]
 2605              	.L150:
1266:cube/Drivers/STM32F0xx_HAL_Driver/Src/stm32f0xx_hal_tim_ex.c **** 
1267:cube/Drivers/STM32F0xx_HAL_Driver/Src/stm32f0xx_hal_tim_ex.c ****   /* Disable the Peripheral */
1268:cube/Drivers/STM32F0xx_HAL_Driver/Src/stm32f0xx_hal_tim_ex.c ****   __HAL_TIM_DISABLE(htim);
 2606              		.loc 1 1268 0 is_stmt 1
 2607 00a0 7B68     		ldr	r3, [r7, #4]
 2608 00a2 1B68     		ldr	r3, [r3]
 2609 00a4 1B6A     		ldr	r3, [r3, #32]
 2610 00a6 114A     		ldr	r2, .L153+16
 2611 00a8 1340     		ands	r3, r2
 2612 00aa 0DD1     		bne	.L151
ARM GAS  /tmp/ccpevmba.s 			page 70


 2613              		.loc 1 1268 0 is_stmt 0 discriminator 1
 2614 00ac 7B68     		ldr	r3, [r7, #4]
 2615 00ae 1B68     		ldr	r3, [r3]
 2616 00b0 1B6A     		ldr	r3, [r3, #32]
 2617 00b2 0F4A     		ldr	r2, .L153+20
 2618 00b4 1340     		ands	r3, r2
 2619 00b6 07D1     		bne	.L151
 2620              		.loc 1 1268 0 discriminator 2
 2621 00b8 7B68     		ldr	r3, [r7, #4]
 2622 00ba 1B68     		ldr	r3, [r3]
 2623 00bc 1A68     		ldr	r2, [r3]
 2624 00be 7B68     		ldr	r3, [r7, #4]
 2625 00c0 1B68     		ldr	r3, [r3]
 2626 00c2 0121     		movs	r1, #1
 2627 00c4 8A43     		bics	r2, r1
 2628 00c6 1A60     		str	r2, [r3]
 2629              	.L151:
1269:cube/Drivers/STM32F0xx_HAL_Driver/Src/stm32f0xx_hal_tim_ex.c **** 
1270:cube/Drivers/STM32F0xx_HAL_Driver/Src/stm32f0xx_hal_tim_ex.c ****   /* Change the htim state */
1271:cube/Drivers/STM32F0xx_HAL_Driver/Src/stm32f0xx_hal_tim_ex.c ****   htim->State = HAL_TIM_STATE_READY;
 2630              		.loc 1 1271 0 is_stmt 1
 2631 00c8 7B68     		ldr	r3, [r7, #4]
 2632 00ca 3D22     		movs	r2, #61
 2633 00cc 0121     		movs	r1, #1
 2634 00ce 9954     		strb	r1, [r3, r2]
1272:cube/Drivers/STM32F0xx_HAL_Driver/Src/stm32f0xx_hal_tim_ex.c **** 
1273:cube/Drivers/STM32F0xx_HAL_Driver/Src/stm32f0xx_hal_tim_ex.c ****   /* Return function status */
1274:cube/Drivers/STM32F0xx_HAL_Driver/Src/stm32f0xx_hal_tim_ex.c ****   return HAL_OK;
 2635              		.loc 1 1274 0
 2636 00d0 0023     		movs	r3, #0
1275:cube/Drivers/STM32F0xx_HAL_Driver/Src/stm32f0xx_hal_tim_ex.c **** }
 2637              		.loc 1 1275 0
 2638 00d2 1800     		movs	r0, r3
 2639 00d4 BD46     		mov	sp, r7
 2640 00d6 02B0     		add	sp, sp, #8
 2641              		@ sp needed
 2642 00d8 80BD     		pop	{r7, pc}
 2643              	.L154:
 2644 00da C046     		.align	2
 2645              	.L153:
 2646 00dc FFFDFFFF 		.word	-513
 2647 00e0 FFFBFFFF 		.word	-1025
 2648 00e4 FFF7FFFF 		.word	-2049
 2649 00e8 FFEFFFFF 		.word	-4097
 2650 00ec 11110000 		.word	4369
 2651 00f0 44040000 		.word	1092
 2652 00f4 FF7FFFFF 		.word	-32769
 2653              		.cfi_endproc
 2654              	.LFE58:
 2656              		.section	.text.HAL_TIMEx_OnePulseN_Start,"ax",%progbits
 2657              		.align	1
 2658              		.global	HAL_TIMEx_OnePulseN_Start
 2659              		.syntax unified
 2660              		.code	16
 2661              		.thumb_func
 2662              		.fpu softvfp
 2664              	HAL_TIMEx_OnePulseN_Start:
ARM GAS  /tmp/ccpevmba.s 			page 71


 2665              	.LFB59:
1276:cube/Drivers/STM32F0xx_HAL_Driver/Src/stm32f0xx_hal_tim_ex.c **** 
1277:cube/Drivers/STM32F0xx_HAL_Driver/Src/stm32f0xx_hal_tim_ex.c **** /**
1278:cube/Drivers/STM32F0xx_HAL_Driver/Src/stm32f0xx_hal_tim_ex.c ****   * @}
1279:cube/Drivers/STM32F0xx_HAL_Driver/Src/stm32f0xx_hal_tim_ex.c ****   */
1280:cube/Drivers/STM32F0xx_HAL_Driver/Src/stm32f0xx_hal_tim_ex.c **** 
1281:cube/Drivers/STM32F0xx_HAL_Driver/Src/stm32f0xx_hal_tim_ex.c **** /** @defgroup TIMEx_Exported_Functions_Group4 Timer Complementary One Pulse functions
1282:cube/Drivers/STM32F0xx_HAL_Driver/Src/stm32f0xx_hal_tim_ex.c ****  *  @brief    Timer Complementary One Pulse functions 
1283:cube/Drivers/STM32F0xx_HAL_Driver/Src/stm32f0xx_hal_tim_ex.c ****  *
1284:cube/Drivers/STM32F0xx_HAL_Driver/Src/stm32f0xx_hal_tim_ex.c **** @verbatim 
1285:cube/Drivers/STM32F0xx_HAL_Driver/Src/stm32f0xx_hal_tim_ex.c ****   ==============================================================================
1286:cube/Drivers/STM32F0xx_HAL_Driver/Src/stm32f0xx_hal_tim_ex.c ****                 ##### Timer Complementary One Pulse functions #####
1287:cube/Drivers/STM32F0xx_HAL_Driver/Src/stm32f0xx_hal_tim_ex.c ****   ==============================================================================
1288:cube/Drivers/STM32F0xx_HAL_Driver/Src/stm32f0xx_hal_tim_ex.c ****   [..]
1289:cube/Drivers/STM32F0xx_HAL_Driver/Src/stm32f0xx_hal_tim_ex.c ****     This section provides functions allowing to:
1290:cube/Drivers/STM32F0xx_HAL_Driver/Src/stm32f0xx_hal_tim_ex.c ****     (+) Start the Complementary One Pulse generation.
1291:cube/Drivers/STM32F0xx_HAL_Driver/Src/stm32f0xx_hal_tim_ex.c ****     (+) Stop the Complementary One Pulse.
1292:cube/Drivers/STM32F0xx_HAL_Driver/Src/stm32f0xx_hal_tim_ex.c ****     (+) Start the Complementary One Pulse and enable interrupts.
1293:cube/Drivers/STM32F0xx_HAL_Driver/Src/stm32f0xx_hal_tim_ex.c ****     (+) Stop the Complementary One Pulse and disable interrupts.
1294:cube/Drivers/STM32F0xx_HAL_Driver/Src/stm32f0xx_hal_tim_ex.c **** 
1295:cube/Drivers/STM32F0xx_HAL_Driver/Src/stm32f0xx_hal_tim_ex.c **** @endverbatim
1296:cube/Drivers/STM32F0xx_HAL_Driver/Src/stm32f0xx_hal_tim_ex.c ****   * @{
1297:cube/Drivers/STM32F0xx_HAL_Driver/Src/stm32f0xx_hal_tim_ex.c ****   */
1298:cube/Drivers/STM32F0xx_HAL_Driver/Src/stm32f0xx_hal_tim_ex.c **** 
1299:cube/Drivers/STM32F0xx_HAL_Driver/Src/stm32f0xx_hal_tim_ex.c **** /**
1300:cube/Drivers/STM32F0xx_HAL_Driver/Src/stm32f0xx_hal_tim_ex.c ****   * @brief  Starts the TIM One Pulse signal generation on the complemetary 
1301:cube/Drivers/STM32F0xx_HAL_Driver/Src/stm32f0xx_hal_tim_ex.c ****   *         output.
1302:cube/Drivers/STM32F0xx_HAL_Driver/Src/stm32f0xx_hal_tim_ex.c ****   * @param  htim TIM One Pulse handle
1303:cube/Drivers/STM32F0xx_HAL_Driver/Src/stm32f0xx_hal_tim_ex.c ****   * @param  OutputChannel TIM Channel to be enabled
1304:cube/Drivers/STM32F0xx_HAL_Driver/Src/stm32f0xx_hal_tim_ex.c ****   *          This parameter can be one of the following values:
1305:cube/Drivers/STM32F0xx_HAL_Driver/Src/stm32f0xx_hal_tim_ex.c ****   *            @arg TIM_CHANNEL_1: TIM Channel 1 selected
1306:cube/Drivers/STM32F0xx_HAL_Driver/Src/stm32f0xx_hal_tim_ex.c ****   *            @arg TIM_CHANNEL_2: TIM Channel 2 selected
1307:cube/Drivers/STM32F0xx_HAL_Driver/Src/stm32f0xx_hal_tim_ex.c ****   * @retval HAL status
1308:cube/Drivers/STM32F0xx_HAL_Driver/Src/stm32f0xx_hal_tim_ex.c ****   */
1309:cube/Drivers/STM32F0xx_HAL_Driver/Src/stm32f0xx_hal_tim_ex.c **** HAL_StatusTypeDef HAL_TIMEx_OnePulseN_Start(TIM_HandleTypeDef *htim, uint32_t OutputChannel)
1310:cube/Drivers/STM32F0xx_HAL_Driver/Src/stm32f0xx_hal_tim_ex.c ****   {
 2666              		.loc 1 1310 0
 2667              		.cfi_startproc
 2668              		@ args = 0, pretend = 0, frame = 8
 2669              		@ frame_needed = 1, uses_anonymous_args = 0
 2670 0000 80B5     		push	{r7, lr}
 2671              		.cfi_def_cfa_offset 8
 2672              		.cfi_offset 7, -8
 2673              		.cfi_offset 14, -4
 2674 0002 82B0     		sub	sp, sp, #8
 2675              		.cfi_def_cfa_offset 16
 2676 0004 00AF     		add	r7, sp, #0
 2677              		.cfi_def_cfa_register 7
 2678 0006 7860     		str	r0, [r7, #4]
 2679 0008 3960     		str	r1, [r7]
1311:cube/Drivers/STM32F0xx_HAL_Driver/Src/stm32f0xx_hal_tim_ex.c ****   /* Check the parameters */
1312:cube/Drivers/STM32F0xx_HAL_Driver/Src/stm32f0xx_hal_tim_ex.c ****   assert_param(IS_TIM_CCXN_INSTANCE(htim->Instance, OutputChannel));
1313:cube/Drivers/STM32F0xx_HAL_Driver/Src/stm32f0xx_hal_tim_ex.c **** 
1314:cube/Drivers/STM32F0xx_HAL_Driver/Src/stm32f0xx_hal_tim_ex.c ****   /* Enable the complementary One Pulse output */
1315:cube/Drivers/STM32F0xx_HAL_Driver/Src/stm32f0xx_hal_tim_ex.c ****   TIM_CCxNChannelCmd(htim->Instance, OutputChannel, TIM_CCxN_ENABLE);
 2680              		.loc 1 1315 0
 2681 000a 7B68     		ldr	r3, [r7, #4]
ARM GAS  /tmp/ccpevmba.s 			page 72


 2682 000c 1B68     		ldr	r3, [r3]
 2683 000e 3968     		ldr	r1, [r7]
 2684 0010 0422     		movs	r2, #4
 2685 0012 1800     		movs	r0, r3
 2686 0014 FFF7FEFF 		bl	TIM_CCxNChannelCmd
1316:cube/Drivers/STM32F0xx_HAL_Driver/Src/stm32f0xx_hal_tim_ex.c **** 
1317:cube/Drivers/STM32F0xx_HAL_Driver/Src/stm32f0xx_hal_tim_ex.c ****   /* Enable the Main Ouput */
1318:cube/Drivers/STM32F0xx_HAL_Driver/Src/stm32f0xx_hal_tim_ex.c ****   __HAL_TIM_MOE_ENABLE(htim);
 2687              		.loc 1 1318 0
 2688 0018 7B68     		ldr	r3, [r7, #4]
 2689 001a 1B68     		ldr	r3, [r3]
 2690 001c 5A6C     		ldr	r2, [r3, #68]
 2691 001e 7B68     		ldr	r3, [r7, #4]
 2692 0020 1B68     		ldr	r3, [r3]
 2693 0022 8021     		movs	r1, #128
 2694 0024 0902     		lsls	r1, r1, #8
 2695 0026 0A43     		orrs	r2, r1
 2696 0028 5A64     		str	r2, [r3, #68]
1319:cube/Drivers/STM32F0xx_HAL_Driver/Src/stm32f0xx_hal_tim_ex.c **** 
1320:cube/Drivers/STM32F0xx_HAL_Driver/Src/stm32f0xx_hal_tim_ex.c ****   /* Return function status */
1321:cube/Drivers/STM32F0xx_HAL_Driver/Src/stm32f0xx_hal_tim_ex.c ****   return HAL_OK;
 2697              		.loc 1 1321 0
 2698 002a 0023     		movs	r3, #0
1322:cube/Drivers/STM32F0xx_HAL_Driver/Src/stm32f0xx_hal_tim_ex.c **** }
 2699              		.loc 1 1322 0
 2700 002c 1800     		movs	r0, r3
 2701 002e BD46     		mov	sp, r7
 2702 0030 02B0     		add	sp, sp, #8
 2703              		@ sp needed
 2704 0032 80BD     		pop	{r7, pc}
 2705              		.cfi_endproc
 2706              	.LFE59:
 2708              		.section	.text.HAL_TIMEx_OnePulseN_Stop,"ax",%progbits
 2709              		.align	1
 2710              		.global	HAL_TIMEx_OnePulseN_Stop
 2711              		.syntax unified
 2712              		.code	16
 2713              		.thumb_func
 2714              		.fpu softvfp
 2716              	HAL_TIMEx_OnePulseN_Stop:
 2717              	.LFB60:
1323:cube/Drivers/STM32F0xx_HAL_Driver/Src/stm32f0xx_hal_tim_ex.c **** 
1324:cube/Drivers/STM32F0xx_HAL_Driver/Src/stm32f0xx_hal_tim_ex.c **** /**
1325:cube/Drivers/STM32F0xx_HAL_Driver/Src/stm32f0xx_hal_tim_ex.c ****   * @brief  Stops the TIM One Pulse signal generation on the complementary 
1326:cube/Drivers/STM32F0xx_HAL_Driver/Src/stm32f0xx_hal_tim_ex.c ****   *         output.
1327:cube/Drivers/STM32F0xx_HAL_Driver/Src/stm32f0xx_hal_tim_ex.c ****   * @param  htim TIM One Pulse handle
1328:cube/Drivers/STM32F0xx_HAL_Driver/Src/stm32f0xx_hal_tim_ex.c ****   * @param  OutputChannel TIM Channel to be disabled
1329:cube/Drivers/STM32F0xx_HAL_Driver/Src/stm32f0xx_hal_tim_ex.c ****   *          This parameter can be one of the following values:
1330:cube/Drivers/STM32F0xx_HAL_Driver/Src/stm32f0xx_hal_tim_ex.c ****   *            @arg TIM_CHANNEL_1: TIM Channel 1 selected
1331:cube/Drivers/STM32F0xx_HAL_Driver/Src/stm32f0xx_hal_tim_ex.c ****   *            @arg TIM_CHANNEL_2: TIM Channel 2 selected
1332:cube/Drivers/STM32F0xx_HAL_Driver/Src/stm32f0xx_hal_tim_ex.c ****   * @retval HAL status
1333:cube/Drivers/STM32F0xx_HAL_Driver/Src/stm32f0xx_hal_tim_ex.c ****   */
1334:cube/Drivers/STM32F0xx_HAL_Driver/Src/stm32f0xx_hal_tim_ex.c **** HAL_StatusTypeDef HAL_TIMEx_OnePulseN_Stop(TIM_HandleTypeDef *htim, uint32_t OutputChannel)
1335:cube/Drivers/STM32F0xx_HAL_Driver/Src/stm32f0xx_hal_tim_ex.c **** {
 2718              		.loc 1 1335 0
 2719              		.cfi_startproc
 2720              		@ args = 0, pretend = 0, frame = 8
ARM GAS  /tmp/ccpevmba.s 			page 73


 2721              		@ frame_needed = 1, uses_anonymous_args = 0
 2722 0000 80B5     		push	{r7, lr}
 2723              		.cfi_def_cfa_offset 8
 2724              		.cfi_offset 7, -8
 2725              		.cfi_offset 14, -4
 2726 0002 82B0     		sub	sp, sp, #8
 2727              		.cfi_def_cfa_offset 16
 2728 0004 00AF     		add	r7, sp, #0
 2729              		.cfi_def_cfa_register 7
 2730 0006 7860     		str	r0, [r7, #4]
 2731 0008 3960     		str	r1, [r7]
1336:cube/Drivers/STM32F0xx_HAL_Driver/Src/stm32f0xx_hal_tim_ex.c **** 
1337:cube/Drivers/STM32F0xx_HAL_Driver/Src/stm32f0xx_hal_tim_ex.c ****   /* Check the parameters */
1338:cube/Drivers/STM32F0xx_HAL_Driver/Src/stm32f0xx_hal_tim_ex.c ****   assert_param(IS_TIM_CCXN_INSTANCE(htim->Instance, OutputChannel));
1339:cube/Drivers/STM32F0xx_HAL_Driver/Src/stm32f0xx_hal_tim_ex.c **** 
1340:cube/Drivers/STM32F0xx_HAL_Driver/Src/stm32f0xx_hal_tim_ex.c ****   /* Disable the complementary One Pulse output */
1341:cube/Drivers/STM32F0xx_HAL_Driver/Src/stm32f0xx_hal_tim_ex.c ****     TIM_CCxNChannelCmd(htim->Instance, OutputChannel, TIM_CCxN_DISABLE);
 2732              		.loc 1 1341 0
 2733 000a 7B68     		ldr	r3, [r7, #4]
 2734 000c 1B68     		ldr	r3, [r3]
 2735 000e 3968     		ldr	r1, [r7]
 2736 0010 0022     		movs	r2, #0
 2737 0012 1800     		movs	r0, r3
 2738 0014 FFF7FEFF 		bl	TIM_CCxNChannelCmd
1342:cube/Drivers/STM32F0xx_HAL_Driver/Src/stm32f0xx_hal_tim_ex.c **** 
1343:cube/Drivers/STM32F0xx_HAL_Driver/Src/stm32f0xx_hal_tim_ex.c ****   /* Disable the Main Ouput */
1344:cube/Drivers/STM32F0xx_HAL_Driver/Src/stm32f0xx_hal_tim_ex.c ****     __HAL_TIM_MOE_DISABLE(htim);
 2739              		.loc 1 1344 0
 2740 0018 7B68     		ldr	r3, [r7, #4]
 2741 001a 1B68     		ldr	r3, [r3]
 2742 001c 1B6A     		ldr	r3, [r3, #32]
 2743 001e 154A     		ldr	r2, .L161
 2744 0020 1340     		ands	r3, r2
 2745 0022 0DD1     		bne	.L158
 2746              		.loc 1 1344 0 is_stmt 0 discriminator 1
 2747 0024 7B68     		ldr	r3, [r7, #4]
 2748 0026 1B68     		ldr	r3, [r3]
 2749 0028 1B6A     		ldr	r3, [r3, #32]
 2750 002a 134A     		ldr	r2, .L161+4
 2751 002c 1340     		ands	r3, r2
 2752 002e 07D1     		bne	.L158
 2753              		.loc 1 1344 0 discriminator 2
 2754 0030 7B68     		ldr	r3, [r7, #4]
 2755 0032 1B68     		ldr	r3, [r3]
 2756 0034 5A6C     		ldr	r2, [r3, #68]
 2757 0036 7B68     		ldr	r3, [r7, #4]
 2758 0038 1B68     		ldr	r3, [r3]
 2759 003a 1049     		ldr	r1, .L161+8
 2760 003c 0A40     		ands	r2, r1
 2761 003e 5A64     		str	r2, [r3, #68]
 2762              	.L158:
1345:cube/Drivers/STM32F0xx_HAL_Driver/Src/stm32f0xx_hal_tim_ex.c **** 
1346:cube/Drivers/STM32F0xx_HAL_Driver/Src/stm32f0xx_hal_tim_ex.c ****   /* Disable the Peripheral */
1347:cube/Drivers/STM32F0xx_HAL_Driver/Src/stm32f0xx_hal_tim_ex.c ****   __HAL_TIM_DISABLE(htim);
 2763              		.loc 1 1347 0 is_stmt 1
 2764 0040 7B68     		ldr	r3, [r7, #4]
 2765 0042 1B68     		ldr	r3, [r3]
ARM GAS  /tmp/ccpevmba.s 			page 74


 2766 0044 1B6A     		ldr	r3, [r3, #32]
 2767 0046 0B4A     		ldr	r2, .L161
 2768 0048 1340     		ands	r3, r2
 2769 004a 0DD1     		bne	.L159
 2770              		.loc 1 1347 0 is_stmt 0 discriminator 1
 2771 004c 7B68     		ldr	r3, [r7, #4]
 2772 004e 1B68     		ldr	r3, [r3]
 2773 0050 1B6A     		ldr	r3, [r3, #32]
 2774 0052 094A     		ldr	r2, .L161+4
 2775 0054 1340     		ands	r3, r2
 2776 0056 07D1     		bne	.L159
 2777              		.loc 1 1347 0 discriminator 2
 2778 0058 7B68     		ldr	r3, [r7, #4]
 2779 005a 1B68     		ldr	r3, [r3]
 2780 005c 1A68     		ldr	r2, [r3]
 2781 005e 7B68     		ldr	r3, [r7, #4]
 2782 0060 1B68     		ldr	r3, [r3]
 2783 0062 0121     		movs	r1, #1
 2784 0064 8A43     		bics	r2, r1
 2785 0066 1A60     		str	r2, [r3]
 2786              	.L159:
1348:cube/Drivers/STM32F0xx_HAL_Driver/Src/stm32f0xx_hal_tim_ex.c **** 
1349:cube/Drivers/STM32F0xx_HAL_Driver/Src/stm32f0xx_hal_tim_ex.c ****   /* Return function status */
1350:cube/Drivers/STM32F0xx_HAL_Driver/Src/stm32f0xx_hal_tim_ex.c ****   return HAL_OK;
 2787              		.loc 1 1350 0 is_stmt 1
 2788 0068 0023     		movs	r3, #0
1351:cube/Drivers/STM32F0xx_HAL_Driver/Src/stm32f0xx_hal_tim_ex.c **** }
 2789              		.loc 1 1351 0
 2790 006a 1800     		movs	r0, r3
 2791 006c BD46     		mov	sp, r7
 2792 006e 02B0     		add	sp, sp, #8
 2793              		@ sp needed
 2794 0070 80BD     		pop	{r7, pc}
 2795              	.L162:
 2796 0072 C046     		.align	2
 2797              	.L161:
 2798 0074 11110000 		.word	4369
 2799 0078 44040000 		.word	1092
 2800 007c FF7FFFFF 		.word	-32769
 2801              		.cfi_endproc
 2802              	.LFE60:
 2804              		.section	.text.HAL_TIMEx_OnePulseN_Start_IT,"ax",%progbits
 2805              		.align	1
 2806              		.global	HAL_TIMEx_OnePulseN_Start_IT
 2807              		.syntax unified
 2808              		.code	16
 2809              		.thumb_func
 2810              		.fpu softvfp
 2812              	HAL_TIMEx_OnePulseN_Start_IT:
 2813              	.LFB61:
1352:cube/Drivers/STM32F0xx_HAL_Driver/Src/stm32f0xx_hal_tim_ex.c **** 
