ARM GAS  /tmp/ccnYXliM.s 			page 1


   1              		.cpu cortex-m0
   2              		.eabi_attribute 20, 1
   3              		.eabi_attribute 21, 1
   4              		.eabi_attribute 23, 3
   5              		.eabi_attribute 24, 1
   6              		.eabi_attribute 25, 1
   7              		.eabi_attribute 26, 1
   8              		.eabi_attribute 30, 6
   9              		.eabi_attribute 34, 0
  10              		.eabi_attribute 18, 4
  11              		.file	"stm32f0xx_hal_tim.c"
  12              		.text
  13              	.Ltext0:
  14              		.cfi_sections	.debug_frame
  15              		.section	.text.HAL_TIM_Base_Init,"ax",%progbits
  16              		.align	1
  17              		.global	HAL_TIM_Base_Init
  18              		.syntax unified
  19              		.code	16
  20              		.thumb_func
  21              		.fpu softvfp
  23              	HAL_TIM_Base_Init:
  24              	.LFB37:
  25              		.file 1 "cube/Drivers/STM32F0xx_HAL_Driver/Src/stm32f0xx_hal_tim.c"
   1:cube/Drivers/STM32F0xx_HAL_Driver/Src/stm32f0xx_hal_tim.c **** /**
   2:cube/Drivers/STM32F0xx_HAL_Driver/Src/stm32f0xx_hal_tim.c ****   ******************************************************************************
   3:cube/Drivers/STM32F0xx_HAL_Driver/Src/stm32f0xx_hal_tim.c ****   * @file    stm32f0xx_hal_tim.c
   4:cube/Drivers/STM32F0xx_HAL_Driver/Src/stm32f0xx_hal_tim.c ****   * @author  MCD Application Team
   5:cube/Drivers/STM32F0xx_HAL_Driver/Src/stm32f0xx_hal_tim.c ****   * @brief   TIM HAL module driver.
   6:cube/Drivers/STM32F0xx_HAL_Driver/Src/stm32f0xx_hal_tim.c ****   *          This file provides firmware functions to manage the following 
   7:cube/Drivers/STM32F0xx_HAL_Driver/Src/stm32f0xx_hal_tim.c ****   *          functionalities of the Timer (TIM) peripheral:
   8:cube/Drivers/STM32F0xx_HAL_Driver/Src/stm32f0xx_hal_tim.c ****   *           + Time Base Initialization
   9:cube/Drivers/STM32F0xx_HAL_Driver/Src/stm32f0xx_hal_tim.c ****   *           + Time Base Start
  10:cube/Drivers/STM32F0xx_HAL_Driver/Src/stm32f0xx_hal_tim.c ****   *           + Time Base Start Interruption
  11:cube/Drivers/STM32F0xx_HAL_Driver/Src/stm32f0xx_hal_tim.c ****   *           + Time Base Start DMA
  12:cube/Drivers/STM32F0xx_HAL_Driver/Src/stm32f0xx_hal_tim.c ****   *           + Time Output Compare/PWM Initialization
  13:cube/Drivers/STM32F0xx_HAL_Driver/Src/stm32f0xx_hal_tim.c ****   *           + Time Output Compare/PWM Channel Configuration
  14:cube/Drivers/STM32F0xx_HAL_Driver/Src/stm32f0xx_hal_tim.c ****   *           + Time Output Compare/PWM  Start
  15:cube/Drivers/STM32F0xx_HAL_Driver/Src/stm32f0xx_hal_tim.c ****   *           + Time Output Compare/PWM  Start Interruption
  16:cube/Drivers/STM32F0xx_HAL_Driver/Src/stm32f0xx_hal_tim.c ****   *           + Time Output Compare/PWM Start DMA
  17:cube/Drivers/STM32F0xx_HAL_Driver/Src/stm32f0xx_hal_tim.c ****   *           + Time Input Capture Initialization
  18:cube/Drivers/STM32F0xx_HAL_Driver/Src/stm32f0xx_hal_tim.c ****   *           + Time Input Capture Channel Configuration
  19:cube/Drivers/STM32F0xx_HAL_Driver/Src/stm32f0xx_hal_tim.c ****   *           + Time Input Capture Start
  20:cube/Drivers/STM32F0xx_HAL_Driver/Src/stm32f0xx_hal_tim.c ****   *           + Time Input Capture Start Interruption 
  21:cube/Drivers/STM32F0xx_HAL_Driver/Src/stm32f0xx_hal_tim.c ****   *           + Time Input Capture Start DMA
  22:cube/Drivers/STM32F0xx_HAL_Driver/Src/stm32f0xx_hal_tim.c ****   *           + Time One Pulse Initialization
  23:cube/Drivers/STM32F0xx_HAL_Driver/Src/stm32f0xx_hal_tim.c ****   *           + Time One Pulse Channel Configuration
  24:cube/Drivers/STM32F0xx_HAL_Driver/Src/stm32f0xx_hal_tim.c ****   *           + Time One Pulse Start 
  25:cube/Drivers/STM32F0xx_HAL_Driver/Src/stm32f0xx_hal_tim.c ****   *           + Time Encoder Interface Initialization
  26:cube/Drivers/STM32F0xx_HAL_Driver/Src/stm32f0xx_hal_tim.c ****   *           + Time Encoder Interface Start
  27:cube/Drivers/STM32F0xx_HAL_Driver/Src/stm32f0xx_hal_tim.c ****   *           + Time Encoder Interface Start Interruption
  28:cube/Drivers/STM32F0xx_HAL_Driver/Src/stm32f0xx_hal_tim.c ****   *           + Time Encoder Interface Start DMA
  29:cube/Drivers/STM32F0xx_HAL_Driver/Src/stm32f0xx_hal_tim.c ****   *           + Commutation Event configuration with Interruption and DMA
  30:cube/Drivers/STM32F0xx_HAL_Driver/Src/stm32f0xx_hal_tim.c ****   *           + Time OCRef clear configuration
  31:cube/Drivers/STM32F0xx_HAL_Driver/Src/stm32f0xx_hal_tim.c ****   *           + Time External Clock configuration
  32:cube/Drivers/STM32F0xx_HAL_Driver/Src/stm32f0xx_hal_tim.c ****   @verbatim
  33:cube/Drivers/STM32F0xx_HAL_Driver/Src/stm32f0xx_hal_tim.c ****   ==============================================================================
ARM GAS  /tmp/ccnYXliM.s 			page 2


  34:cube/Drivers/STM32F0xx_HAL_Driver/Src/stm32f0xx_hal_tim.c ****                       ##### TIMER Generic features #####
  35:cube/Drivers/STM32F0xx_HAL_Driver/Src/stm32f0xx_hal_tim.c ****   ==============================================================================
  36:cube/Drivers/STM32F0xx_HAL_Driver/Src/stm32f0xx_hal_tim.c ****   [..] The Timer features include:
  37:cube/Drivers/STM32F0xx_HAL_Driver/Src/stm32f0xx_hal_tim.c ****        (#) 16-bit up, down, up/down auto-reload counter.
  38:cube/Drivers/STM32F0xx_HAL_Driver/Src/stm32f0xx_hal_tim.c ****        (#) 16-bit programmable prescaler allowing dividing (also on the fly) the 
  39:cube/Drivers/STM32F0xx_HAL_Driver/Src/stm32f0xx_hal_tim.c ****            counter clock frequency either by any factor between 1 and 65536.
  40:cube/Drivers/STM32F0xx_HAL_Driver/Src/stm32f0xx_hal_tim.c ****        (#) Up to 4 independent channels for:
  41:cube/Drivers/STM32F0xx_HAL_Driver/Src/stm32f0xx_hal_tim.c ****            (++) Input Capture
  42:cube/Drivers/STM32F0xx_HAL_Driver/Src/stm32f0xx_hal_tim.c ****            (++) Output Compare
  43:cube/Drivers/STM32F0xx_HAL_Driver/Src/stm32f0xx_hal_tim.c ****            (++) PWM generation (Edge and Center-aligned Mode)
  44:cube/Drivers/STM32F0xx_HAL_Driver/Src/stm32f0xx_hal_tim.c ****            (++) One-pulse mode output
  45:cube/Drivers/STM32F0xx_HAL_Driver/Src/stm32f0xx_hal_tim.c **** 
  46:cube/Drivers/STM32F0xx_HAL_Driver/Src/stm32f0xx_hal_tim.c ****             ##### How to use this driver #####
  47:cube/Drivers/STM32F0xx_HAL_Driver/Src/stm32f0xx_hal_tim.c ****   ==============================================================================
  48:cube/Drivers/STM32F0xx_HAL_Driver/Src/stm32f0xx_hal_tim.c ****     [..]
  49:cube/Drivers/STM32F0xx_HAL_Driver/Src/stm32f0xx_hal_tim.c ****      (#) Initialize the TIM low level resources by implementing the following functions 
  50:cube/Drivers/STM32F0xx_HAL_Driver/Src/stm32f0xx_hal_tim.c ****          depending from feature used :
  51:cube/Drivers/STM32F0xx_HAL_Driver/Src/stm32f0xx_hal_tim.c ****            (++) Time Base : HAL_TIM_Base_MspInit()
  52:cube/Drivers/STM32F0xx_HAL_Driver/Src/stm32f0xx_hal_tim.c ****            (++) Input Capture : HAL_TIM_IC_MspInit()
  53:cube/Drivers/STM32F0xx_HAL_Driver/Src/stm32f0xx_hal_tim.c ****            (++) Output Compare : HAL_TIM_OC_MspInit()
  54:cube/Drivers/STM32F0xx_HAL_Driver/Src/stm32f0xx_hal_tim.c ****            (++) PWM generation : HAL_TIM_PWM_MspInit()
  55:cube/Drivers/STM32F0xx_HAL_Driver/Src/stm32f0xx_hal_tim.c ****            (++) One-pulse mode output : HAL_TIM_OnePulse_MspInit()
  56:cube/Drivers/STM32F0xx_HAL_Driver/Src/stm32f0xx_hal_tim.c ****            (++) Encoder mode output : HAL_TIM_Encoder_MspInit()
  57:cube/Drivers/STM32F0xx_HAL_Driver/Src/stm32f0xx_hal_tim.c **** 
  58:cube/Drivers/STM32F0xx_HAL_Driver/Src/stm32f0xx_hal_tim.c ****      (#) Initialize the TIM low level resources :
  59:cube/Drivers/STM32F0xx_HAL_Driver/Src/stm32f0xx_hal_tim.c ****         (##) Enable the TIM interface clock using __HAL_RCC_TIMx_CLK_ENABLE();
  60:cube/Drivers/STM32F0xx_HAL_Driver/Src/stm32f0xx_hal_tim.c ****         (##) TIM pins configuration
  61:cube/Drivers/STM32F0xx_HAL_Driver/Src/stm32f0xx_hal_tim.c ****             (+++) Enable the clock for the TIM GPIOs using the following function:
  62:cube/Drivers/STM32F0xx_HAL_Driver/Src/stm32f0xx_hal_tim.c ****              __HAL_RCC_GPIOx_CLK_ENABLE();
  63:cube/Drivers/STM32F0xx_HAL_Driver/Src/stm32f0xx_hal_tim.c ****             (+++) Configure these TIM pins in Alternate function mode using HAL_GPIO_Init();
  64:cube/Drivers/STM32F0xx_HAL_Driver/Src/stm32f0xx_hal_tim.c **** 
  65:cube/Drivers/STM32F0xx_HAL_Driver/Src/stm32f0xx_hal_tim.c ****      (#) The external Clock can be configured, if needed (the default clock is the 
  66:cube/Drivers/STM32F0xx_HAL_Driver/Src/stm32f0xx_hal_tim.c ****          internal clock from the APBx), using the following function:
  67:cube/Drivers/STM32F0xx_HAL_Driver/Src/stm32f0xx_hal_tim.c ****          HAL_TIM_ConfigClockSource, the clock configuration should be done before 
  68:cube/Drivers/STM32F0xx_HAL_Driver/Src/stm32f0xx_hal_tim.c ****          any start function.
  69:cube/Drivers/STM32F0xx_HAL_Driver/Src/stm32f0xx_hal_tim.c **** 
  70:cube/Drivers/STM32F0xx_HAL_Driver/Src/stm32f0xx_hal_tim.c ****      (#) Configure the TIM in the desired functioning mode using one of the 
  71:cube/Drivers/STM32F0xx_HAL_Driver/Src/stm32f0xx_hal_tim.c ****        Initialization function of this driver:
  72:cube/Drivers/STM32F0xx_HAL_Driver/Src/stm32f0xx_hal_tim.c ****        (++) HAL_TIM_Base_Init: to use the Timer to generate a simple time base
  73:cube/Drivers/STM32F0xx_HAL_Driver/Src/stm32f0xx_hal_tim.c ****        (++) HAL_TIM_OC_Init and HAL_TIM_OC_ConfigChannel: to use the Timer to generate an 
  74:cube/Drivers/STM32F0xx_HAL_Driver/Src/stm32f0xx_hal_tim.c ****             Output Compare signal.
  75:cube/Drivers/STM32F0xx_HAL_Driver/Src/stm32f0xx_hal_tim.c ****        (++) HAL_TIM_PWM_Init and HAL_TIM_PWM_ConfigChannel: to use the Timer to generate a 
  76:cube/Drivers/STM32F0xx_HAL_Driver/Src/stm32f0xx_hal_tim.c ****             PWM signal.
  77:cube/Drivers/STM32F0xx_HAL_Driver/Src/stm32f0xx_hal_tim.c ****        (++) HAL_TIM_IC_Init and HAL_TIM_IC_ConfigChannel: to use the Timer to measure an 
  78:cube/Drivers/STM32F0xx_HAL_Driver/Src/stm32f0xx_hal_tim.c ****             external signal.
  79:cube/Drivers/STM32F0xx_HAL_Driver/Src/stm32f0xx_hal_tim.c ****          (++) HAL_TIM_OnePulse_Init and HAL_TIM_OnePulse_ConfigChannel: to use the Timer 
  80:cube/Drivers/STM32F0xx_HAL_Driver/Src/stm32f0xx_hal_tim.c ****               in One Pulse Mode.
  81:cube/Drivers/STM32F0xx_HAL_Driver/Src/stm32f0xx_hal_tim.c ****        (++) HAL_TIM_Encoder_Init: to use the Timer Encoder Interface.
  82:cube/Drivers/STM32F0xx_HAL_Driver/Src/stm32f0xx_hal_tim.c **** 
  83:cube/Drivers/STM32F0xx_HAL_Driver/Src/stm32f0xx_hal_tim.c ****      (#) Activate the TIM peripheral using one of the start functions depending from the feature us
  84:cube/Drivers/STM32F0xx_HAL_Driver/Src/stm32f0xx_hal_tim.c ****            (++) Time Base : HAL_TIM_Base_Start(), HAL_TIM_Base_Start_DMA(), HAL_TIM_Base_Start_IT()
  85:cube/Drivers/STM32F0xx_HAL_Driver/Src/stm32f0xx_hal_tim.c ****            (++) Input Capture :  HAL_TIM_IC_Start(), HAL_TIM_IC_Start_DMA(), HAL_TIM_IC_Start_IT()
  86:cube/Drivers/STM32F0xx_HAL_Driver/Src/stm32f0xx_hal_tim.c ****            (++) Output Compare : HAL_TIM_OC_Start(), HAL_TIM_OC_Start_DMA(), HAL_TIM_OC_Start_IT()
  87:cube/Drivers/STM32F0xx_HAL_Driver/Src/stm32f0xx_hal_tim.c ****            (++) PWM generation : HAL_TIM_PWM_Start(), HAL_TIM_PWM_Start_DMA(), HAL_TIM_PWM_Start_IT
  88:cube/Drivers/STM32F0xx_HAL_Driver/Src/stm32f0xx_hal_tim.c ****            (++) One-pulse mode output : HAL_TIM_OnePulse_Start(), HAL_TIM_OnePulse_Start_IT()
  89:cube/Drivers/STM32F0xx_HAL_Driver/Src/stm32f0xx_hal_tim.c ****            (++) Encoder mode output : HAL_TIM_Encoder_Start(), HAL_TIM_Encoder_Start_DMA(), HAL_TIM
  90:cube/Drivers/STM32F0xx_HAL_Driver/Src/stm32f0xx_hal_tim.c **** 
ARM GAS  /tmp/ccnYXliM.s 			page 3


  91:cube/Drivers/STM32F0xx_HAL_Driver/Src/stm32f0xx_hal_tim.c ****      (#) The DMA Burst is managed with the two following functions:
  92:cube/Drivers/STM32F0xx_HAL_Driver/Src/stm32f0xx_hal_tim.c ****          HAL_TIM_DMABurst_WriteStart()
  93:cube/Drivers/STM32F0xx_HAL_Driver/Src/stm32f0xx_hal_tim.c ****          HAL_TIM_DMABurst_ReadStart()
  94:cube/Drivers/STM32F0xx_HAL_Driver/Src/stm32f0xx_hal_tim.c **** 
  95:cube/Drivers/STM32F0xx_HAL_Driver/Src/stm32f0xx_hal_tim.c ****   @endverbatim
  96:cube/Drivers/STM32F0xx_HAL_Driver/Src/stm32f0xx_hal_tim.c ****   ******************************************************************************
  97:cube/Drivers/STM32F0xx_HAL_Driver/Src/stm32f0xx_hal_tim.c ****   * @attention
  98:cube/Drivers/STM32F0xx_HAL_Driver/Src/stm32f0xx_hal_tim.c ****   *
  99:cube/Drivers/STM32F0xx_HAL_Driver/Src/stm32f0xx_hal_tim.c ****   * <h2><center>&copy; COPYRIGHT(c) 2016 STMicroelectronics</center></h2>
 100:cube/Drivers/STM32F0xx_HAL_Driver/Src/stm32f0xx_hal_tim.c ****   *
 101:cube/Drivers/STM32F0xx_HAL_Driver/Src/stm32f0xx_hal_tim.c ****   * Redistribution and use in source and binary forms, with or without modification,
 102:cube/Drivers/STM32F0xx_HAL_Driver/Src/stm32f0xx_hal_tim.c ****   * are permitted provided that the following conditions are met:
 103:cube/Drivers/STM32F0xx_HAL_Driver/Src/stm32f0xx_hal_tim.c ****   *   1. Redistributions of source code must retain the above copyright notice,
 104:cube/Drivers/STM32F0xx_HAL_Driver/Src/stm32f0xx_hal_tim.c ****   *      this list of conditions and the following disclaimer.
 105:cube/Drivers/STM32F0xx_HAL_Driver/Src/stm32f0xx_hal_tim.c ****   *   2. Redistributions in binary form must reproduce the above copyright notice,
 106:cube/Drivers/STM32F0xx_HAL_Driver/Src/stm32f0xx_hal_tim.c ****   *      this list of conditions and the following disclaimer in the documentation
 107:cube/Drivers/STM32F0xx_HAL_Driver/Src/stm32f0xx_hal_tim.c ****   *      and/or other materials provided with the distribution.
 108:cube/Drivers/STM32F0xx_HAL_Driver/Src/stm32f0xx_hal_tim.c ****   *   3. Neither the name of STMicroelectronics nor the names of its contributors
 109:cube/Drivers/STM32F0xx_HAL_Driver/Src/stm32f0xx_hal_tim.c ****   *      may be used to endorse or promote products derived from this software
 110:cube/Drivers/STM32F0xx_HAL_Driver/Src/stm32f0xx_hal_tim.c ****   *      without specific prior written permission.
 111:cube/Drivers/STM32F0xx_HAL_Driver/Src/stm32f0xx_hal_tim.c ****   *
 112:cube/Drivers/STM32F0xx_HAL_Driver/Src/stm32f0xx_hal_tim.c ****   * THIS SOFTWARE IS PROVIDED BY THE COPYRIGHT HOLDERS AND CONTRIBUTORS "AS IS"
 113:cube/Drivers/STM32F0xx_HAL_Driver/Src/stm32f0xx_hal_tim.c ****   * AND ANY EXPRESS OR IMPLIED WARRANTIES, INCLUDING, BUT NOT LIMITED TO, THE
 114:cube/Drivers/STM32F0xx_HAL_Driver/Src/stm32f0xx_hal_tim.c ****   * IMPLIED WARRANTIES OF MERCHANTABILITY AND FITNESS FOR A PARTICULAR PURPOSE ARE
 115:cube/Drivers/STM32F0xx_HAL_Driver/Src/stm32f0xx_hal_tim.c ****   * DISCLAIMED. IN NO EVENT SHALL THE COPYRIGHT HOLDER OR CONTRIBUTORS BE LIABLE
 116:cube/Drivers/STM32F0xx_HAL_Driver/Src/stm32f0xx_hal_tim.c ****   * FOR ANY DIRECT, INDIRECT, INCIDENTAL, SPECIAL, EXEMPLARY, OR CONSEQUENTIAL
 117:cube/Drivers/STM32F0xx_HAL_Driver/Src/stm32f0xx_hal_tim.c ****   * DAMAGES (INCLUDING, BUT NOT LIMITED TO, PROCUREMENT OF SUBSTITUTE GOODS OR
 118:cube/Drivers/STM32F0xx_HAL_Driver/Src/stm32f0xx_hal_tim.c ****   * SERVICES; LOSS OF USE, DATA, OR PROFITS; OR BUSINESS INTERRUPTION) HOWEVER
 119:cube/Drivers/STM32F0xx_HAL_Driver/Src/stm32f0xx_hal_tim.c ****   * CAUSED AND ON ANY THEORY OF LIABILITY, WHETHER IN CONTRACT, STRICT LIABILITY,
 120:cube/Drivers/STM32F0xx_HAL_Driver/Src/stm32f0xx_hal_tim.c ****   * OR TORT (INCLUDING NEGLIGENCE OR OTHERWISE) ARISING IN ANY WAY OUT OF THE USE
 121:cube/Drivers/STM32F0xx_HAL_Driver/Src/stm32f0xx_hal_tim.c ****   * OF THIS SOFTWARE, EVEN IF ADVISED OF THE POSSIBILITY OF SUCH DAMAGE.
 122:cube/Drivers/STM32F0xx_HAL_Driver/Src/stm32f0xx_hal_tim.c ****   *
 123:cube/Drivers/STM32F0xx_HAL_Driver/Src/stm32f0xx_hal_tim.c ****   ******************************************************************************
 124:cube/Drivers/STM32F0xx_HAL_Driver/Src/stm32f0xx_hal_tim.c ****   */
 125:cube/Drivers/STM32F0xx_HAL_Driver/Src/stm32f0xx_hal_tim.c **** 
 126:cube/Drivers/STM32F0xx_HAL_Driver/Src/stm32f0xx_hal_tim.c **** /* Includes ------------------------------------------------------------------*/
 127:cube/Drivers/STM32F0xx_HAL_Driver/Src/stm32f0xx_hal_tim.c **** #include "stm32f0xx_hal.h"
 128:cube/Drivers/STM32F0xx_HAL_Driver/Src/stm32f0xx_hal_tim.c **** 
 129:cube/Drivers/STM32F0xx_HAL_Driver/Src/stm32f0xx_hal_tim.c **** /** @addtogroup STM32F0xx_HAL_Driver
 130:cube/Drivers/STM32F0xx_HAL_Driver/Src/stm32f0xx_hal_tim.c ****   * @{
 131:cube/Drivers/STM32F0xx_HAL_Driver/Src/stm32f0xx_hal_tim.c ****   */
 132:cube/Drivers/STM32F0xx_HAL_Driver/Src/stm32f0xx_hal_tim.c **** 
 133:cube/Drivers/STM32F0xx_HAL_Driver/Src/stm32f0xx_hal_tim.c **** /** @defgroup TIM TIM
 134:cube/Drivers/STM32F0xx_HAL_Driver/Src/stm32f0xx_hal_tim.c ****   * @brief TIM HAL module driver
 135:cube/Drivers/STM32F0xx_HAL_Driver/Src/stm32f0xx_hal_tim.c ****   * @{
 136:cube/Drivers/STM32F0xx_HAL_Driver/Src/stm32f0xx_hal_tim.c ****   */
 137:cube/Drivers/STM32F0xx_HAL_Driver/Src/stm32f0xx_hal_tim.c **** 
 138:cube/Drivers/STM32F0xx_HAL_Driver/Src/stm32f0xx_hal_tim.c **** #ifdef HAL_TIM_MODULE_ENABLED
 139:cube/Drivers/STM32F0xx_HAL_Driver/Src/stm32f0xx_hal_tim.c **** 
 140:cube/Drivers/STM32F0xx_HAL_Driver/Src/stm32f0xx_hal_tim.c **** /* Private typedef -----------------------------------------------------------*/
 141:cube/Drivers/STM32F0xx_HAL_Driver/Src/stm32f0xx_hal_tim.c **** /* Private define ------------------------------------------------------------*/
 142:cube/Drivers/STM32F0xx_HAL_Driver/Src/stm32f0xx_hal_tim.c **** /* Private macro -------------------------------------------------------------*/
 143:cube/Drivers/STM32F0xx_HAL_Driver/Src/stm32f0xx_hal_tim.c **** /* Private variables ---------------------------------------------------------*/
 144:cube/Drivers/STM32F0xx_HAL_Driver/Src/stm32f0xx_hal_tim.c **** /* Private function prototypes -----------------------------------------------*/
 145:cube/Drivers/STM32F0xx_HAL_Driver/Src/stm32f0xx_hal_tim.c **** 
 146:cube/Drivers/STM32F0xx_HAL_Driver/Src/stm32f0xx_hal_tim.c **** /** @defgroup TIM_Private_Functions TIM_Private_Functions
 147:cube/Drivers/STM32F0xx_HAL_Driver/Src/stm32f0xx_hal_tim.c ****   * @{
ARM GAS  /tmp/ccnYXliM.s 			page 4


 148:cube/Drivers/STM32F0xx_HAL_Driver/Src/stm32f0xx_hal_tim.c ****   */
 149:cube/Drivers/STM32F0xx_HAL_Driver/Src/stm32f0xx_hal_tim.c **** static void TIM_OC1_SetConfig(TIM_TypeDef *TIMx, TIM_OC_InitTypeDef *OC_Config);
 150:cube/Drivers/STM32F0xx_HAL_Driver/Src/stm32f0xx_hal_tim.c **** static void TIM_OC3_SetConfig(TIM_TypeDef *TIMx, TIM_OC_InitTypeDef *OC_Config);
 151:cube/Drivers/STM32F0xx_HAL_Driver/Src/stm32f0xx_hal_tim.c **** static void TIM_OC4_SetConfig(TIM_TypeDef *TIMx, TIM_OC_InitTypeDef *OC_Config);
 152:cube/Drivers/STM32F0xx_HAL_Driver/Src/stm32f0xx_hal_tim.c **** static void TIM_TI1_ConfigInputStage(TIM_TypeDef *TIMx, uint32_t TIM_ICPolarity, uint32_t TIM_ICFil
 153:cube/Drivers/STM32F0xx_HAL_Driver/Src/stm32f0xx_hal_tim.c **** static void TIM_TI2_SetConfig(TIM_TypeDef *TIMx, uint32_t TIM_ICPolarity, uint32_t TIM_ICSelection,
 154:cube/Drivers/STM32F0xx_HAL_Driver/Src/stm32f0xx_hal_tim.c ****                        uint32_t TIM_ICFilter);
 155:cube/Drivers/STM32F0xx_HAL_Driver/Src/stm32f0xx_hal_tim.c **** static void TIM_TI2_ConfigInputStage(TIM_TypeDef *TIMx, uint32_t TIM_ICPolarity, uint32_t TIM_ICFil
 156:cube/Drivers/STM32F0xx_HAL_Driver/Src/stm32f0xx_hal_tim.c **** static void TIM_TI3_SetConfig(TIM_TypeDef *TIMx, uint32_t TIM_ICPolarity, uint32_t TIM_ICSelection,
 157:cube/Drivers/STM32F0xx_HAL_Driver/Src/stm32f0xx_hal_tim.c ****                        uint32_t TIM_ICFilter);
 158:cube/Drivers/STM32F0xx_HAL_Driver/Src/stm32f0xx_hal_tim.c **** static void TIM_TI4_SetConfig(TIM_TypeDef *TIMx, uint32_t TIM_ICPolarity, uint32_t TIM_ICSelection,
 159:cube/Drivers/STM32F0xx_HAL_Driver/Src/stm32f0xx_hal_tim.c ****                        uint32_t TIM_ICFilter);
 160:cube/Drivers/STM32F0xx_HAL_Driver/Src/stm32f0xx_hal_tim.c **** static void TIM_ITRx_SetConfig(TIM_TypeDef* TIMx, uint16_t InputTriggerSource);
 161:cube/Drivers/STM32F0xx_HAL_Driver/Src/stm32f0xx_hal_tim.c **** static void TIM_DMAPeriodElapsedCplt(DMA_HandleTypeDef *hdma);
 162:cube/Drivers/STM32F0xx_HAL_Driver/Src/stm32f0xx_hal_tim.c **** static void TIM_DMATriggerCplt(DMA_HandleTypeDef *hdma);
 163:cube/Drivers/STM32F0xx_HAL_Driver/Src/stm32f0xx_hal_tim.c **** static void TIM_SlaveTimer_SetConfig(TIM_HandleTypeDef *htim,
 164:cube/Drivers/STM32F0xx_HAL_Driver/Src/stm32f0xx_hal_tim.c ****                                      TIM_SlaveConfigTypeDef * sSlaveConfig);
 165:cube/Drivers/STM32F0xx_HAL_Driver/Src/stm32f0xx_hal_tim.c **** 
 166:cube/Drivers/STM32F0xx_HAL_Driver/Src/stm32f0xx_hal_tim.c **** /**
 167:cube/Drivers/STM32F0xx_HAL_Driver/Src/stm32f0xx_hal_tim.c ****   * @}
 168:cube/Drivers/STM32F0xx_HAL_Driver/Src/stm32f0xx_hal_tim.c ****   */
 169:cube/Drivers/STM32F0xx_HAL_Driver/Src/stm32f0xx_hal_tim.c **** 
 170:cube/Drivers/STM32F0xx_HAL_Driver/Src/stm32f0xx_hal_tim.c **** /* Exported functions ---------------------------------------------------------*/
 171:cube/Drivers/STM32F0xx_HAL_Driver/Src/stm32f0xx_hal_tim.c **** 
 172:cube/Drivers/STM32F0xx_HAL_Driver/Src/stm32f0xx_hal_tim.c **** /** @defgroup TIM_Exported_Functions TIM Exported Functions
 173:cube/Drivers/STM32F0xx_HAL_Driver/Src/stm32f0xx_hal_tim.c ****   * @{
 174:cube/Drivers/STM32F0xx_HAL_Driver/Src/stm32f0xx_hal_tim.c ****   */
 175:cube/Drivers/STM32F0xx_HAL_Driver/Src/stm32f0xx_hal_tim.c **** 
 176:cube/Drivers/STM32F0xx_HAL_Driver/Src/stm32f0xx_hal_tim.c **** /** @defgroup TIM_Exported_Functions_Group1 Time Base functions 
 177:cube/Drivers/STM32F0xx_HAL_Driver/Src/stm32f0xx_hal_tim.c ****  *  @brief    Time Base functions 
 178:cube/Drivers/STM32F0xx_HAL_Driver/Src/stm32f0xx_hal_tim.c ****  *
 179:cube/Drivers/STM32F0xx_HAL_Driver/Src/stm32f0xx_hal_tim.c **** @verbatim 
 180:cube/Drivers/STM32F0xx_HAL_Driver/Src/stm32f0xx_hal_tim.c ****   ==============================================================================
 181:cube/Drivers/STM32F0xx_HAL_Driver/Src/stm32f0xx_hal_tim.c ****               ##### Time Base functions #####
 182:cube/Drivers/STM32F0xx_HAL_Driver/Src/stm32f0xx_hal_tim.c ****   ==============================================================================
 183:cube/Drivers/STM32F0xx_HAL_Driver/Src/stm32f0xx_hal_tim.c ****   [..]
 184:cube/Drivers/STM32F0xx_HAL_Driver/Src/stm32f0xx_hal_tim.c ****     This section provides functions allowing to:
 185:cube/Drivers/STM32F0xx_HAL_Driver/Src/stm32f0xx_hal_tim.c ****     (+) Initialize and configure the TIM base.
 186:cube/Drivers/STM32F0xx_HAL_Driver/Src/stm32f0xx_hal_tim.c ****     (+) De-initialize the TIM base.
 187:cube/Drivers/STM32F0xx_HAL_Driver/Src/stm32f0xx_hal_tim.c ****     (+) Start the Time Base.
 188:cube/Drivers/STM32F0xx_HAL_Driver/Src/stm32f0xx_hal_tim.c ****     (+) Stop the Time Base.
 189:cube/Drivers/STM32F0xx_HAL_Driver/Src/stm32f0xx_hal_tim.c ****     (+) Start the Time Base and enable interrupt.
 190:cube/Drivers/STM32F0xx_HAL_Driver/Src/stm32f0xx_hal_tim.c ****     (+) Stop the Time Base and disable interrupt.
 191:cube/Drivers/STM32F0xx_HAL_Driver/Src/stm32f0xx_hal_tim.c ****     (+) Start the Time Base and enable DMA transfer.
 192:cube/Drivers/STM32F0xx_HAL_Driver/Src/stm32f0xx_hal_tim.c ****     (+) Stop the Time Base and disable DMA transfer.
 193:cube/Drivers/STM32F0xx_HAL_Driver/Src/stm32f0xx_hal_tim.c **** 
 194:cube/Drivers/STM32F0xx_HAL_Driver/Src/stm32f0xx_hal_tim.c **** @endverbatim
 195:cube/Drivers/STM32F0xx_HAL_Driver/Src/stm32f0xx_hal_tim.c ****   * @{
 196:cube/Drivers/STM32F0xx_HAL_Driver/Src/stm32f0xx_hal_tim.c ****   */
 197:cube/Drivers/STM32F0xx_HAL_Driver/Src/stm32f0xx_hal_tim.c **** /**
 198:cube/Drivers/STM32F0xx_HAL_Driver/Src/stm32f0xx_hal_tim.c ****   * @brief  Initializes the TIM Time base Unit according to the specified
 199:cube/Drivers/STM32F0xx_HAL_Driver/Src/stm32f0xx_hal_tim.c ****   *         parameters in the TIM_HandleTypeDef and create the associated handle.
 200:cube/Drivers/STM32F0xx_HAL_Driver/Src/stm32f0xx_hal_tim.c ****   * @param  htim TIM Base handle
 201:cube/Drivers/STM32F0xx_HAL_Driver/Src/stm32f0xx_hal_tim.c ****   * @retval HAL status
 202:cube/Drivers/STM32F0xx_HAL_Driver/Src/stm32f0xx_hal_tim.c ****   */
 203:cube/Drivers/STM32F0xx_HAL_Driver/Src/stm32f0xx_hal_tim.c **** HAL_StatusTypeDef HAL_TIM_Base_Init(TIM_HandleTypeDef *htim)
 204:cube/Drivers/STM32F0xx_HAL_Driver/Src/stm32f0xx_hal_tim.c **** {
ARM GAS  /tmp/ccnYXliM.s 			page 5


  26              		.loc 1 204 0
  27              		.cfi_startproc
  28              		@ args = 0, pretend = 0, frame = 8
  29              		@ frame_needed = 1, uses_anonymous_args = 0
  30 0000 80B5     		push	{r7, lr}
  31              		.cfi_def_cfa_offset 8
  32              		.cfi_offset 7, -8
  33              		.cfi_offset 14, -4
  34 0002 82B0     		sub	sp, sp, #8
  35              		.cfi_def_cfa_offset 16
  36 0004 00AF     		add	r7, sp, #0
  37              		.cfi_def_cfa_register 7
  38 0006 7860     		str	r0, [r7, #4]
 205:cube/Drivers/STM32F0xx_HAL_Driver/Src/stm32f0xx_hal_tim.c ****   /* Check the TIM handle allocation */
 206:cube/Drivers/STM32F0xx_HAL_Driver/Src/stm32f0xx_hal_tim.c ****   if(htim == NULL)
  39              		.loc 1 206 0
  40 0008 7B68     		ldr	r3, [r7, #4]
  41 000a 002B     		cmp	r3, #0
  42 000c 01D1     		bne	.L2
 207:cube/Drivers/STM32F0xx_HAL_Driver/Src/stm32f0xx_hal_tim.c ****   {
 208:cube/Drivers/STM32F0xx_HAL_Driver/Src/stm32f0xx_hal_tim.c ****     return HAL_ERROR;
  43              		.loc 1 208 0
  44 000e 0123     		movs	r3, #1
  45 0010 1EE0     		b	.L3
  46              	.L2:
 209:cube/Drivers/STM32F0xx_HAL_Driver/Src/stm32f0xx_hal_tim.c ****   }
 210:cube/Drivers/STM32F0xx_HAL_Driver/Src/stm32f0xx_hal_tim.c **** 
 211:cube/Drivers/STM32F0xx_HAL_Driver/Src/stm32f0xx_hal_tim.c ****   /* Check the parameters */
 212:cube/Drivers/STM32F0xx_HAL_Driver/Src/stm32f0xx_hal_tim.c ****   assert_param(IS_TIM_INSTANCE(htim->Instance));
 213:cube/Drivers/STM32F0xx_HAL_Driver/Src/stm32f0xx_hal_tim.c ****   assert_param(IS_TIM_COUNTER_MODE(htim->Init.CounterMode));
 214:cube/Drivers/STM32F0xx_HAL_Driver/Src/stm32f0xx_hal_tim.c ****   assert_param(IS_TIM_CLOCKDIVISION_DIV(htim->Init.ClockDivision));
 215:cube/Drivers/STM32F0xx_HAL_Driver/Src/stm32f0xx_hal_tim.c ****   assert_param(IS_TIM_AUTORELOAD_PRELOAD(htim->Init.AutoReloadPreload));
 216:cube/Drivers/STM32F0xx_HAL_Driver/Src/stm32f0xx_hal_tim.c **** 
 217:cube/Drivers/STM32F0xx_HAL_Driver/Src/stm32f0xx_hal_tim.c ****   if(htim->State == HAL_TIM_STATE_RESET)
  47              		.loc 1 217 0
  48 0012 7B68     		ldr	r3, [r7, #4]
  49 0014 3D22     		movs	r2, #61
  50 0016 9B5C     		ldrb	r3, [r3, r2]
  51 0018 DBB2     		uxtb	r3, r3
  52 001a 002B     		cmp	r3, #0
  53 001c 07D1     		bne	.L4
 218:cube/Drivers/STM32F0xx_HAL_Driver/Src/stm32f0xx_hal_tim.c ****   {
 219:cube/Drivers/STM32F0xx_HAL_Driver/Src/stm32f0xx_hal_tim.c ****     /* Allocate lock resource and initialize it */
 220:cube/Drivers/STM32F0xx_HAL_Driver/Src/stm32f0xx_hal_tim.c ****     htim->Lock = HAL_UNLOCKED;
  54              		.loc 1 220 0
  55 001e 7B68     		ldr	r3, [r7, #4]
  56 0020 3C22     		movs	r2, #60
  57 0022 0021     		movs	r1, #0
  58 0024 9954     		strb	r1, [r3, r2]
 221:cube/Drivers/STM32F0xx_HAL_Driver/Src/stm32f0xx_hal_tim.c **** 
 222:cube/Drivers/STM32F0xx_HAL_Driver/Src/stm32f0xx_hal_tim.c ****     /* Init the low level hardware : GPIO, CLOCK, NVIC */
 223:cube/Drivers/STM32F0xx_HAL_Driver/Src/stm32f0xx_hal_tim.c ****     HAL_TIM_Base_MspInit(htim);
  59              		.loc 1 223 0
  60 0026 7B68     		ldr	r3, [r7, #4]
  61 0028 1800     		movs	r0, r3
  62 002a FFF7FEFF 		bl	HAL_TIM_Base_MspInit
  63              	.L4:
ARM GAS  /tmp/ccnYXliM.s 			page 6


 224:cube/Drivers/STM32F0xx_HAL_Driver/Src/stm32f0xx_hal_tim.c ****   }
 225:cube/Drivers/STM32F0xx_HAL_Driver/Src/stm32f0xx_hal_tim.c **** 
 226:cube/Drivers/STM32F0xx_HAL_Driver/Src/stm32f0xx_hal_tim.c ****   /* Set the TIM state */
 227:cube/Drivers/STM32F0xx_HAL_Driver/Src/stm32f0xx_hal_tim.c ****   htim->State= HAL_TIM_STATE_BUSY;
  64              		.loc 1 227 0
  65 002e 7B68     		ldr	r3, [r7, #4]
  66 0030 3D22     		movs	r2, #61
  67 0032 0221     		movs	r1, #2
  68 0034 9954     		strb	r1, [r3, r2]
 228:cube/Drivers/STM32F0xx_HAL_Driver/Src/stm32f0xx_hal_tim.c **** 
 229:cube/Drivers/STM32F0xx_HAL_Driver/Src/stm32f0xx_hal_tim.c ****   /* Set the Time Base configuration */
 230:cube/Drivers/STM32F0xx_HAL_Driver/Src/stm32f0xx_hal_tim.c ****   TIM_Base_SetConfig(htim->Instance, &htim->Init);
  69              		.loc 1 230 0
  70 0036 7B68     		ldr	r3, [r7, #4]
  71 0038 1A68     		ldr	r2, [r3]
  72 003a 7B68     		ldr	r3, [r7, #4]
  73 003c 0433     		adds	r3, r3, #4
  74 003e 1900     		movs	r1, r3
  75 0040 1000     		movs	r0, r2
  76 0042 FFF7FEFF 		bl	TIM_Base_SetConfig
 231:cube/Drivers/STM32F0xx_HAL_Driver/Src/stm32f0xx_hal_tim.c **** 
 232:cube/Drivers/STM32F0xx_HAL_Driver/Src/stm32f0xx_hal_tim.c ****   /* Initialize the TIM state*/
 233:cube/Drivers/STM32F0xx_HAL_Driver/Src/stm32f0xx_hal_tim.c ****   htim->State= HAL_TIM_STATE_READY;
  77              		.loc 1 233 0
  78 0046 7B68     		ldr	r3, [r7, #4]
  79 0048 3D22     		movs	r2, #61
  80 004a 0121     		movs	r1, #1
  81 004c 9954     		strb	r1, [r3, r2]
 234:cube/Drivers/STM32F0xx_HAL_Driver/Src/stm32f0xx_hal_tim.c **** 
 235:cube/Drivers/STM32F0xx_HAL_Driver/Src/stm32f0xx_hal_tim.c ****   return HAL_OK;
  82              		.loc 1 235 0
  83 004e 0023     		movs	r3, #0
  84              	.L3:
 236:cube/Drivers/STM32F0xx_HAL_Driver/Src/stm32f0xx_hal_tim.c **** }
  85              		.loc 1 236 0
  86 0050 1800     		movs	r0, r3
  87 0052 BD46     		mov	sp, r7
  88 0054 02B0     		add	sp, sp, #8
  89              		@ sp needed
  90 0056 80BD     		pop	{r7, pc}
  91              		.cfi_endproc
  92              	.LFE37:
  94              		.section	.text.HAL_TIM_Base_DeInit,"ax",%progbits
  95              		.align	1
  96              		.global	HAL_TIM_Base_DeInit
  97              		.syntax unified
  98              		.code	16
  99              		.thumb_func
 100              		.fpu softvfp
 102              	HAL_TIM_Base_DeInit:
 103              	.LFB38:
 237:cube/Drivers/STM32F0xx_HAL_Driver/Src/stm32f0xx_hal_tim.c **** 
 238:cube/Drivers/STM32F0xx_HAL_Driver/Src/stm32f0xx_hal_tim.c **** /**
 239:cube/Drivers/STM32F0xx_HAL_Driver/Src/stm32f0xx_hal_tim.c ****   * @brief  DeInitializes the TIM Base peripheral 
 240:cube/Drivers/STM32F0xx_HAL_Driver/Src/stm32f0xx_hal_tim.c ****   * @param  htim TIM Base handle
 241:cube/Drivers/STM32F0xx_HAL_Driver/Src/stm32f0xx_hal_tim.c ****   * @retval HAL status
 242:cube/Drivers/STM32F0xx_HAL_Driver/Src/stm32f0xx_hal_tim.c ****   */
ARM GAS  /tmp/ccnYXliM.s 			page 7


 243:cube/Drivers/STM32F0xx_HAL_Driver/Src/stm32f0xx_hal_tim.c **** HAL_StatusTypeDef HAL_TIM_Base_DeInit(TIM_HandleTypeDef *htim)
 244:cube/Drivers/STM32F0xx_HAL_Driver/Src/stm32f0xx_hal_tim.c **** {
 104              		.loc 1 244 0
 105              		.cfi_startproc
 106              		@ args = 0, pretend = 0, frame = 8
 107              		@ frame_needed = 1, uses_anonymous_args = 0
 108 0000 80B5     		push	{r7, lr}
 109              		.cfi_def_cfa_offset 8
 110              		.cfi_offset 7, -8
 111              		.cfi_offset 14, -4
 112 0002 82B0     		sub	sp, sp, #8
 113              		.cfi_def_cfa_offset 16
 114 0004 00AF     		add	r7, sp, #0
 115              		.cfi_def_cfa_register 7
 116 0006 7860     		str	r0, [r7, #4]
 245:cube/Drivers/STM32F0xx_HAL_Driver/Src/stm32f0xx_hal_tim.c ****   /* Check the parameters */
 246:cube/Drivers/STM32F0xx_HAL_Driver/Src/stm32f0xx_hal_tim.c ****   assert_param(IS_TIM_INSTANCE(htim->Instance));
 247:cube/Drivers/STM32F0xx_HAL_Driver/Src/stm32f0xx_hal_tim.c **** 
 248:cube/Drivers/STM32F0xx_HAL_Driver/Src/stm32f0xx_hal_tim.c ****   htim->State = HAL_TIM_STATE_BUSY;
 117              		.loc 1 248 0
 118 0008 7B68     		ldr	r3, [r7, #4]
 119 000a 3D22     		movs	r2, #61
 120 000c 0221     		movs	r1, #2
 121 000e 9954     		strb	r1, [r3, r2]
 249:cube/Drivers/STM32F0xx_HAL_Driver/Src/stm32f0xx_hal_tim.c **** 
 250:cube/Drivers/STM32F0xx_HAL_Driver/Src/stm32f0xx_hal_tim.c ****   /* Disable the TIM Peripheral Clock */
 251:cube/Drivers/STM32F0xx_HAL_Driver/Src/stm32f0xx_hal_tim.c ****   __HAL_TIM_DISABLE(htim);
 122              		.loc 1 251 0
 123 0010 7B68     		ldr	r3, [r7, #4]
 124 0012 1B68     		ldr	r3, [r3]
 125 0014 1B6A     		ldr	r3, [r3, #32]
 126 0016 114A     		ldr	r2, .L8
 127 0018 1340     		ands	r3, r2
 128 001a 0DD1     		bne	.L6
 129              		.loc 1 251 0 is_stmt 0 discriminator 1
 130 001c 7B68     		ldr	r3, [r7, #4]
 131 001e 1B68     		ldr	r3, [r3]
 132 0020 1B6A     		ldr	r3, [r3, #32]
 133 0022 0F4A     		ldr	r2, .L8+4
 134 0024 1340     		ands	r3, r2
 135 0026 07D1     		bne	.L6
 136              		.loc 1 251 0 discriminator 2
 137 0028 7B68     		ldr	r3, [r7, #4]
 138 002a 1B68     		ldr	r3, [r3]
 139 002c 1A68     		ldr	r2, [r3]
 140 002e 7B68     		ldr	r3, [r7, #4]
 141 0030 1B68     		ldr	r3, [r3]
 142 0032 0121     		movs	r1, #1
 143 0034 8A43     		bics	r2, r1
 144 0036 1A60     		str	r2, [r3]
 145              	.L6:
 252:cube/Drivers/STM32F0xx_HAL_Driver/Src/stm32f0xx_hal_tim.c **** 
 253:cube/Drivers/STM32F0xx_HAL_Driver/Src/stm32f0xx_hal_tim.c ****   /* DeInit the low level hardware: GPIO, CLOCK, NVIC */
 254:cube/Drivers/STM32F0xx_HAL_Driver/Src/stm32f0xx_hal_tim.c ****   HAL_TIM_Base_MspDeInit(htim);
 146              		.loc 1 254 0 is_stmt 1
 147 0038 7B68     		ldr	r3, [r7, #4]
 148 003a 1800     		movs	r0, r3
ARM GAS  /tmp/ccnYXliM.s 			page 8


 149 003c FFF7FEFF 		bl	HAL_TIM_Base_MspDeInit
 255:cube/Drivers/STM32F0xx_HAL_Driver/Src/stm32f0xx_hal_tim.c **** 
 256:cube/Drivers/STM32F0xx_HAL_Driver/Src/stm32f0xx_hal_tim.c ****   /* Change TIM state */
 257:cube/Drivers/STM32F0xx_HAL_Driver/Src/stm32f0xx_hal_tim.c ****   htim->State = HAL_TIM_STATE_RESET;
 150              		.loc 1 257 0
 151 0040 7B68     		ldr	r3, [r7, #4]
 152 0042 3D22     		movs	r2, #61
 153 0044 0021     		movs	r1, #0
 154 0046 9954     		strb	r1, [r3, r2]
 258:cube/Drivers/STM32F0xx_HAL_Driver/Src/stm32f0xx_hal_tim.c **** 
 259:cube/Drivers/STM32F0xx_HAL_Driver/Src/stm32f0xx_hal_tim.c ****   /* Release Lock */
 260:cube/Drivers/STM32F0xx_HAL_Driver/Src/stm32f0xx_hal_tim.c ****   __HAL_UNLOCK(htim);
 155              		.loc 1 260 0
 156 0048 7B68     		ldr	r3, [r7, #4]
 157 004a 3C22     		movs	r2, #60
 158 004c 0021     		movs	r1, #0
 159 004e 9954     		strb	r1, [r3, r2]
 261:cube/Drivers/STM32F0xx_HAL_Driver/Src/stm32f0xx_hal_tim.c **** 
 262:cube/Drivers/STM32F0xx_HAL_Driver/Src/stm32f0xx_hal_tim.c ****   return HAL_OK;
 160              		.loc 1 262 0
 161 0050 0023     		movs	r3, #0
 263:cube/Drivers/STM32F0xx_HAL_Driver/Src/stm32f0xx_hal_tim.c **** }
 162              		.loc 1 263 0
 163 0052 1800     		movs	r0, r3
 164 0054 BD46     		mov	sp, r7
 165 0056 02B0     		add	sp, sp, #8
 166              		@ sp needed
 167 0058 80BD     		pop	{r7, pc}
 168              	.L9:
 169 005a C046     		.align	2
 170              	.L8:
 171 005c 11110000 		.word	4369
 172 0060 44040000 		.word	1092
 173              		.cfi_endproc
 174              	.LFE38:
 176              		.section	.text.HAL_TIM_Base_MspInit,"ax",%progbits
 177              		.align	1
 178              		.weak	HAL_TIM_Base_MspInit
 179              		.syntax unified
 180              		.code	16
 181              		.thumb_func
 182              		.fpu softvfp
 184              	HAL_TIM_Base_MspInit:
 185              	.LFB39:
 264:cube/Drivers/STM32F0xx_HAL_Driver/Src/stm32f0xx_hal_tim.c **** 
 265:cube/Drivers/STM32F0xx_HAL_Driver/Src/stm32f0xx_hal_tim.c **** /**
 266:cube/Drivers/STM32F0xx_HAL_Driver/Src/stm32f0xx_hal_tim.c ****   * @brief  Initializes the TIM Base MSP.
 267:cube/Drivers/STM32F0xx_HAL_Driver/Src/stm32f0xx_hal_tim.c ****   * @param  htim TIM handle
 268:cube/Drivers/STM32F0xx_HAL_Driver/Src/stm32f0xx_hal_tim.c ****   * @retval None
 269:cube/Drivers/STM32F0xx_HAL_Driver/Src/stm32f0xx_hal_tim.c ****   */
 270:cube/Drivers/STM32F0xx_HAL_Driver/Src/stm32f0xx_hal_tim.c **** __weak void HAL_TIM_Base_MspInit(TIM_HandleTypeDef *htim)
 271:cube/Drivers/STM32F0xx_HAL_Driver/Src/stm32f0xx_hal_tim.c **** {
 186              		.loc 1 271 0
 187              		.cfi_startproc
 188              		@ args = 0, pretend = 0, frame = 8
 189              		@ frame_needed = 1, uses_anonymous_args = 0
 190 0000 80B5     		push	{r7, lr}
ARM GAS  /tmp/ccnYXliM.s 			page 9


 191              		.cfi_def_cfa_offset 8
 192              		.cfi_offset 7, -8
 193              		.cfi_offset 14, -4
 194 0002 82B0     		sub	sp, sp, #8
 195              		.cfi_def_cfa_offset 16
 196 0004 00AF     		add	r7, sp, #0
 197              		.cfi_def_cfa_register 7
 198 0006 7860     		str	r0, [r7, #4]
 272:cube/Drivers/STM32F0xx_HAL_Driver/Src/stm32f0xx_hal_tim.c ****   /* Prevent unused argument(s) compilation warning */
 273:cube/Drivers/STM32F0xx_HAL_Driver/Src/stm32f0xx_hal_tim.c ****   UNUSED(htim);
 274:cube/Drivers/STM32F0xx_HAL_Driver/Src/stm32f0xx_hal_tim.c **** 
 275:cube/Drivers/STM32F0xx_HAL_Driver/Src/stm32f0xx_hal_tim.c ****   /* NOTE : This function Should not be modified, when the callback is needed,
 276:cube/Drivers/STM32F0xx_HAL_Driver/Src/stm32f0xx_hal_tim.c ****             the HAL_TIM_Base_MspInit could be implemented in the user file
 277:cube/Drivers/STM32F0xx_HAL_Driver/Src/stm32f0xx_hal_tim.c ****    */
 278:cube/Drivers/STM32F0xx_HAL_Driver/Src/stm32f0xx_hal_tim.c **** }
 199              		.loc 1 278 0
 200 0008 C046     		nop
 201 000a BD46     		mov	sp, r7
 202 000c 02B0     		add	sp, sp, #8
 203              		@ sp needed
 204 000e 80BD     		pop	{r7, pc}
 205              		.cfi_endproc
 206              	.LFE39:
 208              		.section	.text.HAL_TIM_Base_MspDeInit,"ax",%progbits
 209              		.align	1
 210              		.weak	HAL_TIM_Base_MspDeInit
 211              		.syntax unified
 212              		.code	16
 213              		.thumb_func
 214              		.fpu softvfp
 216              	HAL_TIM_Base_MspDeInit:
 217              	.LFB40:
 279:cube/Drivers/STM32F0xx_HAL_Driver/Src/stm32f0xx_hal_tim.c **** 
 280:cube/Drivers/STM32F0xx_HAL_Driver/Src/stm32f0xx_hal_tim.c **** /**
 281:cube/Drivers/STM32F0xx_HAL_Driver/Src/stm32f0xx_hal_tim.c ****   * @brief  DeInitializes TIM Base MSP.
 282:cube/Drivers/STM32F0xx_HAL_Driver/Src/stm32f0xx_hal_tim.c ****   * @param  htim TIM handle
 283:cube/Drivers/STM32F0xx_HAL_Driver/Src/stm32f0xx_hal_tim.c ****   * @retval None
 284:cube/Drivers/STM32F0xx_HAL_Driver/Src/stm32f0xx_hal_tim.c ****   */
 285:cube/Drivers/STM32F0xx_HAL_Driver/Src/stm32f0xx_hal_tim.c **** __weak void HAL_TIM_Base_MspDeInit(TIM_HandleTypeDef *htim)
 286:cube/Drivers/STM32F0xx_HAL_Driver/Src/stm32f0xx_hal_tim.c **** {
 218              		.loc 1 286 0
 219              		.cfi_startproc
 220              		@ args = 0, pretend = 0, frame = 8
 221              		@ frame_needed = 1, uses_anonymous_args = 0
 222 0000 80B5     		push	{r7, lr}
 223              		.cfi_def_cfa_offset 8
 224              		.cfi_offset 7, -8
 225              		.cfi_offset 14, -4
 226 0002 82B0     		sub	sp, sp, #8
 227              		.cfi_def_cfa_offset 16
 228 0004 00AF     		add	r7, sp, #0
 229              		.cfi_def_cfa_register 7
 230 0006 7860     		str	r0, [r7, #4]
 287:cube/Drivers/STM32F0xx_HAL_Driver/Src/stm32f0xx_hal_tim.c ****   /* Prevent unused argument(s) compilation warning */
 288:cube/Drivers/STM32F0xx_HAL_Driver/Src/stm32f0xx_hal_tim.c ****   UNUSED(htim);
 289:cube/Drivers/STM32F0xx_HAL_Driver/Src/stm32f0xx_hal_tim.c **** 
 290:cube/Drivers/STM32F0xx_HAL_Driver/Src/stm32f0xx_hal_tim.c ****   /* NOTE : This function Should not be modified, when the callback is needed,
ARM GAS  /tmp/ccnYXliM.s 			page 10


 291:cube/Drivers/STM32F0xx_HAL_Driver/Src/stm32f0xx_hal_tim.c ****             the HAL_TIM_Base_MspDeInit could be implemented in the user file
 292:cube/Drivers/STM32F0xx_HAL_Driver/Src/stm32f0xx_hal_tim.c ****    */
 293:cube/Drivers/STM32F0xx_HAL_Driver/Src/stm32f0xx_hal_tim.c **** }
 231              		.loc 1 293 0
 232 0008 C046     		nop
 233 000a BD46     		mov	sp, r7
 234 000c 02B0     		add	sp, sp, #8
 235              		@ sp needed
 236 000e 80BD     		pop	{r7, pc}
 237              		.cfi_endproc
 238              	.LFE40:
 240              		.section	.text.HAL_TIM_Base_Start,"ax",%progbits
 241              		.align	1
 242              		.global	HAL_TIM_Base_Start
 243              		.syntax unified
 244              		.code	16
 245              		.thumb_func
 246              		.fpu softvfp
 248              	HAL_TIM_Base_Start:
 249              	.LFB41:
 294:cube/Drivers/STM32F0xx_HAL_Driver/Src/stm32f0xx_hal_tim.c **** 
 295:cube/Drivers/STM32F0xx_HAL_Driver/Src/stm32f0xx_hal_tim.c **** 
 296:cube/Drivers/STM32F0xx_HAL_Driver/Src/stm32f0xx_hal_tim.c **** /**
 297:cube/Drivers/STM32F0xx_HAL_Driver/Src/stm32f0xx_hal_tim.c ****   * @brief  Starts the TIM Base generation.
 298:cube/Drivers/STM32F0xx_HAL_Driver/Src/stm32f0xx_hal_tim.c ****   * @param  htim TIM handle
 299:cube/Drivers/STM32F0xx_HAL_Driver/Src/stm32f0xx_hal_tim.c ****   * @retval HAL status
 300:cube/Drivers/STM32F0xx_HAL_Driver/Src/stm32f0xx_hal_tim.c **** */
 301:cube/Drivers/STM32F0xx_HAL_Driver/Src/stm32f0xx_hal_tim.c **** HAL_StatusTypeDef HAL_TIM_Base_Start(TIM_HandleTypeDef *htim)
 302:cube/Drivers/STM32F0xx_HAL_Driver/Src/stm32f0xx_hal_tim.c **** {
 250              		.loc 1 302 0
 251              		.cfi_startproc
 252              		@ args = 0, pretend = 0, frame = 8
 253              		@ frame_needed = 1, uses_anonymous_args = 0
 254 0000 80B5     		push	{r7, lr}
 255              		.cfi_def_cfa_offset 8
 256              		.cfi_offset 7, -8
 257              		.cfi_offset 14, -4
 258 0002 82B0     		sub	sp, sp, #8
 259              		.cfi_def_cfa_offset 16
 260 0004 00AF     		add	r7, sp, #0
 261              		.cfi_def_cfa_register 7
 262 0006 7860     		str	r0, [r7, #4]
 303:cube/Drivers/STM32F0xx_HAL_Driver/Src/stm32f0xx_hal_tim.c ****   /* Check the parameters */
 304:cube/Drivers/STM32F0xx_HAL_Driver/Src/stm32f0xx_hal_tim.c ****   assert_param(IS_TIM_INSTANCE(htim->Instance));
 305:cube/Drivers/STM32F0xx_HAL_Driver/Src/stm32f0xx_hal_tim.c **** 
 306:cube/Drivers/STM32F0xx_HAL_Driver/Src/stm32f0xx_hal_tim.c ****   /* Set the TIM state */
 307:cube/Drivers/STM32F0xx_HAL_Driver/Src/stm32f0xx_hal_tim.c ****   htim->State= HAL_TIM_STATE_BUSY;
 263              		.loc 1 307 0
 264 0008 7B68     		ldr	r3, [r7, #4]
 265 000a 3D22     		movs	r2, #61
 266 000c 0221     		movs	r1, #2
 267 000e 9954     		strb	r1, [r3, r2]
 308:cube/Drivers/STM32F0xx_HAL_Driver/Src/stm32f0xx_hal_tim.c **** 
 309:cube/Drivers/STM32F0xx_HAL_Driver/Src/stm32f0xx_hal_tim.c ****   /* Enable the Peripheral */
 310:cube/Drivers/STM32F0xx_HAL_Driver/Src/stm32f0xx_hal_tim.c ****   __HAL_TIM_ENABLE(htim);
 268              		.loc 1 310 0
 269 0010 7B68     		ldr	r3, [r7, #4]
ARM GAS  /tmp/ccnYXliM.s 			page 11


 270 0012 1B68     		ldr	r3, [r3]
 271 0014 1A68     		ldr	r2, [r3]
 272 0016 7B68     		ldr	r3, [r7, #4]
 273 0018 1B68     		ldr	r3, [r3]
 274 001a 0121     		movs	r1, #1
 275 001c 0A43     		orrs	r2, r1
 276 001e 1A60     		str	r2, [r3]
 311:cube/Drivers/STM32F0xx_HAL_Driver/Src/stm32f0xx_hal_tim.c **** 
 312:cube/Drivers/STM32F0xx_HAL_Driver/Src/stm32f0xx_hal_tim.c ****   /* Change the TIM state*/
 313:cube/Drivers/STM32F0xx_HAL_Driver/Src/stm32f0xx_hal_tim.c ****   htim->State= HAL_TIM_STATE_READY;
 277              		.loc 1 313 0
 278 0020 7B68     		ldr	r3, [r7, #4]
 279 0022 3D22     		movs	r2, #61
 280 0024 0121     		movs	r1, #1
 281 0026 9954     		strb	r1, [r3, r2]
 314:cube/Drivers/STM32F0xx_HAL_Driver/Src/stm32f0xx_hal_tim.c **** 
 315:cube/Drivers/STM32F0xx_HAL_Driver/Src/stm32f0xx_hal_tim.c ****   /* Return function status */
 316:cube/Drivers/STM32F0xx_HAL_Driver/Src/stm32f0xx_hal_tim.c ****   return HAL_OK;
 282              		.loc 1 316 0
 283 0028 0023     		movs	r3, #0
 317:cube/Drivers/STM32F0xx_HAL_Driver/Src/stm32f0xx_hal_tim.c **** }
 284              		.loc 1 317 0
 285 002a 1800     		movs	r0, r3
 286 002c BD46     		mov	sp, r7
 287 002e 02B0     		add	sp, sp, #8
 288              		@ sp needed
 289 0030 80BD     		pop	{r7, pc}
 290              		.cfi_endproc
 291              	.LFE41:
 293              		.section	.text.HAL_TIM_Base_Stop,"ax",%progbits
 294              		.align	1
 295              		.global	HAL_TIM_Base_Stop
 296              		.syntax unified
 297              		.code	16
 298              		.thumb_func
 299              		.fpu softvfp
 301              	HAL_TIM_Base_Stop:
 302              	.LFB42:
 318:cube/Drivers/STM32F0xx_HAL_Driver/Src/stm32f0xx_hal_tim.c **** 
 319:cube/Drivers/STM32F0xx_HAL_Driver/Src/stm32f0xx_hal_tim.c **** /**
 320:cube/Drivers/STM32F0xx_HAL_Driver/Src/stm32f0xx_hal_tim.c ****   * @brief  Stops the TIM Base generation.
 321:cube/Drivers/STM32F0xx_HAL_Driver/Src/stm32f0xx_hal_tim.c ****   * @param  htim TIM handle
 322:cube/Drivers/STM32F0xx_HAL_Driver/Src/stm32f0xx_hal_tim.c ****   * @retval HAL status
 323:cube/Drivers/STM32F0xx_HAL_Driver/Src/stm32f0xx_hal_tim.c **** */
 324:cube/Drivers/STM32F0xx_HAL_Driver/Src/stm32f0xx_hal_tim.c **** HAL_StatusTypeDef HAL_TIM_Base_Stop(TIM_HandleTypeDef *htim)
 325:cube/Drivers/STM32F0xx_HAL_Driver/Src/stm32f0xx_hal_tim.c **** {
 303              		.loc 1 325 0
 304              		.cfi_startproc
 305              		@ args = 0, pretend = 0, frame = 8
 306              		@ frame_needed = 1, uses_anonymous_args = 0
 307 0000 80B5     		push	{r7, lr}
 308              		.cfi_def_cfa_offset 8
 309              		.cfi_offset 7, -8
 310              		.cfi_offset 14, -4
 311 0002 82B0     		sub	sp, sp, #8
 312              		.cfi_def_cfa_offset 16
 313 0004 00AF     		add	r7, sp, #0
ARM GAS  /tmp/ccnYXliM.s 			page 12


 314              		.cfi_def_cfa_register 7
 315 0006 7860     		str	r0, [r7, #4]
 326:cube/Drivers/STM32F0xx_HAL_Driver/Src/stm32f0xx_hal_tim.c ****   /* Check the parameters */
 327:cube/Drivers/STM32F0xx_HAL_Driver/Src/stm32f0xx_hal_tim.c ****   assert_param(IS_TIM_INSTANCE(htim->Instance));
 328:cube/Drivers/STM32F0xx_HAL_Driver/Src/stm32f0xx_hal_tim.c **** 
 329:cube/Drivers/STM32F0xx_HAL_Driver/Src/stm32f0xx_hal_tim.c ****   /* Set the TIM state */
 330:cube/Drivers/STM32F0xx_HAL_Driver/Src/stm32f0xx_hal_tim.c ****   htim->State= HAL_TIM_STATE_BUSY;
 316              		.loc 1 330 0
 317 0008 7B68     		ldr	r3, [r7, #4]
 318 000a 3D22     		movs	r2, #61
 319 000c 0221     		movs	r1, #2
 320 000e 9954     		strb	r1, [r3, r2]
 331:cube/Drivers/STM32F0xx_HAL_Driver/Src/stm32f0xx_hal_tim.c **** 
 332:cube/Drivers/STM32F0xx_HAL_Driver/Src/stm32f0xx_hal_tim.c ****   /* Disable the Peripheral */
 333:cube/Drivers/STM32F0xx_HAL_Driver/Src/stm32f0xx_hal_tim.c ****   __HAL_TIM_DISABLE(htim);
 321              		.loc 1 333 0
 322 0010 7B68     		ldr	r3, [r7, #4]
 323 0012 1B68     		ldr	r3, [r3]
 324 0014 1B6A     		ldr	r3, [r3, #32]
 325 0016 0D4A     		ldr	r2, .L17
 326 0018 1340     		ands	r3, r2
 327 001a 0DD1     		bne	.L15
 328              		.loc 1 333 0 is_stmt 0 discriminator 1
 329 001c 7B68     		ldr	r3, [r7, #4]
 330 001e 1B68     		ldr	r3, [r3]
 331 0020 1B6A     		ldr	r3, [r3, #32]
 332 0022 0B4A     		ldr	r2, .L17+4
 333 0024 1340     		ands	r3, r2
 334 0026 07D1     		bne	.L15
 335              		.loc 1 333 0 discriminator 2
 336 0028 7B68     		ldr	r3, [r7, #4]
 337 002a 1B68     		ldr	r3, [r3]
 338 002c 1A68     		ldr	r2, [r3]
 339 002e 7B68     		ldr	r3, [r7, #4]
 340 0030 1B68     		ldr	r3, [r3]
 341 0032 0121     		movs	r1, #1
 342 0034 8A43     		bics	r2, r1
 343 0036 1A60     		str	r2, [r3]
 344              	.L15:
 334:cube/Drivers/STM32F0xx_HAL_Driver/Src/stm32f0xx_hal_tim.c **** 
 335:cube/Drivers/STM32F0xx_HAL_Driver/Src/stm32f0xx_hal_tim.c ****   /* Change the TIM state*/
 336:cube/Drivers/STM32F0xx_HAL_Driver/Src/stm32f0xx_hal_tim.c ****   htim->State= HAL_TIM_STATE_READY;
 345              		.loc 1 336 0 is_stmt 1
 346 0038 7B68     		ldr	r3, [r7, #4]
 347 003a 3D22     		movs	r2, #61
 348 003c 0121     		movs	r1, #1
 349 003e 9954     		strb	r1, [r3, r2]
 337:cube/Drivers/STM32F0xx_HAL_Driver/Src/stm32f0xx_hal_tim.c **** 
 338:cube/Drivers/STM32F0xx_HAL_Driver/Src/stm32f0xx_hal_tim.c ****   /* Return function status */
 339:cube/Drivers/STM32F0xx_HAL_Driver/Src/stm32f0xx_hal_tim.c ****   return HAL_OK;
 350              		.loc 1 339 0
 351 0040 0023     		movs	r3, #0
 340:cube/Drivers/STM32F0xx_HAL_Driver/Src/stm32f0xx_hal_tim.c **** }
 352              		.loc 1 340 0
 353 0042 1800     		movs	r0, r3
 354 0044 BD46     		mov	sp, r7
 355 0046 02B0     		add	sp, sp, #8
ARM GAS  /tmp/ccnYXliM.s 			page 13


 356              		@ sp needed
 357 0048 80BD     		pop	{r7, pc}
 358              	.L18:
 359 004a C046     		.align	2
 360              	.L17:
 361 004c 11110000 		.word	4369
 362 0050 44040000 		.word	1092
 363              		.cfi_endproc
 364              	.LFE42:
 366              		.section	.text.HAL_TIM_Base_Start_IT,"ax",%progbits
 367              		.align	1
 368              		.global	HAL_TIM_Base_Start_IT
 369              		.syntax unified
 370              		.code	16
 371              		.thumb_func
 372              		.fpu softvfp
 374              	HAL_TIM_Base_Start_IT:
 375              	.LFB43:
 341:cube/Drivers/STM32F0xx_HAL_Driver/Src/stm32f0xx_hal_tim.c **** 
 342:cube/Drivers/STM32F0xx_HAL_Driver/Src/stm32f0xx_hal_tim.c **** /**
 343:cube/Drivers/STM32F0xx_HAL_Driver/Src/stm32f0xx_hal_tim.c ****   * @brief  Starts the TIM Base generation in interrupt mode.
 344:cube/Drivers/STM32F0xx_HAL_Driver/Src/stm32f0xx_hal_tim.c ****   * @param  htim TIM handle
 345:cube/Drivers/STM32F0xx_HAL_Driver/Src/stm32f0xx_hal_tim.c ****   * @retval HAL status
 346:cube/Drivers/STM32F0xx_HAL_Driver/Src/stm32f0xx_hal_tim.c **** */
 347:cube/Drivers/STM32F0xx_HAL_Driver/Src/stm32f0xx_hal_tim.c **** HAL_StatusTypeDef HAL_TIM_Base_Start_IT(TIM_HandleTypeDef *htim)
 348:cube/Drivers/STM32F0xx_HAL_Driver/Src/stm32f0xx_hal_tim.c **** {
 376              		.loc 1 348 0
 377              		.cfi_startproc
 378              		@ args = 0, pretend = 0, frame = 8
 379              		@ frame_needed = 1, uses_anonymous_args = 0
 380 0000 80B5     		push	{r7, lr}
 381              		.cfi_def_cfa_offset 8
 382              		.cfi_offset 7, -8
 383              		.cfi_offset 14, -4
 384 0002 82B0     		sub	sp, sp, #8
 385              		.cfi_def_cfa_offset 16
 386 0004 00AF     		add	r7, sp, #0
 387              		.cfi_def_cfa_register 7
 388 0006 7860     		str	r0, [r7, #4]
 349:cube/Drivers/STM32F0xx_HAL_Driver/Src/stm32f0xx_hal_tim.c ****   /* Check the parameters */
 350:cube/Drivers/STM32F0xx_HAL_Driver/Src/stm32f0xx_hal_tim.c ****   assert_param(IS_TIM_INSTANCE(htim->Instance));
 351:cube/Drivers/STM32F0xx_HAL_Driver/Src/stm32f0xx_hal_tim.c **** 
 352:cube/Drivers/STM32F0xx_HAL_Driver/Src/stm32f0xx_hal_tim.c ****    /* Enable the TIM Update interrupt */
 353:cube/Drivers/STM32F0xx_HAL_Driver/Src/stm32f0xx_hal_tim.c ****    __HAL_TIM_ENABLE_IT(htim, TIM_IT_UPDATE);
 389              		.loc 1 353 0
 390 0008 7B68     		ldr	r3, [r7, #4]
 391 000a 1B68     		ldr	r3, [r3]
 392 000c DA68     		ldr	r2, [r3, #12]
 393 000e 7B68     		ldr	r3, [r7, #4]
 394 0010 1B68     		ldr	r3, [r3]
 395 0012 0121     		movs	r1, #1
 396 0014 0A43     		orrs	r2, r1
 397 0016 DA60     		str	r2, [r3, #12]
 354:cube/Drivers/STM32F0xx_HAL_Driver/Src/stm32f0xx_hal_tim.c **** 
 355:cube/Drivers/STM32F0xx_HAL_Driver/Src/stm32f0xx_hal_tim.c ****    /* Enable the Peripheral */
 356:cube/Drivers/STM32F0xx_HAL_Driver/Src/stm32f0xx_hal_tim.c ****   __HAL_TIM_ENABLE(htim);
 398              		.loc 1 356 0
ARM GAS  /tmp/ccnYXliM.s 			page 14


 399 0018 7B68     		ldr	r3, [r7, #4]
 400 001a 1B68     		ldr	r3, [r3]
 401 001c 1A68     		ldr	r2, [r3]
 402 001e 7B68     		ldr	r3, [r7, #4]
 403 0020 1B68     		ldr	r3, [r3]
 404 0022 0121     		movs	r1, #1
 405 0024 0A43     		orrs	r2, r1
 406 0026 1A60     		str	r2, [r3]
 357:cube/Drivers/STM32F0xx_HAL_Driver/Src/stm32f0xx_hal_tim.c **** 
 358:cube/Drivers/STM32F0xx_HAL_Driver/Src/stm32f0xx_hal_tim.c ****   /* Return function status */
 359:cube/Drivers/STM32F0xx_HAL_Driver/Src/stm32f0xx_hal_tim.c ****   return HAL_OK;
 407              		.loc 1 359 0
 408 0028 0023     		movs	r3, #0
 360:cube/Drivers/STM32F0xx_HAL_Driver/Src/stm32f0xx_hal_tim.c **** }
 409              		.loc 1 360 0
 410 002a 1800     		movs	r0, r3
 411 002c BD46     		mov	sp, r7
 412 002e 02B0     		add	sp, sp, #8
 413              		@ sp needed
 414 0030 80BD     		pop	{r7, pc}
 415              		.cfi_endproc
 416              	.LFE43:
 418              		.section	.text.HAL_TIM_Base_Stop_IT,"ax",%progbits
 419              		.align	1
 420              		.global	HAL_TIM_Base_Stop_IT
 421              		.syntax unified
 422              		.code	16
 423              		.thumb_func
 424              		.fpu softvfp
 426              	HAL_TIM_Base_Stop_IT:
 427              	.LFB44:
 361:cube/Drivers/STM32F0xx_HAL_Driver/Src/stm32f0xx_hal_tim.c **** 
 362:cube/Drivers/STM32F0xx_HAL_Driver/Src/stm32f0xx_hal_tim.c **** /**
 363:cube/Drivers/STM32F0xx_HAL_Driver/Src/stm32f0xx_hal_tim.c ****   * @brief  Stops the TIM Base generation in interrupt mode.
 364:cube/Drivers/STM32F0xx_HAL_Driver/Src/stm32f0xx_hal_tim.c ****   * @param  htim TIM handle
 365:cube/Drivers/STM32F0xx_HAL_Driver/Src/stm32f0xx_hal_tim.c ****   * @retval HAL status
 366:cube/Drivers/STM32F0xx_HAL_Driver/Src/stm32f0xx_hal_tim.c **** */
 367:cube/Drivers/STM32F0xx_HAL_Driver/Src/stm32f0xx_hal_tim.c **** HAL_StatusTypeDef HAL_TIM_Base_Stop_IT(TIM_HandleTypeDef *htim)
 368:cube/Drivers/STM32F0xx_HAL_Driver/Src/stm32f0xx_hal_tim.c **** {
 428              		.loc 1 368 0
 429              		.cfi_startproc
 430              		@ args = 0, pretend = 0, frame = 8
 431              		@ frame_needed = 1, uses_anonymous_args = 0
 432 0000 80B5     		push	{r7, lr}
 433              		.cfi_def_cfa_offset 8
 434              		.cfi_offset 7, -8
 435              		.cfi_offset 14, -4
 436 0002 82B0     		sub	sp, sp, #8
 437              		.cfi_def_cfa_offset 16
 438 0004 00AF     		add	r7, sp, #0
 439              		.cfi_def_cfa_register 7
 440 0006 7860     		str	r0, [r7, #4]
 369:cube/Drivers/STM32F0xx_HAL_Driver/Src/stm32f0xx_hal_tim.c ****   /* Check the parameters */
 370:cube/Drivers/STM32F0xx_HAL_Driver/Src/stm32f0xx_hal_tim.c ****   assert_param(IS_TIM_INSTANCE(htim->Instance));
 371:cube/Drivers/STM32F0xx_HAL_Driver/Src/stm32f0xx_hal_tim.c ****   /* Disable the TIM Update interrupt */
 372:cube/Drivers/STM32F0xx_HAL_Driver/Src/stm32f0xx_hal_tim.c ****   __HAL_TIM_DISABLE_IT(htim, TIM_IT_UPDATE);
 441              		.loc 1 372 0
ARM GAS  /tmp/ccnYXliM.s 			page 15


 442 0008 7B68     		ldr	r3, [r7, #4]
 443 000a 1B68     		ldr	r3, [r3]
 444 000c DA68     		ldr	r2, [r3, #12]
 445 000e 7B68     		ldr	r3, [r7, #4]
 446 0010 1B68     		ldr	r3, [r3]
 447 0012 0121     		movs	r1, #1
 448 0014 8A43     		bics	r2, r1
 449 0016 DA60     		str	r2, [r3, #12]
 373:cube/Drivers/STM32F0xx_HAL_Driver/Src/stm32f0xx_hal_tim.c **** 
 374:cube/Drivers/STM32F0xx_HAL_Driver/Src/stm32f0xx_hal_tim.c ****   /* Disable the Peripheral */
 375:cube/Drivers/STM32F0xx_HAL_Driver/Src/stm32f0xx_hal_tim.c ****   __HAL_TIM_DISABLE(htim);
 450              		.loc 1 375 0
 451 0018 7B68     		ldr	r3, [r7, #4]
 452 001a 1B68     		ldr	r3, [r3]
 453 001c 1B6A     		ldr	r3, [r3, #32]
 454 001e 0B4A     		ldr	r2, .L24
 455 0020 1340     		ands	r3, r2
 456 0022 0DD1     		bne	.L22
 457              		.loc 1 375 0 is_stmt 0 discriminator 1
 458 0024 7B68     		ldr	r3, [r7, #4]
 459 0026 1B68     		ldr	r3, [r3]
 460 0028 1B6A     		ldr	r3, [r3, #32]
 461 002a 094A     		ldr	r2, .L24+4
 462 002c 1340     		ands	r3, r2
 463 002e 07D1     		bne	.L22
 464              		.loc 1 375 0 discriminator 2
 465 0030 7B68     		ldr	r3, [r7, #4]
 466 0032 1B68     		ldr	r3, [r3]
 467 0034 1A68     		ldr	r2, [r3]
 468 0036 7B68     		ldr	r3, [r7, #4]
 469 0038 1B68     		ldr	r3, [r3]
 470 003a 0121     		movs	r1, #1
 471 003c 8A43     		bics	r2, r1
 472 003e 1A60     		str	r2, [r3]
 473              	.L22:
 376:cube/Drivers/STM32F0xx_HAL_Driver/Src/stm32f0xx_hal_tim.c **** 
 377:cube/Drivers/STM32F0xx_HAL_Driver/Src/stm32f0xx_hal_tim.c ****   /* Return function status */
 378:cube/Drivers/STM32F0xx_HAL_Driver/Src/stm32f0xx_hal_tim.c ****   return HAL_OK;
 474              		.loc 1 378 0 is_stmt 1
 475 0040 0023     		movs	r3, #0
 379:cube/Drivers/STM32F0xx_HAL_Driver/Src/stm32f0xx_hal_tim.c **** }
 476              		.loc 1 379 0
 477 0042 1800     		movs	r0, r3
 478 0044 BD46     		mov	sp, r7
 479 0046 02B0     		add	sp, sp, #8
 480              		@ sp needed
 481 0048 80BD     		pop	{r7, pc}
 482              	.L25:
 483 004a C046     		.align	2
 484              	.L24:
 485 004c 11110000 		.word	4369
 486 0050 44040000 		.word	1092
 487              		.cfi_endproc
 488              	.LFE44:
 490              		.section	.text.HAL_TIM_Base_Start_DMA,"ax",%progbits
 491              		.align	1
 492              		.global	HAL_TIM_Base_Start_DMA
ARM GAS  /tmp/ccnYXliM.s 			page 16


 493              		.syntax unified
 494              		.code	16
 495              		.thumb_func
 496              		.fpu softvfp
 498              	HAL_TIM_Base_Start_DMA:
 499              	.LFB45:
 380:cube/Drivers/STM32F0xx_HAL_Driver/Src/stm32f0xx_hal_tim.c **** 
 381:cube/Drivers/STM32F0xx_HAL_Driver/Src/stm32f0xx_hal_tim.c **** /**
 382:cube/Drivers/STM32F0xx_HAL_Driver/Src/stm32f0xx_hal_tim.c ****   * @brief  Starts the TIM Base generation in DMA mode.
 383:cube/Drivers/STM32F0xx_HAL_Driver/Src/stm32f0xx_hal_tim.c ****   * @param  htim TIM handle
 384:cube/Drivers/STM32F0xx_HAL_Driver/Src/stm32f0xx_hal_tim.c ****   * @param  pData The source Buffer address.
 385:cube/Drivers/STM32F0xx_HAL_Driver/Src/stm32f0xx_hal_tim.c ****   * @param  Length The length of data to be transferred from memory to peripheral.
 386:cube/Drivers/STM32F0xx_HAL_Driver/Src/stm32f0xx_hal_tim.c ****   * @retval HAL status
 387:cube/Drivers/STM32F0xx_HAL_Driver/Src/stm32f0xx_hal_tim.c **** */
 388:cube/Drivers/STM32F0xx_HAL_Driver/Src/stm32f0xx_hal_tim.c **** HAL_StatusTypeDef HAL_TIM_Base_Start_DMA(TIM_HandleTypeDef *htim, uint32_t *pData, uint16_t Length)
 389:cube/Drivers/STM32F0xx_HAL_Driver/Src/stm32f0xx_hal_tim.c **** {
 500              		.loc 1 389 0
 501              		.cfi_startproc
 502              		@ args = 0, pretend = 0, frame = 16
 503              		@ frame_needed = 1, uses_anonymous_args = 0
 504 0000 80B5     		push	{r7, lr}
 505              		.cfi_def_cfa_offset 8
 506              		.cfi_offset 7, -8
 507              		.cfi_offset 14, -4
 508 0002 84B0     		sub	sp, sp, #16
 509              		.cfi_def_cfa_offset 24
 510 0004 00AF     		add	r7, sp, #0
 511              		.cfi_def_cfa_register 7
 512 0006 F860     		str	r0, [r7, #12]
 513 0008 B960     		str	r1, [r7, #8]
 514 000a BB1D     		adds	r3, r7, #6
 515 000c 1A80     		strh	r2, [r3]
 390:cube/Drivers/STM32F0xx_HAL_Driver/Src/stm32f0xx_hal_tim.c ****   /* Check the parameters */
 391:cube/Drivers/STM32F0xx_HAL_Driver/Src/stm32f0xx_hal_tim.c ****   assert_param(IS_TIM_DMA_INSTANCE(htim->Instance));
 392:cube/Drivers/STM32F0xx_HAL_Driver/Src/stm32f0xx_hal_tim.c **** 
 393:cube/Drivers/STM32F0xx_HAL_Driver/Src/stm32f0xx_hal_tim.c ****   if((htim->State == HAL_TIM_STATE_BUSY))
 516              		.loc 1 393 0
 517 000e FB68     		ldr	r3, [r7, #12]
 518 0010 3D22     		movs	r2, #61
 519 0012 9B5C     		ldrb	r3, [r3, r2]
 520 0014 DBB2     		uxtb	r3, r3
 521 0016 022B     		cmp	r3, #2
 522 0018 01D1     		bne	.L27
 394:cube/Drivers/STM32F0xx_HAL_Driver/Src/stm32f0xx_hal_tim.c ****   {
 395:cube/Drivers/STM32F0xx_HAL_Driver/Src/stm32f0xx_hal_tim.c ****      return HAL_BUSY;
 523              		.loc 1 395 0
 524 001a 0223     		movs	r3, #2
 525 001c 37E0     		b	.L28
 526              	.L27:
 396:cube/Drivers/STM32F0xx_HAL_Driver/Src/stm32f0xx_hal_tim.c ****   }
 397:cube/Drivers/STM32F0xx_HAL_Driver/Src/stm32f0xx_hal_tim.c ****   else if((htim->State == HAL_TIM_STATE_READY))
 527              		.loc 1 397 0
 528 001e FB68     		ldr	r3, [r7, #12]
 529 0020 3D22     		movs	r2, #61
 530 0022 9B5C     		ldrb	r3, [r3, r2]
 531 0024 DBB2     		uxtb	r3, r3
 532 0026 012B     		cmp	r3, #1
ARM GAS  /tmp/ccnYXliM.s 			page 17


 533 0028 0CD1     		bne	.L29
 398:cube/Drivers/STM32F0xx_HAL_Driver/Src/stm32f0xx_hal_tim.c ****   {
 399:cube/Drivers/STM32F0xx_HAL_Driver/Src/stm32f0xx_hal_tim.c ****     if((pData == 0 ) && (Length > 0))
 534              		.loc 1 399 0
 535 002a BB68     		ldr	r3, [r7, #8]
 536 002c 002B     		cmp	r3, #0
 537 002e 05D1     		bne	.L30
 538              		.loc 1 399 0 is_stmt 0 discriminator 1
 539 0030 BB1D     		adds	r3, r7, #6
 540 0032 1B88     		ldrh	r3, [r3]
 541 0034 002B     		cmp	r3, #0
 542 0036 01D0     		beq	.L30
 400:cube/Drivers/STM32F0xx_HAL_Driver/Src/stm32f0xx_hal_tim.c ****     {
 401:cube/Drivers/STM32F0xx_HAL_Driver/Src/stm32f0xx_hal_tim.c ****       return HAL_ERROR;
 543              		.loc 1 401 0 is_stmt 1
 544 0038 0123     		movs	r3, #1
 545 003a 28E0     		b	.L28
 546              	.L30:
 402:cube/Drivers/STM32F0xx_HAL_Driver/Src/stm32f0xx_hal_tim.c ****     }
 403:cube/Drivers/STM32F0xx_HAL_Driver/Src/stm32f0xx_hal_tim.c ****     else
 404:cube/Drivers/STM32F0xx_HAL_Driver/Src/stm32f0xx_hal_tim.c ****     {
 405:cube/Drivers/STM32F0xx_HAL_Driver/Src/stm32f0xx_hal_tim.c ****       htim->State = HAL_TIM_STATE_BUSY;
 547              		.loc 1 405 0
 548 003c FB68     		ldr	r3, [r7, #12]
 549 003e 3D22     		movs	r2, #61
 550 0040 0221     		movs	r1, #2
 551 0042 9954     		strb	r1, [r3, r2]
 552              	.L29:
 406:cube/Drivers/STM32F0xx_HAL_Driver/Src/stm32f0xx_hal_tim.c ****     }
 407:cube/Drivers/STM32F0xx_HAL_Driver/Src/stm32f0xx_hal_tim.c ****   }
 408:cube/Drivers/STM32F0xx_HAL_Driver/Src/stm32f0xx_hal_tim.c ****   /* Set the DMA Period elapsed callback */
 409:cube/Drivers/STM32F0xx_HAL_Driver/Src/stm32f0xx_hal_tim.c ****   htim->hdma[TIM_DMA_ID_UPDATE]->XferCpltCallback = TIM_DMAPeriodElapsedCplt;
 553              		.loc 1 409 0
 554 0044 FB68     		ldr	r3, [r7, #12]
 555 0046 1B6A     		ldr	r3, [r3, #32]
 556 0048 134A     		ldr	r2, .L31
 557 004a 9A62     		str	r2, [r3, #40]
 410:cube/Drivers/STM32F0xx_HAL_Driver/Src/stm32f0xx_hal_tim.c **** 
 411:cube/Drivers/STM32F0xx_HAL_Driver/Src/stm32f0xx_hal_tim.c ****   /* Set the DMA error callback */
 412:cube/Drivers/STM32F0xx_HAL_Driver/Src/stm32f0xx_hal_tim.c ****   htim->hdma[TIM_DMA_ID_UPDATE]->XferErrorCallback = TIM_DMAError ;
 558              		.loc 1 412 0
 559 004c FB68     		ldr	r3, [r7, #12]
 560 004e 1B6A     		ldr	r3, [r3, #32]
 561 0050 124A     		ldr	r2, .L31+4
 562 0052 1A63     		str	r2, [r3, #48]
 413:cube/Drivers/STM32F0xx_HAL_Driver/Src/stm32f0xx_hal_tim.c **** 
 414:cube/Drivers/STM32F0xx_HAL_Driver/Src/stm32f0xx_hal_tim.c ****   /* Enable the DMA channel */
 415:cube/Drivers/STM32F0xx_HAL_Driver/Src/stm32f0xx_hal_tim.c ****   HAL_DMA_Start_IT(htim->hdma[TIM_DMA_ID_UPDATE], (uint32_t)pData, (uint32_t)&htim->Instance->ARR, 
 563              		.loc 1 415 0
 564 0054 FB68     		ldr	r3, [r7, #12]
 565 0056 186A     		ldr	r0, [r3, #32]
 566 0058 B968     		ldr	r1, [r7, #8]
 567 005a FB68     		ldr	r3, [r7, #12]
 568 005c 1B68     		ldr	r3, [r3]
 569 005e 2C33     		adds	r3, r3, #44
 570 0060 1A00     		movs	r2, r3
 571 0062 BB1D     		adds	r3, r7, #6
ARM GAS  /tmp/ccnYXliM.s 			page 18


 572 0064 1B88     		ldrh	r3, [r3]
 573 0066 FFF7FEFF 		bl	HAL_DMA_Start_IT
 416:cube/Drivers/STM32F0xx_HAL_Driver/Src/stm32f0xx_hal_tim.c **** 
 417:cube/Drivers/STM32F0xx_HAL_Driver/Src/stm32f0xx_hal_tim.c ****   /* Enable the TIM Update DMA request */
 418:cube/Drivers/STM32F0xx_HAL_Driver/Src/stm32f0xx_hal_tim.c ****   __HAL_TIM_ENABLE_DMA(htim, TIM_DMA_UPDATE);
 574              		.loc 1 418 0
 575 006a FB68     		ldr	r3, [r7, #12]
 576 006c 1B68     		ldr	r3, [r3]
 577 006e DA68     		ldr	r2, [r3, #12]
 578 0070 FB68     		ldr	r3, [r7, #12]
 579 0072 1B68     		ldr	r3, [r3]
 580 0074 8021     		movs	r1, #128
 581 0076 4900     		lsls	r1, r1, #1
 582 0078 0A43     		orrs	r2, r1
 583 007a DA60     		str	r2, [r3, #12]
 419:cube/Drivers/STM32F0xx_HAL_Driver/Src/stm32f0xx_hal_tim.c **** 
 420:cube/Drivers/STM32F0xx_HAL_Driver/Src/stm32f0xx_hal_tim.c ****   /* Enable the Peripheral */
 421:cube/Drivers/STM32F0xx_HAL_Driver/Src/stm32f0xx_hal_tim.c ****   __HAL_TIM_ENABLE(htim);
 584              		.loc 1 421 0
 585 007c FB68     		ldr	r3, [r7, #12]
 586 007e 1B68     		ldr	r3, [r3]
 587 0080 1A68     		ldr	r2, [r3]
 588 0082 FB68     		ldr	r3, [r7, #12]
 589 0084 1B68     		ldr	r3, [r3]
 590 0086 0121     		movs	r1, #1
 591 0088 0A43     		orrs	r2, r1
 592 008a 1A60     		str	r2, [r3]
 422:cube/Drivers/STM32F0xx_HAL_Driver/Src/stm32f0xx_hal_tim.c **** 
 423:cube/Drivers/STM32F0xx_HAL_Driver/Src/stm32f0xx_hal_tim.c ****   /* Return function status */
 424:cube/Drivers/STM32F0xx_HAL_Driver/Src/stm32f0xx_hal_tim.c ****   return HAL_OK;
 593              		.loc 1 424 0
 594 008c 0023     		movs	r3, #0
 595              	.L28:
 425:cube/Drivers/STM32F0xx_HAL_Driver/Src/stm32f0xx_hal_tim.c **** }
 596              		.loc 1 425 0
 597 008e 1800     		movs	r0, r3
 598 0090 BD46     		mov	sp, r7
 599 0092 04B0     		add	sp, sp, #16
 600              		@ sp needed
 601 0094 80BD     		pop	{r7, pc}
 602              	.L32:
 603 0096 C046     		.align	2
 604              	.L31:
 605 0098 00000000 		.word	TIM_DMAPeriodElapsedCplt
 606 009c 00000000 		.word	TIM_DMAError
 607              		.cfi_endproc
 608              	.LFE45:
 610              		.section	.text.HAL_TIM_Base_Stop_DMA,"ax",%progbits
 611              		.align	1
 612              		.global	HAL_TIM_Base_Stop_DMA
 613              		.syntax unified
 614              		.code	16
 615              		.thumb_func
 616              		.fpu softvfp
 618              	HAL_TIM_Base_Stop_DMA:
 619              	.LFB46:
 426:cube/Drivers/STM32F0xx_HAL_Driver/Src/stm32f0xx_hal_tim.c **** 
ARM GAS  /tmp/ccnYXliM.s 			page 19


 427:cube/Drivers/STM32F0xx_HAL_Driver/Src/stm32f0xx_hal_tim.c **** /**
 428:cube/Drivers/STM32F0xx_HAL_Driver/Src/stm32f0xx_hal_tim.c ****   * @brief  Stops the TIM Base generation in DMA mode.
 429:cube/Drivers/STM32F0xx_HAL_Driver/Src/stm32f0xx_hal_tim.c ****   * @param  htim TIM handle
 430:cube/Drivers/STM32F0xx_HAL_Driver/Src/stm32f0xx_hal_tim.c ****   * @retval HAL status
 431:cube/Drivers/STM32F0xx_HAL_Driver/Src/stm32f0xx_hal_tim.c **** */
 432:cube/Drivers/STM32F0xx_HAL_Driver/Src/stm32f0xx_hal_tim.c **** HAL_StatusTypeDef HAL_TIM_Base_Stop_DMA(TIM_HandleTypeDef *htim)
 433:cube/Drivers/STM32F0xx_HAL_Driver/Src/stm32f0xx_hal_tim.c **** {
 620              		.loc 1 433 0
 621              		.cfi_startproc
 622              		@ args = 0, pretend = 0, frame = 8
 623              		@ frame_needed = 1, uses_anonymous_args = 0
 624 0000 80B5     		push	{r7, lr}
 625              		.cfi_def_cfa_offset 8
 626              		.cfi_offset 7, -8
 627              		.cfi_offset 14, -4
 628 0002 82B0     		sub	sp, sp, #8
 629              		.cfi_def_cfa_offset 16
 630 0004 00AF     		add	r7, sp, #0
 631              		.cfi_def_cfa_register 7
 632 0006 7860     		str	r0, [r7, #4]
 434:cube/Drivers/STM32F0xx_HAL_Driver/Src/stm32f0xx_hal_tim.c ****   /* Check the parameters */
 435:cube/Drivers/STM32F0xx_HAL_Driver/Src/stm32f0xx_hal_tim.c ****   assert_param(IS_TIM_DMA_INSTANCE(htim->Instance));
 436:cube/Drivers/STM32F0xx_HAL_Driver/Src/stm32f0xx_hal_tim.c **** 
 437:cube/Drivers/STM32F0xx_HAL_Driver/Src/stm32f0xx_hal_tim.c ****   /* Disable the TIM Update DMA request */
 438:cube/Drivers/STM32F0xx_HAL_Driver/Src/stm32f0xx_hal_tim.c ****   __HAL_TIM_DISABLE_DMA(htim, TIM_DMA_UPDATE);
 633              		.loc 1 438 0
 634 0008 7B68     		ldr	r3, [r7, #4]
 635 000a 1B68     		ldr	r3, [r3]
 636 000c DA68     		ldr	r2, [r3, #12]
 637 000e 7B68     		ldr	r3, [r7, #4]
 638 0010 1B68     		ldr	r3, [r3]
 639 0012 1049     		ldr	r1, .L36
 640 0014 0A40     		ands	r2, r1
 641 0016 DA60     		str	r2, [r3, #12]
 439:cube/Drivers/STM32F0xx_HAL_Driver/Src/stm32f0xx_hal_tim.c **** 
 440:cube/Drivers/STM32F0xx_HAL_Driver/Src/stm32f0xx_hal_tim.c ****   /* Disable the Peripheral */
 441:cube/Drivers/STM32F0xx_HAL_Driver/Src/stm32f0xx_hal_tim.c ****   __HAL_TIM_DISABLE(htim);
 642              		.loc 1 441 0
 643 0018 7B68     		ldr	r3, [r7, #4]
 644 001a 1B68     		ldr	r3, [r3]
 645 001c 1B6A     		ldr	r3, [r3, #32]
 646 001e 0E4A     		ldr	r2, .L36+4
 647 0020 1340     		ands	r3, r2
 648 0022 0DD1     		bne	.L34
 649              		.loc 1 441 0 is_stmt 0 discriminator 1
 650 0024 7B68     		ldr	r3, [r7, #4]
 651 0026 1B68     		ldr	r3, [r3]
 652 0028 1B6A     		ldr	r3, [r3, #32]
 653 002a 0C4A     		ldr	r2, .L36+8
 654 002c 1340     		ands	r3, r2
 655 002e 07D1     		bne	.L34
 656              		.loc 1 441 0 discriminator 2
 657 0030 7B68     		ldr	r3, [r7, #4]
 658 0032 1B68     		ldr	r3, [r3]
 659 0034 1A68     		ldr	r2, [r3]
 660 0036 7B68     		ldr	r3, [r7, #4]
 661 0038 1B68     		ldr	r3, [r3]
ARM GAS  /tmp/ccnYXliM.s 			page 20


 662 003a 0121     		movs	r1, #1
 663 003c 8A43     		bics	r2, r1
 664 003e 1A60     		str	r2, [r3]
 665              	.L34:
 442:cube/Drivers/STM32F0xx_HAL_Driver/Src/stm32f0xx_hal_tim.c **** 
 443:cube/Drivers/STM32F0xx_HAL_Driver/Src/stm32f0xx_hal_tim.c ****   /* Change the htim state */
 444:cube/Drivers/STM32F0xx_HAL_Driver/Src/stm32f0xx_hal_tim.c ****   htim->State = HAL_TIM_STATE_READY;
 666              		.loc 1 444 0 is_stmt 1
 667 0040 7B68     		ldr	r3, [r7, #4]
 668 0042 3D22     		movs	r2, #61
 669 0044 0121     		movs	r1, #1
 670 0046 9954     		strb	r1, [r3, r2]
 445:cube/Drivers/STM32F0xx_HAL_Driver/Src/stm32f0xx_hal_tim.c **** 
 446:cube/Drivers/STM32F0xx_HAL_Driver/Src/stm32f0xx_hal_tim.c ****   /* Return function status */
 447:cube/Drivers/STM32F0xx_HAL_Driver/Src/stm32f0xx_hal_tim.c ****   return HAL_OK;
 671              		.loc 1 447 0
 672 0048 0023     		movs	r3, #0
 448:cube/Drivers/STM32F0xx_HAL_Driver/Src/stm32f0xx_hal_tim.c **** }
 673              		.loc 1 448 0
 674 004a 1800     		movs	r0, r3
 675 004c BD46     		mov	sp, r7
 676 004e 02B0     		add	sp, sp, #8
 677              		@ sp needed
 678 0050 80BD     		pop	{r7, pc}
 679              	.L37:
 680 0052 C046     		.align	2
 681              	.L36:
 682 0054 FFFEFFFF 		.word	-257
 683 0058 11110000 		.word	4369
 684 005c 44040000 		.word	1092
 685              		.cfi_endproc
 686              	.LFE46:
 688              		.section	.text.HAL_TIM_OC_Init,"ax",%progbits
 689              		.align	1
 690              		.global	HAL_TIM_OC_Init
 691              		.syntax unified
 692              		.code	16
 693              		.thumb_func
 694              		.fpu softvfp
 696              	HAL_TIM_OC_Init:
 697              	.LFB47:
 449:cube/Drivers/STM32F0xx_HAL_Driver/Src/stm32f0xx_hal_tim.c **** 
 450:cube/Drivers/STM32F0xx_HAL_Driver/Src/stm32f0xx_hal_tim.c **** /**
 451:cube/Drivers/STM32F0xx_HAL_Driver/Src/stm32f0xx_hal_tim.c ****   * @}
 452:cube/Drivers/STM32F0xx_HAL_Driver/Src/stm32f0xx_hal_tim.c ****   */
 453:cube/Drivers/STM32F0xx_HAL_Driver/Src/stm32f0xx_hal_tim.c **** 
 454:cube/Drivers/STM32F0xx_HAL_Driver/Src/stm32f0xx_hal_tim.c **** /** @defgroup TIM_Exported_Functions_Group2 Time Output Compare functions 
 455:cube/Drivers/STM32F0xx_HAL_Driver/Src/stm32f0xx_hal_tim.c ****  *  @brief    Time Output Compare functions 
 456:cube/Drivers/STM32F0xx_HAL_Driver/Src/stm32f0xx_hal_tim.c ****  *
 457:cube/Drivers/STM32F0xx_HAL_Driver/Src/stm32f0xx_hal_tim.c **** @verbatim 
 458:cube/Drivers/STM32F0xx_HAL_Driver/Src/stm32f0xx_hal_tim.c ****   ==============================================================================
 459:cube/Drivers/STM32F0xx_HAL_Driver/Src/stm32f0xx_hal_tim.c ****                   ##### Time Output Compare functions #####
 460:cube/Drivers/STM32F0xx_HAL_Driver/Src/stm32f0xx_hal_tim.c ****   ==============================================================================
 461:cube/Drivers/STM32F0xx_HAL_Driver/Src/stm32f0xx_hal_tim.c ****   [..]
 462:cube/Drivers/STM32F0xx_HAL_Driver/Src/stm32f0xx_hal_tim.c ****     This section provides functions allowing to:
 463:cube/Drivers/STM32F0xx_HAL_Driver/Src/stm32f0xx_hal_tim.c ****     (+) Initialize and configure the TIM Output Compare.
 464:cube/Drivers/STM32F0xx_HAL_Driver/Src/stm32f0xx_hal_tim.c ****     (+) De-initialize the TIM Output Compare.
ARM GAS  /tmp/ccnYXliM.s 			page 21


 465:cube/Drivers/STM32F0xx_HAL_Driver/Src/stm32f0xx_hal_tim.c ****     (+) Start the Time Output Compare.
 466:cube/Drivers/STM32F0xx_HAL_Driver/Src/stm32f0xx_hal_tim.c ****     (+) Stop the Time Output Compare.
 467:cube/Drivers/STM32F0xx_HAL_Driver/Src/stm32f0xx_hal_tim.c ****     (+) Start the Time Output Compare and enable interrupt.
 468:cube/Drivers/STM32F0xx_HAL_Driver/Src/stm32f0xx_hal_tim.c ****     (+) Stop the Time Output Compare and disable interrupt.
 469:cube/Drivers/STM32F0xx_HAL_Driver/Src/stm32f0xx_hal_tim.c ****     (+) Start the Time Output Compare and enable DMA transfer.
 470:cube/Drivers/STM32F0xx_HAL_Driver/Src/stm32f0xx_hal_tim.c ****     (+) Stop the Time Output Compare and disable DMA transfer.
 471:cube/Drivers/STM32F0xx_HAL_Driver/Src/stm32f0xx_hal_tim.c **** 
 472:cube/Drivers/STM32F0xx_HAL_Driver/Src/stm32f0xx_hal_tim.c **** @endverbatim
 473:cube/Drivers/STM32F0xx_HAL_Driver/Src/stm32f0xx_hal_tim.c ****   * @{
 474:cube/Drivers/STM32F0xx_HAL_Driver/Src/stm32f0xx_hal_tim.c ****   */
 475:cube/Drivers/STM32F0xx_HAL_Driver/Src/stm32f0xx_hal_tim.c **** /**
 476:cube/Drivers/STM32F0xx_HAL_Driver/Src/stm32f0xx_hal_tim.c ****   * @brief  Initializes the TIM Output Compare according to the specified
 477:cube/Drivers/STM32F0xx_HAL_Driver/Src/stm32f0xx_hal_tim.c ****   *         parameters in the TIM_HandleTypeDef and create the associated handle.
 478:cube/Drivers/STM32F0xx_HAL_Driver/Src/stm32f0xx_hal_tim.c ****   * @param  htim TIM Output Compare handle
 479:cube/Drivers/STM32F0xx_HAL_Driver/Src/stm32f0xx_hal_tim.c ****   * @retval HAL status
 480:cube/Drivers/STM32F0xx_HAL_Driver/Src/stm32f0xx_hal_tim.c ****   */
 481:cube/Drivers/STM32F0xx_HAL_Driver/Src/stm32f0xx_hal_tim.c **** HAL_StatusTypeDef HAL_TIM_OC_Init(TIM_HandleTypeDef* htim)
 482:cube/Drivers/STM32F0xx_HAL_Driver/Src/stm32f0xx_hal_tim.c **** {
 698              		.loc 1 482 0
 699              		.cfi_startproc
 700              		@ args = 0, pretend = 0, frame = 8
 701              		@ frame_needed = 1, uses_anonymous_args = 0
 702 0000 80B5     		push	{r7, lr}
 703              		.cfi_def_cfa_offset 8
 704              		.cfi_offset 7, -8
 705              		.cfi_offset 14, -4
 706 0002 82B0     		sub	sp, sp, #8
 707              		.cfi_def_cfa_offset 16
 708 0004 00AF     		add	r7, sp, #0
 709              		.cfi_def_cfa_register 7
 710 0006 7860     		str	r0, [r7, #4]
 483:cube/Drivers/STM32F0xx_HAL_Driver/Src/stm32f0xx_hal_tim.c ****   /* Check the TIM handle allocation */
 484:cube/Drivers/STM32F0xx_HAL_Driver/Src/stm32f0xx_hal_tim.c ****   if(htim == NULL)
 711              		.loc 1 484 0
 712 0008 7B68     		ldr	r3, [r7, #4]
 713 000a 002B     		cmp	r3, #0
 714 000c 01D1     		bne	.L39
 485:cube/Drivers/STM32F0xx_HAL_Driver/Src/stm32f0xx_hal_tim.c ****   {
 486:cube/Drivers/STM32F0xx_HAL_Driver/Src/stm32f0xx_hal_tim.c ****     return HAL_ERROR;
 715              		.loc 1 486 0
 716 000e 0123     		movs	r3, #1
 717 0010 1EE0     		b	.L40
 718              	.L39:
 487:cube/Drivers/STM32F0xx_HAL_Driver/Src/stm32f0xx_hal_tim.c ****   }
 488:cube/Drivers/STM32F0xx_HAL_Driver/Src/stm32f0xx_hal_tim.c **** 
 489:cube/Drivers/STM32F0xx_HAL_Driver/Src/stm32f0xx_hal_tim.c ****   /* Check the parameters */
 490:cube/Drivers/STM32F0xx_HAL_Driver/Src/stm32f0xx_hal_tim.c ****   assert_param(IS_TIM_INSTANCE(htim->Instance));
 491:cube/Drivers/STM32F0xx_HAL_Driver/Src/stm32f0xx_hal_tim.c ****   assert_param(IS_TIM_COUNTER_MODE(htim->Init.CounterMode));
 492:cube/Drivers/STM32F0xx_HAL_Driver/Src/stm32f0xx_hal_tim.c ****   assert_param(IS_TIM_CLOCKDIVISION_DIV(htim->Init.ClockDivision));
 493:cube/Drivers/STM32F0xx_HAL_Driver/Src/stm32f0xx_hal_tim.c ****   assert_param(IS_TIM_AUTORELOAD_PRELOAD(htim->Init.AutoReloadPreload));
 494:cube/Drivers/STM32F0xx_HAL_Driver/Src/stm32f0xx_hal_tim.c **** 
 495:cube/Drivers/STM32F0xx_HAL_Driver/Src/stm32f0xx_hal_tim.c ****   if(htim->State == HAL_TIM_STATE_RESET)
 719              		.loc 1 495 0
 720 0012 7B68     		ldr	r3, [r7, #4]
 721 0014 3D22     		movs	r2, #61
 722 0016 9B5C     		ldrb	r3, [r3, r2]
 723 0018 DBB2     		uxtb	r3, r3
ARM GAS  /tmp/ccnYXliM.s 			page 22


 724 001a 002B     		cmp	r3, #0
 725 001c 07D1     		bne	.L41
 496:cube/Drivers/STM32F0xx_HAL_Driver/Src/stm32f0xx_hal_tim.c ****   {
 497:cube/Drivers/STM32F0xx_HAL_Driver/Src/stm32f0xx_hal_tim.c ****     /* Allocate lock resource and initialize it */
 498:cube/Drivers/STM32F0xx_HAL_Driver/Src/stm32f0xx_hal_tim.c ****     htim->Lock = HAL_UNLOCKED;
 726              		.loc 1 498 0
 727 001e 7B68     		ldr	r3, [r7, #4]
 728 0020 3C22     		movs	r2, #60
 729 0022 0021     		movs	r1, #0
 730 0024 9954     		strb	r1, [r3, r2]
 499:cube/Drivers/STM32F0xx_HAL_Driver/Src/stm32f0xx_hal_tim.c **** 
 500:cube/Drivers/STM32F0xx_HAL_Driver/Src/stm32f0xx_hal_tim.c ****     /* Init the low level hardware : GPIO, CLOCK, NVIC and DMA */
 501:cube/Drivers/STM32F0xx_HAL_Driver/Src/stm32f0xx_hal_tim.c ****     HAL_TIM_OC_MspInit(htim);
 731              		.loc 1 501 0
 732 0026 7B68     		ldr	r3, [r7, #4]
 733 0028 1800     		movs	r0, r3
 734 002a FFF7FEFF 		bl	HAL_TIM_OC_MspInit
 735              	.L41:
 502:cube/Drivers/STM32F0xx_HAL_Driver/Src/stm32f0xx_hal_tim.c ****   }
 503:cube/Drivers/STM32F0xx_HAL_Driver/Src/stm32f0xx_hal_tim.c **** 
 504:cube/Drivers/STM32F0xx_HAL_Driver/Src/stm32f0xx_hal_tim.c ****   /* Set the TIM state */
 505:cube/Drivers/STM32F0xx_HAL_Driver/Src/stm32f0xx_hal_tim.c ****   htim->State= HAL_TIM_STATE_BUSY;
 736              		.loc 1 505 0
 737 002e 7B68     		ldr	r3, [r7, #4]
 738 0030 3D22     		movs	r2, #61
 739 0032 0221     		movs	r1, #2
 740 0034 9954     		strb	r1, [r3, r2]
 506:cube/Drivers/STM32F0xx_HAL_Driver/Src/stm32f0xx_hal_tim.c **** 
 507:cube/Drivers/STM32F0xx_HAL_Driver/Src/stm32f0xx_hal_tim.c ****   /* Init the base time for the Output Compare */
 508:cube/Drivers/STM32F0xx_HAL_Driver/Src/stm32f0xx_hal_tim.c ****   TIM_Base_SetConfig(htim->Instance,  &htim->Init);
 741              		.loc 1 508 0
 742 0036 7B68     		ldr	r3, [r7, #4]
 743 0038 1A68     		ldr	r2, [r3]
 744 003a 7B68     		ldr	r3, [r7, #4]
 745 003c 0433     		adds	r3, r3, #4
 746 003e 1900     		movs	r1, r3
 747 0040 1000     		movs	r0, r2
 748 0042 FFF7FEFF 		bl	TIM_Base_SetConfig
 509:cube/Drivers/STM32F0xx_HAL_Driver/Src/stm32f0xx_hal_tim.c **** 
 510:cube/Drivers/STM32F0xx_HAL_Driver/Src/stm32f0xx_hal_tim.c ****   /* Initialize the TIM state*/
 511:cube/Drivers/STM32F0xx_HAL_Driver/Src/stm32f0xx_hal_tim.c ****   htim->State= HAL_TIM_STATE_READY;
 749              		.loc 1 511 0
 750 0046 7B68     		ldr	r3, [r7, #4]
 751 0048 3D22     		movs	r2, #61
 752 004a 0121     		movs	r1, #1
 753 004c 9954     		strb	r1, [r3, r2]
 512:cube/Drivers/STM32F0xx_HAL_Driver/Src/stm32f0xx_hal_tim.c **** 
 513:cube/Drivers/STM32F0xx_HAL_Driver/Src/stm32f0xx_hal_tim.c ****   return HAL_OK;
 754              		.loc 1 513 0
 755 004e 0023     		movs	r3, #0
 756              	.L40:
 514:cube/Drivers/STM32F0xx_HAL_Driver/Src/stm32f0xx_hal_tim.c **** }
 757              		.loc 1 514 0
 758 0050 1800     		movs	r0, r3
 759 0052 BD46     		mov	sp, r7
 760 0054 02B0     		add	sp, sp, #8
 761              		@ sp needed
ARM GAS  /tmp/ccnYXliM.s 			page 23


 762 0056 80BD     		pop	{r7, pc}
 763              		.cfi_endproc
 764              	.LFE47:
 766              		.section	.text.HAL_TIM_OC_DeInit,"ax",%progbits
 767              		.align	1
 768              		.global	HAL_TIM_OC_DeInit
 769              		.syntax unified
 770              		.code	16
 771              		.thumb_func
 772              		.fpu softvfp
 774              	HAL_TIM_OC_DeInit:
 775              	.LFB48:
 515:cube/Drivers/STM32F0xx_HAL_Driver/Src/stm32f0xx_hal_tim.c **** 
 516:cube/Drivers/STM32F0xx_HAL_Driver/Src/stm32f0xx_hal_tim.c **** /**
 517:cube/Drivers/STM32F0xx_HAL_Driver/Src/stm32f0xx_hal_tim.c ****   * @brief  DeInitializes the TIM peripheral 
 518:cube/Drivers/STM32F0xx_HAL_Driver/Src/stm32f0xx_hal_tim.c ****   * @param  htim TIM Output Compare handle
 519:cube/Drivers/STM32F0xx_HAL_Driver/Src/stm32f0xx_hal_tim.c ****   * @retval HAL status
 520:cube/Drivers/STM32F0xx_HAL_Driver/Src/stm32f0xx_hal_tim.c ****   */
 521:cube/Drivers/STM32F0xx_HAL_Driver/Src/stm32f0xx_hal_tim.c **** HAL_StatusTypeDef HAL_TIM_OC_DeInit(TIM_HandleTypeDef *htim)
 522:cube/Drivers/STM32F0xx_HAL_Driver/Src/stm32f0xx_hal_tim.c **** {
 776              		.loc 1 522 0
 777              		.cfi_startproc
 778              		@ args = 0, pretend = 0, frame = 8
 779              		@ frame_needed = 1, uses_anonymous_args = 0
 780 0000 80B5     		push	{r7, lr}
 781              		.cfi_def_cfa_offset 8
 782              		.cfi_offset 7, -8
 783              		.cfi_offset 14, -4
 784 0002 82B0     		sub	sp, sp, #8
 785              		.cfi_def_cfa_offset 16
 786 0004 00AF     		add	r7, sp, #0
 787              		.cfi_def_cfa_register 7
 788 0006 7860     		str	r0, [r7, #4]
 523:cube/Drivers/STM32F0xx_HAL_Driver/Src/stm32f0xx_hal_tim.c ****   /* Check the parameters */
 524:cube/Drivers/STM32F0xx_HAL_Driver/Src/stm32f0xx_hal_tim.c ****   assert_param(IS_TIM_INSTANCE(htim->Instance));
 525:cube/Drivers/STM32F0xx_HAL_Driver/Src/stm32f0xx_hal_tim.c **** 
 526:cube/Drivers/STM32F0xx_HAL_Driver/Src/stm32f0xx_hal_tim.c ****    htim->State = HAL_TIM_STATE_BUSY;
 789              		.loc 1 526 0
 790 0008 7B68     		ldr	r3, [r7, #4]
 791 000a 3D22     		movs	r2, #61
 792 000c 0221     		movs	r1, #2
 793 000e 9954     		strb	r1, [r3, r2]
 527:cube/Drivers/STM32F0xx_HAL_Driver/Src/stm32f0xx_hal_tim.c **** 
 528:cube/Drivers/STM32F0xx_HAL_Driver/Src/stm32f0xx_hal_tim.c ****   /* Disable the TIM Peripheral Clock */
 529:cube/Drivers/STM32F0xx_HAL_Driver/Src/stm32f0xx_hal_tim.c ****   __HAL_TIM_DISABLE(htim);
 794              		.loc 1 529 0
 795 0010 7B68     		ldr	r3, [r7, #4]
 796 0012 1B68     		ldr	r3, [r3]
 797 0014 1B6A     		ldr	r3, [r3, #32]
 798 0016 114A     		ldr	r2, .L45
 799 0018 1340     		ands	r3, r2
 800 001a 0DD1     		bne	.L43
 801              		.loc 1 529 0 is_stmt 0 discriminator 1
 802 001c 7B68     		ldr	r3, [r7, #4]
 803 001e 1B68     		ldr	r3, [r3]
 804 0020 1B6A     		ldr	r3, [r3, #32]
 805 0022 0F4A     		ldr	r2, .L45+4
ARM GAS  /tmp/ccnYXliM.s 			page 24


 806 0024 1340     		ands	r3, r2
 807 0026 07D1     		bne	.L43
 808              		.loc 1 529 0 discriminator 2
 809 0028 7B68     		ldr	r3, [r7, #4]
 810 002a 1B68     		ldr	r3, [r3]
 811 002c 1A68     		ldr	r2, [r3]
 812 002e 7B68     		ldr	r3, [r7, #4]
 813 0030 1B68     		ldr	r3, [r3]
 814 0032 0121     		movs	r1, #1
 815 0034 8A43     		bics	r2, r1
 816 0036 1A60     		str	r2, [r3]
 817              	.L43:
 530:cube/Drivers/STM32F0xx_HAL_Driver/Src/stm32f0xx_hal_tim.c **** 
 531:cube/Drivers/STM32F0xx_HAL_Driver/Src/stm32f0xx_hal_tim.c ****   /* DeInit the low level hardware: GPIO, CLOCK, NVIC and DMA */
 532:cube/Drivers/STM32F0xx_HAL_Driver/Src/stm32f0xx_hal_tim.c ****   HAL_TIM_OC_MspDeInit(htim);
 818              		.loc 1 532 0 is_stmt 1
 819 0038 7B68     		ldr	r3, [r7, #4]
 820 003a 1800     		movs	r0, r3
 821 003c FFF7FEFF 		bl	HAL_TIM_OC_MspDeInit
 533:cube/Drivers/STM32F0xx_HAL_Driver/Src/stm32f0xx_hal_tim.c **** 
 534:cube/Drivers/STM32F0xx_HAL_Driver/Src/stm32f0xx_hal_tim.c ****   /* Change TIM state */
 535:cube/Drivers/STM32F0xx_HAL_Driver/Src/stm32f0xx_hal_tim.c ****   htim->State = HAL_TIM_STATE_RESET;
 822              		.loc 1 535 0
 823 0040 7B68     		ldr	r3, [r7, #4]
 824 0042 3D22     		movs	r2, #61
 825 0044 0021     		movs	r1, #0
 826 0046 9954     		strb	r1, [r3, r2]
 536:cube/Drivers/STM32F0xx_HAL_Driver/Src/stm32f0xx_hal_tim.c **** 
 537:cube/Drivers/STM32F0xx_HAL_Driver/Src/stm32f0xx_hal_tim.c ****   /* Release Lock */
 538:cube/Drivers/STM32F0xx_HAL_Driver/Src/stm32f0xx_hal_tim.c ****   __HAL_UNLOCK(htim);
 827              		.loc 1 538 0
 828 0048 7B68     		ldr	r3, [r7, #4]
 829 004a 3C22     		movs	r2, #60
 830 004c 0021     		movs	r1, #0
 831 004e 9954     		strb	r1, [r3, r2]
 539:cube/Drivers/STM32F0xx_HAL_Driver/Src/stm32f0xx_hal_tim.c **** 
 540:cube/Drivers/STM32F0xx_HAL_Driver/Src/stm32f0xx_hal_tim.c ****   return HAL_OK;
 832              		.loc 1 540 0
 833 0050 0023     		movs	r3, #0
 541:cube/Drivers/STM32F0xx_HAL_Driver/Src/stm32f0xx_hal_tim.c **** }
 834              		.loc 1 541 0
 835 0052 1800     		movs	r0, r3
 836 0054 BD46     		mov	sp, r7
 837 0056 02B0     		add	sp, sp, #8
 838              		@ sp needed
 839 0058 80BD     		pop	{r7, pc}
 840              	.L46:
 841 005a C046     		.align	2
 842              	.L45:
 843 005c 11110000 		.word	4369
 844 0060 44040000 		.word	1092
 845              		.cfi_endproc
 846              	.LFE48:
 848              		.section	.text.HAL_TIM_OC_MspInit,"ax",%progbits
 849              		.align	1
 850              		.weak	HAL_TIM_OC_MspInit
 851              		.syntax unified
ARM GAS  /tmp/ccnYXliM.s 			page 25


 852              		.code	16
 853              		.thumb_func
 854              		.fpu softvfp
 856              	HAL_TIM_OC_MspInit:
 857              	.LFB49:
 542:cube/Drivers/STM32F0xx_HAL_Driver/Src/stm32f0xx_hal_tim.c **** 
 543:cube/Drivers/STM32F0xx_HAL_Driver/Src/stm32f0xx_hal_tim.c **** /**
 544:cube/Drivers/STM32F0xx_HAL_Driver/Src/stm32f0xx_hal_tim.c ****   * @brief  Initializes the TIM Output Compare MSP.
 545:cube/Drivers/STM32F0xx_HAL_Driver/Src/stm32f0xx_hal_tim.c ****   * @param  htim TIM handle
 546:cube/Drivers/STM32F0xx_HAL_Driver/Src/stm32f0xx_hal_tim.c ****   * @retval None
 547:cube/Drivers/STM32F0xx_HAL_Driver/Src/stm32f0xx_hal_tim.c ****   */
 548:cube/Drivers/STM32F0xx_HAL_Driver/Src/stm32f0xx_hal_tim.c **** __weak void HAL_TIM_OC_MspInit(TIM_HandleTypeDef *htim)
 549:cube/Drivers/STM32F0xx_HAL_Driver/Src/stm32f0xx_hal_tim.c **** {
 858              		.loc 1 549 0
 859              		.cfi_startproc
 860              		@ args = 0, pretend = 0, frame = 8
 861              		@ frame_needed = 1, uses_anonymous_args = 0
 862 0000 80B5     		push	{r7, lr}
 863              		.cfi_def_cfa_offset 8
 864              		.cfi_offset 7, -8
 865              		.cfi_offset 14, -4
 866 0002 82B0     		sub	sp, sp, #8
 867              		.cfi_def_cfa_offset 16
 868 0004 00AF     		add	r7, sp, #0
 869              		.cfi_def_cfa_register 7
 870 0006 7860     		str	r0, [r7, #4]
 550:cube/Drivers/STM32F0xx_HAL_Driver/Src/stm32f0xx_hal_tim.c ****   /* Prevent unused argument(s) compilation warning */
 551:cube/Drivers/STM32F0xx_HAL_Driver/Src/stm32f0xx_hal_tim.c ****   UNUSED(htim);
 552:cube/Drivers/STM32F0xx_HAL_Driver/Src/stm32f0xx_hal_tim.c **** 
 553:cube/Drivers/STM32F0xx_HAL_Driver/Src/stm32f0xx_hal_tim.c ****   /* NOTE : This function Should not be modified, when the callback is needed,
 554:cube/Drivers/STM32F0xx_HAL_Driver/Src/stm32f0xx_hal_tim.c ****             the HAL_TIM_OC_MspInit could be implemented in the user file
 555:cube/Drivers/STM32F0xx_HAL_Driver/Src/stm32f0xx_hal_tim.c ****    */
 556:cube/Drivers/STM32F0xx_HAL_Driver/Src/stm32f0xx_hal_tim.c **** }
 871              		.loc 1 556 0
 872 0008 C046     		nop
 873 000a BD46     		mov	sp, r7
 874 000c 02B0     		add	sp, sp, #8
 875              		@ sp needed
 876 000e 80BD     		pop	{r7, pc}
 877              		.cfi_endproc
 878              	.LFE49:
 880              		.section	.text.HAL_TIM_OC_MspDeInit,"ax",%progbits
 881              		.align	1
 882              		.weak	HAL_TIM_OC_MspDeInit
 883              		.syntax unified
 884              		.code	16
 885              		.thumb_func
 886              		.fpu softvfp
 888              	HAL_TIM_OC_MspDeInit:
 889              	.LFB50:
 557:cube/Drivers/STM32F0xx_HAL_Driver/Src/stm32f0xx_hal_tim.c **** 
 558:cube/Drivers/STM32F0xx_HAL_Driver/Src/stm32f0xx_hal_tim.c **** /**
 559:cube/Drivers/STM32F0xx_HAL_Driver/Src/stm32f0xx_hal_tim.c ****   * @brief  DeInitializes TIM Output Compare MSP.
 560:cube/Drivers/STM32F0xx_HAL_Driver/Src/stm32f0xx_hal_tim.c ****   * @param  htim TIM handle
 561:cube/Drivers/STM32F0xx_HAL_Driver/Src/stm32f0xx_hal_tim.c ****   * @retval None
 562:cube/Drivers/STM32F0xx_HAL_Driver/Src/stm32f0xx_hal_tim.c ****   */
 563:cube/Drivers/STM32F0xx_HAL_Driver/Src/stm32f0xx_hal_tim.c **** __weak void HAL_TIM_OC_MspDeInit(TIM_HandleTypeDef *htim)
ARM GAS  /tmp/ccnYXliM.s 			page 26


 564:cube/Drivers/STM32F0xx_HAL_Driver/Src/stm32f0xx_hal_tim.c **** {
 890              		.loc 1 564 0
 891              		.cfi_startproc
 892              		@ args = 0, pretend = 0, frame = 8
 893              		@ frame_needed = 1, uses_anonymous_args = 0
 894 0000 80B5     		push	{r7, lr}
 895              		.cfi_def_cfa_offset 8
 896              		.cfi_offset 7, -8
 897              		.cfi_offset 14, -4
 898 0002 82B0     		sub	sp, sp, #8
 899              		.cfi_def_cfa_offset 16
 900 0004 00AF     		add	r7, sp, #0
 901              		.cfi_def_cfa_register 7
 902 0006 7860     		str	r0, [r7, #4]
 565:cube/Drivers/STM32F0xx_HAL_Driver/Src/stm32f0xx_hal_tim.c ****   /* Prevent unused argument(s) compilation warning */
 566:cube/Drivers/STM32F0xx_HAL_Driver/Src/stm32f0xx_hal_tim.c ****   UNUSED(htim);
 567:cube/Drivers/STM32F0xx_HAL_Driver/Src/stm32f0xx_hal_tim.c **** 
 568:cube/Drivers/STM32F0xx_HAL_Driver/Src/stm32f0xx_hal_tim.c ****   /* NOTE : This function Should not be modified, when the callback is needed,
 569:cube/Drivers/STM32F0xx_HAL_Driver/Src/stm32f0xx_hal_tim.c ****             the HAL_TIM_OC_MspDeInit could be implemented in the user file
 570:cube/Drivers/STM32F0xx_HAL_Driver/Src/stm32f0xx_hal_tim.c ****    */
 571:cube/Drivers/STM32F0xx_HAL_Driver/Src/stm32f0xx_hal_tim.c **** }
 903              		.loc 1 571 0
 904 0008 C046     		nop
 905 000a BD46     		mov	sp, r7
 906 000c 02B0     		add	sp, sp, #8
 907              		@ sp needed
 908 000e 80BD     		pop	{r7, pc}
 909              		.cfi_endproc
 910              	.LFE50:
 912              		.section	.text.HAL_TIM_OC_Start,"ax",%progbits
 913              		.align	1
 914              		.global	HAL_TIM_OC_Start
 915              		.syntax unified
 916              		.code	16
 917              		.thumb_func
 918              		.fpu softvfp
 920              	HAL_TIM_OC_Start:
 921              	.LFB51:
 572:cube/Drivers/STM32F0xx_HAL_Driver/Src/stm32f0xx_hal_tim.c **** 
 573:cube/Drivers/STM32F0xx_HAL_Driver/Src/stm32f0xx_hal_tim.c **** /**
 574:cube/Drivers/STM32F0xx_HAL_Driver/Src/stm32f0xx_hal_tim.c ****   * @brief  Starts the TIM Output Compare signal generation.
 575:cube/Drivers/STM32F0xx_HAL_Driver/Src/stm32f0xx_hal_tim.c ****   * @param  htim TIM Output Compare handle 
 576:cube/Drivers/STM32F0xx_HAL_Driver/Src/stm32f0xx_hal_tim.c ****   * @param  Channel TIM Channel to be enabled
 577:cube/Drivers/STM32F0xx_HAL_Driver/Src/stm32f0xx_hal_tim.c ****   *          This parameter can be one of the following values:
 578:cube/Drivers/STM32F0xx_HAL_Driver/Src/stm32f0xx_hal_tim.c ****   *            @arg TIM_CHANNEL_1: TIM Channel 1 selected
 579:cube/Drivers/STM32F0xx_HAL_Driver/Src/stm32f0xx_hal_tim.c ****   *            @arg TIM_CHANNEL_2: TIM Channel 2 selected
 580:cube/Drivers/STM32F0xx_HAL_Driver/Src/stm32f0xx_hal_tim.c ****   *            @arg TIM_CHANNEL_3: TIM Channel 3 selected
 581:cube/Drivers/STM32F0xx_HAL_Driver/Src/stm32f0xx_hal_tim.c ****   *            @arg TIM_CHANNEL_4: TIM Channel 4 selected 
 582:cube/Drivers/STM32F0xx_HAL_Driver/Src/stm32f0xx_hal_tim.c ****   * @retval HAL status
 583:cube/Drivers/STM32F0xx_HAL_Driver/Src/stm32f0xx_hal_tim.c **** */
 584:cube/Drivers/STM32F0xx_HAL_Driver/Src/stm32f0xx_hal_tim.c **** HAL_StatusTypeDef HAL_TIM_OC_Start(TIM_HandleTypeDef *htim, uint32_t Channel)
 585:cube/Drivers/STM32F0xx_HAL_Driver/Src/stm32f0xx_hal_tim.c **** {
 922              		.loc 1 585 0
 923              		.cfi_startproc
 924              		@ args = 0, pretend = 0, frame = 8
 925              		@ frame_needed = 1, uses_anonymous_args = 0
 926 0000 80B5     		push	{r7, lr}
ARM GAS  /tmp/ccnYXliM.s 			page 27


 927              		.cfi_def_cfa_offset 8
 928              		.cfi_offset 7, -8
 929              		.cfi_offset 14, -4
 930 0002 82B0     		sub	sp, sp, #8
 931              		.cfi_def_cfa_offset 16
 932 0004 00AF     		add	r7, sp, #0
 933              		.cfi_def_cfa_register 7
 934 0006 7860     		str	r0, [r7, #4]
 935 0008 3960     		str	r1, [r7]
 586:cube/Drivers/STM32F0xx_HAL_Driver/Src/stm32f0xx_hal_tim.c ****   /* Check the parameters */
 587:cube/Drivers/STM32F0xx_HAL_Driver/Src/stm32f0xx_hal_tim.c ****   assert_param(IS_TIM_CCX_INSTANCE(htim->Instance, Channel));
 588:cube/Drivers/STM32F0xx_HAL_Driver/Src/stm32f0xx_hal_tim.c **** 
 589:cube/Drivers/STM32F0xx_HAL_Driver/Src/stm32f0xx_hal_tim.c ****   /* Enable the Output compare channel */
 590:cube/Drivers/STM32F0xx_HAL_Driver/Src/stm32f0xx_hal_tim.c ****   TIM_CCxChannelCmd(htim->Instance, Channel, TIM_CCx_ENABLE);
 936              		.loc 1 590 0
 937 000a 7B68     		ldr	r3, [r7, #4]
 938 000c 1B68     		ldr	r3, [r3]
 939 000e 3968     		ldr	r1, [r7]
 940 0010 0122     		movs	r2, #1
 941 0012 1800     		movs	r0, r3
 942 0014 FFF7FEFF 		bl	TIM_CCxChannelCmd
 591:cube/Drivers/STM32F0xx_HAL_Driver/Src/stm32f0xx_hal_tim.c **** 
 592:cube/Drivers/STM32F0xx_HAL_Driver/Src/stm32f0xx_hal_tim.c ****   if(IS_TIM_BREAK_INSTANCE(htim->Instance) != RESET)
 943              		.loc 1 592 0
 944 0018 7B68     		ldr	r3, [r7, #4]
 945 001a 1B68     		ldr	r3, [r3]
 946 001c 164A     		ldr	r2, .L55
 947 001e 9342     		cmp	r3, r2
 948 0020 0ED0     		beq	.L50
 949              		.loc 1 592 0 is_stmt 0 discriminator 2
 950 0022 7B68     		ldr	r3, [r7, #4]
 951 0024 1B68     		ldr	r3, [r3]
 952 0026 154A     		ldr	r2, .L55+4
 953 0028 9342     		cmp	r3, r2
 954 002a 09D0     		beq	.L50
 955              		.loc 1 592 0 discriminator 4
 956 002c 7B68     		ldr	r3, [r7, #4]
 957 002e 1B68     		ldr	r3, [r3]
 958 0030 134A     		ldr	r2, .L55+8
 959 0032 9342     		cmp	r3, r2
 960 0034 04D0     		beq	.L50
 961              		.loc 1 592 0 discriminator 6
 962 0036 7B68     		ldr	r3, [r7, #4]
 963 0038 1B68     		ldr	r3, [r3]
 964 003a 124A     		ldr	r2, .L55+12
 965 003c 9342     		cmp	r3, r2
 966 003e 01D1     		bne	.L51
 967              	.L50:
 968              		.loc 1 592 0 discriminator 7
 969 0040 0123     		movs	r3, #1
 970 0042 00E0     		b	.L52
 971              	.L51:
 972              		.loc 1 592 0 discriminator 8
 973 0044 0023     		movs	r3, #0
 974              	.L52:
 975              		.loc 1 592 0 discriminator 10
 976 0046 002B     		cmp	r3, #0
ARM GAS  /tmp/ccnYXliM.s 			page 28


 977 0048 08D0     		beq	.L53
 593:cube/Drivers/STM32F0xx_HAL_Driver/Src/stm32f0xx_hal_tim.c ****   {
 594:cube/Drivers/STM32F0xx_HAL_Driver/Src/stm32f0xx_hal_tim.c ****     /* Enable the main output */
 595:cube/Drivers/STM32F0xx_HAL_Driver/Src/stm32f0xx_hal_tim.c ****     __HAL_TIM_MOE_ENABLE(htim);
 978              		.loc 1 595 0 is_stmt 1
 979 004a 7B68     		ldr	r3, [r7, #4]
 980 004c 1B68     		ldr	r3, [r3]
 981 004e 5A6C     		ldr	r2, [r3, #68]
 982 0050 7B68     		ldr	r3, [r7, #4]
 983 0052 1B68     		ldr	r3, [r3]
 984 0054 8021     		movs	r1, #128
 985 0056 0902     		lsls	r1, r1, #8
 986 0058 0A43     		orrs	r2, r1
 987 005a 5A64     		str	r2, [r3, #68]
 988              	.L53:
 596:cube/Drivers/STM32F0xx_HAL_Driver/Src/stm32f0xx_hal_tim.c ****   }
 597:cube/Drivers/STM32F0xx_HAL_Driver/Src/stm32f0xx_hal_tim.c **** 
 598:cube/Drivers/STM32F0xx_HAL_Driver/Src/stm32f0xx_hal_tim.c ****   /* Enable the Peripheral */
 599:cube/Drivers/STM32F0xx_HAL_Driver/Src/stm32f0xx_hal_tim.c ****   __HAL_TIM_ENABLE(htim);
 989              		.loc 1 599 0
 990 005c 7B68     		ldr	r3, [r7, #4]
 991 005e 1B68     		ldr	r3, [r3]
 992 0060 1A68     		ldr	r2, [r3]
 993 0062 7B68     		ldr	r3, [r7, #4]
 994 0064 1B68     		ldr	r3, [r3]
 995 0066 0121     		movs	r1, #1
 996 0068 0A43     		orrs	r2, r1
 997 006a 1A60     		str	r2, [r3]
 600:cube/Drivers/STM32F0xx_HAL_Driver/Src/stm32f0xx_hal_tim.c **** 
 601:cube/Drivers/STM32F0xx_HAL_Driver/Src/stm32f0xx_hal_tim.c ****   /* Return function status */
 602:cube/Drivers/STM32F0xx_HAL_Driver/Src/stm32f0xx_hal_tim.c ****   return HAL_OK;
 998              		.loc 1 602 0
 999 006c 0023     		movs	r3, #0
 603:cube/Drivers/STM32F0xx_HAL_Driver/Src/stm32f0xx_hal_tim.c **** }
 1000              		.loc 1 603 0
 1001 006e 1800     		movs	r0, r3
 1002 0070 BD46     		mov	sp, r7
 1003 0072 02B0     		add	sp, sp, #8
 1004              		@ sp needed
 1005 0074 80BD     		pop	{r7, pc}
 1006              	.L56:
 1007 0076 C046     		.align	2
 1008              	.L55:
 1009 0078 002C0140 		.word	1073818624
 1010 007c 00400140 		.word	1073823744
 1011 0080 00440140 		.word	1073824768
 1012 0084 00480140 		.word	1073825792
 1013              		.cfi_endproc
 1014              	.LFE51:
 1016              		.section	.text.HAL_TIM_OC_Stop,"ax",%progbits
 1017              		.align	1
 1018              		.global	HAL_TIM_OC_Stop
 1019              		.syntax unified
 1020              		.code	16
 1021              		.thumb_func
 1022              		.fpu softvfp
 1024              	HAL_TIM_OC_Stop:
ARM GAS  /tmp/ccnYXliM.s 			page 29


 1025              	.LFB52:
 604:cube/Drivers/STM32F0xx_HAL_Driver/Src/stm32f0xx_hal_tim.c **** 
 605:cube/Drivers/STM32F0xx_HAL_Driver/Src/stm32f0xx_hal_tim.c **** /**
 606:cube/Drivers/STM32F0xx_HAL_Driver/Src/stm32f0xx_hal_tim.c ****   * @brief  Stops the TIM Output Compare signal generation.
 607:cube/Drivers/STM32F0xx_HAL_Driver/Src/stm32f0xx_hal_tim.c ****   * @param  htim TIM handle
 608:cube/Drivers/STM32F0xx_HAL_Driver/Src/stm32f0xx_hal_tim.c ****   * @param  Channel TIM Channel to be disabled
 609:cube/Drivers/STM32F0xx_HAL_Driver/Src/stm32f0xx_hal_tim.c ****   *          This parameter can be one of the following values:
 610:cube/Drivers/STM32F0xx_HAL_Driver/Src/stm32f0xx_hal_tim.c ****   *            @arg TIM_CHANNEL_1: TIM Channel 1 selected
 611:cube/Drivers/STM32F0xx_HAL_Driver/Src/stm32f0xx_hal_tim.c ****   *            @arg TIM_CHANNEL_2: TIM Channel 2 selected
 612:cube/Drivers/STM32F0xx_HAL_Driver/Src/stm32f0xx_hal_tim.c ****   *            @arg TIM_CHANNEL_3: TIM Channel 3 selected
 613:cube/Drivers/STM32F0xx_HAL_Driver/Src/stm32f0xx_hal_tim.c ****   *            @arg TIM_CHANNEL_4: TIM Channel 4 selected
 614:cube/Drivers/STM32F0xx_HAL_Driver/Src/stm32f0xx_hal_tim.c ****   * @retval HAL status
 615:cube/Drivers/STM32F0xx_HAL_Driver/Src/stm32f0xx_hal_tim.c **** */
 616:cube/Drivers/STM32F0xx_HAL_Driver/Src/stm32f0xx_hal_tim.c **** HAL_StatusTypeDef HAL_TIM_OC_Stop(TIM_HandleTypeDef *htim, uint32_t Channel)
 617:cube/Drivers/STM32F0xx_HAL_Driver/Src/stm32f0xx_hal_tim.c **** {
 1026              		.loc 1 617 0
 1027              		.cfi_startproc
 1028              		@ args = 0, pretend = 0, frame = 8
 1029              		@ frame_needed = 1, uses_anonymous_args = 0
 1030 0000 80B5     		push	{r7, lr}
 1031              		.cfi_def_cfa_offset 8
 1032              		.cfi_offset 7, -8
 1033              		.cfi_offset 14, -4
 1034 0002 82B0     		sub	sp, sp, #8
 1035              		.cfi_def_cfa_offset 16
 1036 0004 00AF     		add	r7, sp, #0
 1037              		.cfi_def_cfa_register 7
 1038 0006 7860     		str	r0, [r7, #4]
 1039 0008 3960     		str	r1, [r7]
 618:cube/Drivers/STM32F0xx_HAL_Driver/Src/stm32f0xx_hal_tim.c ****   /* Check the parameters */
 619:cube/Drivers/STM32F0xx_HAL_Driver/Src/stm32f0xx_hal_tim.c ****   assert_param(IS_TIM_CCX_INSTANCE(htim->Instance, Channel));
 620:cube/Drivers/STM32F0xx_HAL_Driver/Src/stm32f0xx_hal_tim.c **** 
 621:cube/Drivers/STM32F0xx_HAL_Driver/Src/stm32f0xx_hal_tim.c ****   /* Disable the Output compare channel */
 622:cube/Drivers/STM32F0xx_HAL_Driver/Src/stm32f0xx_hal_tim.c ****   TIM_CCxChannelCmd(htim->Instance, Channel, TIM_CCx_DISABLE);
 1040              		.loc 1 622 0
 1041 000a 7B68     		ldr	r3, [r7, #4]
 1042 000c 1B68     		ldr	r3, [r3]
 1043 000e 3968     		ldr	r1, [r7]
 1044 0010 0022     		movs	r2, #0
 1045 0012 1800     		movs	r0, r3
 1046 0014 FFF7FEFF 		bl	TIM_CCxChannelCmd
 623:cube/Drivers/STM32F0xx_HAL_Driver/Src/stm32f0xx_hal_tim.c **** 
 624:cube/Drivers/STM32F0xx_HAL_Driver/Src/stm32f0xx_hal_tim.c ****   if(IS_TIM_BREAK_INSTANCE(htim->Instance) != RESET)
 1047              		.loc 1 624 0
 1048 0018 7B68     		ldr	r3, [r7, #4]
 1049 001a 1B68     		ldr	r3, [r3]
 1050 001c 214A     		ldr	r2, .L64
 1051 001e 9342     		cmp	r3, r2
 1052 0020 0ED0     		beq	.L58
 1053              		.loc 1 624 0 is_stmt 0 discriminator 2
 1054 0022 7B68     		ldr	r3, [r7, #4]
 1055 0024 1B68     		ldr	r3, [r3]
 1056 0026 204A     		ldr	r2, .L64+4
 1057 0028 9342     		cmp	r3, r2
 1058 002a 09D0     		beq	.L58
 1059              		.loc 1 624 0 discriminator 4
 1060 002c 7B68     		ldr	r3, [r7, #4]
ARM GAS  /tmp/ccnYXliM.s 			page 30


 1061 002e 1B68     		ldr	r3, [r3]
 1062 0030 1E4A     		ldr	r2, .L64+8
 1063 0032 9342     		cmp	r3, r2
 1064 0034 04D0     		beq	.L58
 1065              		.loc 1 624 0 discriminator 6
 1066 0036 7B68     		ldr	r3, [r7, #4]
 1067 0038 1B68     		ldr	r3, [r3]
 1068 003a 1D4A     		ldr	r2, .L64+12
 1069 003c 9342     		cmp	r3, r2
 1070 003e 01D1     		bne	.L59
 1071              	.L58:
 1072              		.loc 1 624 0 discriminator 7
 1073 0040 0123     		movs	r3, #1
 1074 0042 00E0     		b	.L60
 1075              	.L59:
 1076              		.loc 1 624 0 discriminator 8
 1077 0044 0023     		movs	r3, #0
 1078              	.L60:
 1079              		.loc 1 624 0 discriminator 10
 1080 0046 002B     		cmp	r3, #0
 1081 0048 13D0     		beq	.L61
 625:cube/Drivers/STM32F0xx_HAL_Driver/Src/stm32f0xx_hal_tim.c ****   {
 626:cube/Drivers/STM32F0xx_HAL_Driver/Src/stm32f0xx_hal_tim.c ****     /* Disable the Main Ouput */
 627:cube/Drivers/STM32F0xx_HAL_Driver/Src/stm32f0xx_hal_tim.c ****     __HAL_TIM_MOE_DISABLE(htim);
 1082              		.loc 1 627 0 is_stmt 1
 1083 004a 7B68     		ldr	r3, [r7, #4]
 1084 004c 1B68     		ldr	r3, [r3]
 1085 004e 1B6A     		ldr	r3, [r3, #32]
 1086 0050 184A     		ldr	r2, .L64+16
 1087 0052 1340     		ands	r3, r2
 1088 0054 0DD1     		bne	.L61
 1089              		.loc 1 627 0 is_stmt 0 discriminator 1
 1090 0056 7B68     		ldr	r3, [r7, #4]
 1091 0058 1B68     		ldr	r3, [r3]
 1092 005a 1B6A     		ldr	r3, [r3, #32]
 1093 005c 164A     		ldr	r2, .L64+20
 1094 005e 1340     		ands	r3, r2
 1095 0060 07D1     		bne	.L61
 1096              		.loc 1 627 0 discriminator 2
 1097 0062 7B68     		ldr	r3, [r7, #4]
 1098 0064 1B68     		ldr	r3, [r3]
 1099 0066 5A6C     		ldr	r2, [r3, #68]
 1100 0068 7B68     		ldr	r3, [r7, #4]
 1101 006a 1B68     		ldr	r3, [r3]
 1102 006c 1349     		ldr	r1, .L64+24
 1103 006e 0A40     		ands	r2, r1
 1104 0070 5A64     		str	r2, [r3, #68]
 1105              	.L61:
 628:cube/Drivers/STM32F0xx_HAL_Driver/Src/stm32f0xx_hal_tim.c ****   }
 629:cube/Drivers/STM32F0xx_HAL_Driver/Src/stm32f0xx_hal_tim.c **** 
 630:cube/Drivers/STM32F0xx_HAL_Driver/Src/stm32f0xx_hal_tim.c ****   /* Disable the Peripheral */
 631:cube/Drivers/STM32F0xx_HAL_Driver/Src/stm32f0xx_hal_tim.c ****   __HAL_TIM_DISABLE(htim);
 1106              		.loc 1 631 0 is_stmt 1
 1107 0072 7B68     		ldr	r3, [r7, #4]
 1108 0074 1B68     		ldr	r3, [r3]
 1109 0076 1B6A     		ldr	r3, [r3, #32]
 1110 0078 0E4A     		ldr	r2, .L64+16
ARM GAS  /tmp/ccnYXliM.s 			page 31


 1111 007a 1340     		ands	r3, r2
 1112 007c 0DD1     		bne	.L62
 1113              		.loc 1 631 0 is_stmt 0 discriminator 1
 1114 007e 7B68     		ldr	r3, [r7, #4]
 1115 0080 1B68     		ldr	r3, [r3]
 1116 0082 1B6A     		ldr	r3, [r3, #32]
 1117 0084 0C4A     		ldr	r2, .L64+20
 1118 0086 1340     		ands	r3, r2
 1119 0088 07D1     		bne	.L62
 1120              		.loc 1 631 0 discriminator 2
 1121 008a 7B68     		ldr	r3, [r7, #4]
 1122 008c 1B68     		ldr	r3, [r3]
 1123 008e 1A68     		ldr	r2, [r3]
 1124 0090 7B68     		ldr	r3, [r7, #4]
 1125 0092 1B68     		ldr	r3, [r3]
 1126 0094 0121     		movs	r1, #1
 1127 0096 8A43     		bics	r2, r1
 1128 0098 1A60     		str	r2, [r3]
 1129              	.L62:
 632:cube/Drivers/STM32F0xx_HAL_Driver/Src/stm32f0xx_hal_tim.c **** 
 633:cube/Drivers/STM32F0xx_HAL_Driver/Src/stm32f0xx_hal_tim.c ****   /* Return function status */
 634:cube/Drivers/STM32F0xx_HAL_Driver/Src/stm32f0xx_hal_tim.c ****   return HAL_OK;
 1130              		.loc 1 634 0 is_stmt 1
 1131 009a 0023     		movs	r3, #0
 635:cube/Drivers/STM32F0xx_HAL_Driver/Src/stm32f0xx_hal_tim.c **** }
 1132              		.loc 1 635 0
 1133 009c 1800     		movs	r0, r3
 1134 009e BD46     		mov	sp, r7
 1135 00a0 02B0     		add	sp, sp, #8
 1136              		@ sp needed
 1137 00a2 80BD     		pop	{r7, pc}
 1138              	.L65:
 1139              		.align	2
 1140              	.L64:
 1141 00a4 002C0140 		.word	1073818624
 1142 00a8 00400140 		.word	1073823744
 1143 00ac 00440140 		.word	1073824768
 1144 00b0 00480140 		.word	1073825792
 1145 00b4 11110000 		.word	4369
 1146 00b8 44040000 		.word	1092
 1147 00bc FF7FFFFF 		.word	-32769
 1148              		.cfi_endproc
 1149              	.LFE52:
 1151              		.section	.text.HAL_TIM_OC_Start_IT,"ax",%progbits
 1152              		.align	1
 1153              		.global	HAL_TIM_OC_Start_IT
 1154              		.syntax unified
 1155              		.code	16
 1156              		.thumb_func
 1157              		.fpu softvfp
 1159              	HAL_TIM_OC_Start_IT:
 1160              	.LFB53:
 636:cube/Drivers/STM32F0xx_HAL_Driver/Src/stm32f0xx_hal_tim.c **** 
 637:cube/Drivers/STM32F0xx_HAL_Driver/Src/stm32f0xx_hal_tim.c **** /**
 638:cube/Drivers/STM32F0xx_HAL_Driver/Src/stm32f0xx_hal_tim.c ****   * @brief  Starts the TIM Output Compare signal generation in interrupt mode.
 639:cube/Drivers/STM32F0xx_HAL_Driver/Src/stm32f0xx_hal_tim.c ****   * @param  htim TIM OC handle
 640:cube/Drivers/STM32F0xx_HAL_Driver/Src/stm32f0xx_hal_tim.c ****   * @param  Channel TIM Channel to be enabled
ARM GAS  /tmp/ccnYXliM.s 			page 32


 641:cube/Drivers/STM32F0xx_HAL_Driver/Src/stm32f0xx_hal_tim.c ****   *          This parameter can be one of the following values:
 642:cube/Drivers/STM32F0xx_HAL_Driver/Src/stm32f0xx_hal_tim.c ****   *            @arg TIM_CHANNEL_1: TIM Channel 1 selected
 643:cube/Drivers/STM32F0xx_HAL_Driver/Src/stm32f0xx_hal_tim.c ****   *            @arg TIM_CHANNEL_2: TIM Channel 2 selected
 644:cube/Drivers/STM32F0xx_HAL_Driver/Src/stm32f0xx_hal_tim.c ****   *            @arg TIM_CHANNEL_3: TIM Channel 3 selected
 645:cube/Drivers/STM32F0xx_HAL_Driver/Src/stm32f0xx_hal_tim.c ****   *            @arg TIM_CHANNEL_4: TIM Channel 4 selected
 646:cube/Drivers/STM32F0xx_HAL_Driver/Src/stm32f0xx_hal_tim.c ****   * @retval HAL status
 647:cube/Drivers/STM32F0xx_HAL_Driver/Src/stm32f0xx_hal_tim.c **** */
 648:cube/Drivers/STM32F0xx_HAL_Driver/Src/stm32f0xx_hal_tim.c **** HAL_StatusTypeDef HAL_TIM_OC_Start_IT(TIM_HandleTypeDef *htim, uint32_t Channel)
 649:cube/Drivers/STM32F0xx_HAL_Driver/Src/stm32f0xx_hal_tim.c **** {
 1161              		.loc 1 649 0
 1162              		.cfi_startproc
 1163              		@ args = 0, pretend = 0, frame = 8
 1164              		@ frame_needed = 1, uses_anonymous_args = 0
 1165 0000 80B5     		push	{r7, lr}
 1166              		.cfi_def_cfa_offset 8
 1167              		.cfi_offset 7, -8
 1168              		.cfi_offset 14, -4
 1169 0002 82B0     		sub	sp, sp, #8
 1170              		.cfi_def_cfa_offset 16
 1171 0004 00AF     		add	r7, sp, #0
 1172              		.cfi_def_cfa_register 7
 1173 0006 7860     		str	r0, [r7, #4]
 1174 0008 3960     		str	r1, [r7]
 650:cube/Drivers/STM32F0xx_HAL_Driver/Src/stm32f0xx_hal_tim.c ****   /* Check the parameters */
 651:cube/Drivers/STM32F0xx_HAL_Driver/Src/stm32f0xx_hal_tim.c ****   assert_param(IS_TIM_CCX_INSTANCE(htim->Instance, Channel));
 652:cube/Drivers/STM32F0xx_HAL_Driver/Src/stm32f0xx_hal_tim.c **** 
 653:cube/Drivers/STM32F0xx_HAL_Driver/Src/stm32f0xx_hal_tim.c ****   switch (Channel)
 1175              		.loc 1 653 0
 1176 000a 3B68     		ldr	r3, [r7]
 1177 000c 042B     		cmp	r3, #4
 1178 000e 11D0     		beq	.L68
 1179 0010 02D8     		bhi	.L69
 1180 0012 002B     		cmp	r3, #0
 1181 0014 05D0     		beq	.L70
 654:cube/Drivers/STM32F0xx_HAL_Driver/Src/stm32f0xx_hal_tim.c ****   {
 655:cube/Drivers/STM32F0xx_HAL_Driver/Src/stm32f0xx_hal_tim.c ****     case TIM_CHANNEL_1:
 656:cube/Drivers/STM32F0xx_HAL_Driver/Src/stm32f0xx_hal_tim.c ****     {
 657:cube/Drivers/STM32F0xx_HAL_Driver/Src/stm32f0xx_hal_tim.c ****       /* Enable the TIM Capture/Compare 1 interrupt */
 658:cube/Drivers/STM32F0xx_HAL_Driver/Src/stm32f0xx_hal_tim.c ****       __HAL_TIM_ENABLE_IT(htim, TIM_IT_CC1);
 659:cube/Drivers/STM32F0xx_HAL_Driver/Src/stm32f0xx_hal_tim.c ****     }
 660:cube/Drivers/STM32F0xx_HAL_Driver/Src/stm32f0xx_hal_tim.c ****     break;
 661:cube/Drivers/STM32F0xx_HAL_Driver/Src/stm32f0xx_hal_tim.c **** 
 662:cube/Drivers/STM32F0xx_HAL_Driver/Src/stm32f0xx_hal_tim.c ****     case TIM_CHANNEL_2:
 663:cube/Drivers/STM32F0xx_HAL_Driver/Src/stm32f0xx_hal_tim.c ****     {
 664:cube/Drivers/STM32F0xx_HAL_Driver/Src/stm32f0xx_hal_tim.c ****       /* Enable the TIM Capture/Compare 2 interrupt */
 665:cube/Drivers/STM32F0xx_HAL_Driver/Src/stm32f0xx_hal_tim.c ****       __HAL_TIM_ENABLE_IT(htim, TIM_IT_CC2);
 666:cube/Drivers/STM32F0xx_HAL_Driver/Src/stm32f0xx_hal_tim.c ****     }
 667:cube/Drivers/STM32F0xx_HAL_Driver/Src/stm32f0xx_hal_tim.c ****     break;
 668:cube/Drivers/STM32F0xx_HAL_Driver/Src/stm32f0xx_hal_tim.c **** 
 669:cube/Drivers/STM32F0xx_HAL_Driver/Src/stm32f0xx_hal_tim.c ****     case TIM_CHANNEL_3:
 670:cube/Drivers/STM32F0xx_HAL_Driver/Src/stm32f0xx_hal_tim.c ****     {
 671:cube/Drivers/STM32F0xx_HAL_Driver/Src/stm32f0xx_hal_tim.c ****       /* Enable the TIM Capture/Compare 3 interrupt */
 672:cube/Drivers/STM32F0xx_HAL_Driver/Src/stm32f0xx_hal_tim.c ****       __HAL_TIM_ENABLE_IT(htim, TIM_IT_CC3);
 673:cube/Drivers/STM32F0xx_HAL_Driver/Src/stm32f0xx_hal_tim.c ****     }
 674:cube/Drivers/STM32F0xx_HAL_Driver/Src/stm32f0xx_hal_tim.c ****     break;
 675:cube/Drivers/STM32F0xx_HAL_Driver/Src/stm32f0xx_hal_tim.c **** 
 676:cube/Drivers/STM32F0xx_HAL_Driver/Src/stm32f0xx_hal_tim.c ****     case TIM_CHANNEL_4:
ARM GAS  /tmp/ccnYXliM.s 			page 33


 677:cube/Drivers/STM32F0xx_HAL_Driver/Src/stm32f0xx_hal_tim.c ****     {
 678:cube/Drivers/STM32F0xx_HAL_Driver/Src/stm32f0xx_hal_tim.c ****       /* Enable the TIM Capture/Compare 4 interrupt */
 679:cube/Drivers/STM32F0xx_HAL_Driver/Src/stm32f0xx_hal_tim.c ****       __HAL_TIM_ENABLE_IT(htim, TIM_IT_CC4);
 680:cube/Drivers/STM32F0xx_HAL_Driver/Src/stm32f0xx_hal_tim.c ****     }
 681:cube/Drivers/STM32F0xx_HAL_Driver/Src/stm32f0xx_hal_tim.c ****     break;
 682:cube/Drivers/STM32F0xx_HAL_Driver/Src/stm32f0xx_hal_tim.c **** 
 683:cube/Drivers/STM32F0xx_HAL_Driver/Src/stm32f0xx_hal_tim.c ****     default:
 684:cube/Drivers/STM32F0xx_HAL_Driver/Src/stm32f0xx_hal_tim.c ****     break;
 1182              		.loc 1 684 0
 1183 0016 28E0     		b	.L73
 1184              	.L69:
 653:cube/Drivers/STM32F0xx_HAL_Driver/Src/stm32f0xx_hal_tim.c ****   {
 1185              		.loc 1 653 0
 1186 0018 082B     		cmp	r3, #8
 1187 001a 14D0     		beq	.L71
 1188 001c 0C2B     		cmp	r3, #12
 1189 001e 1BD0     		beq	.L72
 1190              		.loc 1 684 0
 1191 0020 23E0     		b	.L73
 1192              	.L70:
 658:cube/Drivers/STM32F0xx_HAL_Driver/Src/stm32f0xx_hal_tim.c ****     }
 1193              		.loc 1 658 0
 1194 0022 7B68     		ldr	r3, [r7, #4]
 1195 0024 1B68     		ldr	r3, [r3]
 1196 0026 DA68     		ldr	r2, [r3, #12]
 1197 0028 7B68     		ldr	r3, [r7, #4]
 1198 002a 1B68     		ldr	r3, [r3]
 1199 002c 0221     		movs	r1, #2
 1200 002e 0A43     		orrs	r2, r1
 1201 0030 DA60     		str	r2, [r3, #12]
 660:cube/Drivers/STM32F0xx_HAL_Driver/Src/stm32f0xx_hal_tim.c **** 
 1202              		.loc 1 660 0
 1203 0032 1AE0     		b	.L73
 1204              	.L68:
 665:cube/Drivers/STM32F0xx_HAL_Driver/Src/stm32f0xx_hal_tim.c ****     }
 1205              		.loc 1 665 0
 1206 0034 7B68     		ldr	r3, [r7, #4]
 1207 0036 1B68     		ldr	r3, [r3]
 1208 0038 DA68     		ldr	r2, [r3, #12]
 1209 003a 7B68     		ldr	r3, [r7, #4]
 1210 003c 1B68     		ldr	r3, [r3]
 1211 003e 0421     		movs	r1, #4
 1212 0040 0A43     		orrs	r2, r1
 1213 0042 DA60     		str	r2, [r3, #12]
 667:cube/Drivers/STM32F0xx_HAL_Driver/Src/stm32f0xx_hal_tim.c **** 
 1214              		.loc 1 667 0
 1215 0044 11E0     		b	.L73
 1216              	.L71:
 672:cube/Drivers/STM32F0xx_HAL_Driver/Src/stm32f0xx_hal_tim.c ****     }
 1217              		.loc 1 672 0
 1218 0046 7B68     		ldr	r3, [r7, #4]
 1219 0048 1B68     		ldr	r3, [r3]
 1220 004a DA68     		ldr	r2, [r3, #12]
 1221 004c 7B68     		ldr	r3, [r7, #4]
 1222 004e 1B68     		ldr	r3, [r3]
 1223 0050 0821     		movs	r1, #8
 1224 0052 0A43     		orrs	r2, r1
ARM GAS  /tmp/ccnYXliM.s 			page 34


 1225 0054 DA60     		str	r2, [r3, #12]
 674:cube/Drivers/STM32F0xx_HAL_Driver/Src/stm32f0xx_hal_tim.c **** 
 1226              		.loc 1 674 0
 1227 0056 08E0     		b	.L73
 1228              	.L72:
 679:cube/Drivers/STM32F0xx_HAL_Driver/Src/stm32f0xx_hal_tim.c ****     }
 1229              		.loc 1 679 0
 1230 0058 7B68     		ldr	r3, [r7, #4]
 1231 005a 1B68     		ldr	r3, [r3]
 1232 005c DA68     		ldr	r2, [r3, #12]
 1233 005e 7B68     		ldr	r3, [r7, #4]
 1234 0060 1B68     		ldr	r3, [r3]
 1235 0062 1021     		movs	r1, #16
 1236 0064 0A43     		orrs	r2, r1
 1237 0066 DA60     		str	r2, [r3, #12]
 681:cube/Drivers/STM32F0xx_HAL_Driver/Src/stm32f0xx_hal_tim.c **** 
 1238              		.loc 1 681 0
 1239 0068 C046     		nop
 1240              	.L73:
 685:cube/Drivers/STM32F0xx_HAL_Driver/Src/stm32f0xx_hal_tim.c ****   }
 686:cube/Drivers/STM32F0xx_HAL_Driver/Src/stm32f0xx_hal_tim.c **** 
 687:cube/Drivers/STM32F0xx_HAL_Driver/Src/stm32f0xx_hal_tim.c ****   /* Enable the Output compare channel */
 688:cube/Drivers/STM32F0xx_HAL_Driver/Src/stm32f0xx_hal_tim.c ****   TIM_CCxChannelCmd(htim->Instance, Channel, TIM_CCx_ENABLE);
 1241              		.loc 1 688 0
 1242 006a 7B68     		ldr	r3, [r7, #4]
 1243 006c 1B68     		ldr	r3, [r3]
 1244 006e 3968     		ldr	r1, [r7]
 1245 0070 0122     		movs	r2, #1
 1246 0072 1800     		movs	r0, r3
 1247 0074 FFF7FEFF 		bl	TIM_CCxChannelCmd
 689:cube/Drivers/STM32F0xx_HAL_Driver/Src/stm32f0xx_hal_tim.c **** 
 690:cube/Drivers/STM32F0xx_HAL_Driver/Src/stm32f0xx_hal_tim.c ****   if(IS_TIM_BREAK_INSTANCE(htim->Instance) != RESET)
 1248              		.loc 1 690 0
 1249 0078 7B68     		ldr	r3, [r7, #4]
 1250 007a 1B68     		ldr	r3, [r3]
 1251 007c 164A     		ldr	r2, .L79
 1252 007e 9342     		cmp	r3, r2
 1253 0080 0ED0     		beq	.L74
 1254              		.loc 1 690 0 is_stmt 0 discriminator 2
 1255 0082 7B68     		ldr	r3, [r7, #4]
 1256 0084 1B68     		ldr	r3, [r3]
 1257 0086 154A     		ldr	r2, .L79+4
 1258 0088 9342     		cmp	r3, r2
 1259 008a 09D0     		beq	.L74
 1260              		.loc 1 690 0 discriminator 4
 1261 008c 7B68     		ldr	r3, [r7, #4]
 1262 008e 1B68     		ldr	r3, [r3]
 1263 0090 134A     		ldr	r2, .L79+8
 1264 0092 9342     		cmp	r3, r2
 1265 0094 04D0     		beq	.L74
 1266              		.loc 1 690 0 discriminator 6
 1267 0096 7B68     		ldr	r3, [r7, #4]
 1268 0098 1B68     		ldr	r3, [r3]
 1269 009a 124A     		ldr	r2, .L79+12
 1270 009c 9342     		cmp	r3, r2
 1271 009e 01D1     		bne	.L75
 1272              	.L74:
ARM GAS  /tmp/ccnYXliM.s 			page 35


 1273              		.loc 1 690 0 discriminator 7
 1274 00a0 0123     		movs	r3, #1
 1275 00a2 00E0     		b	.L76
 1276              	.L75:
 1277              		.loc 1 690 0 discriminator 8
 1278 00a4 0023     		movs	r3, #0
 1279              	.L76:
 1280              		.loc 1 690 0 discriminator 10
 1281 00a6 002B     		cmp	r3, #0
 1282 00a8 08D0     		beq	.L77
 691:cube/Drivers/STM32F0xx_HAL_Driver/Src/stm32f0xx_hal_tim.c ****   {
 692:cube/Drivers/STM32F0xx_HAL_Driver/Src/stm32f0xx_hal_tim.c ****     /* Enable the main output */
 693:cube/Drivers/STM32F0xx_HAL_Driver/Src/stm32f0xx_hal_tim.c ****     __HAL_TIM_MOE_ENABLE(htim);
 1283              		.loc 1 693 0 is_stmt 1
 1284 00aa 7B68     		ldr	r3, [r7, #4]
 1285 00ac 1B68     		ldr	r3, [r3]
 1286 00ae 5A6C     		ldr	r2, [r3, #68]
 1287 00b0 7B68     		ldr	r3, [r7, #4]
 1288 00b2 1B68     		ldr	r3, [r3]
 1289 00b4 8021     		movs	r1, #128
 1290 00b6 0902     		lsls	r1, r1, #8
 1291 00b8 0A43     		orrs	r2, r1
 1292 00ba 5A64     		str	r2, [r3, #68]
 1293              	.L77:
 694:cube/Drivers/STM32F0xx_HAL_Driver/Src/stm32f0xx_hal_tim.c ****   }
 695:cube/Drivers/STM32F0xx_HAL_Driver/Src/stm32f0xx_hal_tim.c **** 
 696:cube/Drivers/STM32F0xx_HAL_Driver/Src/stm32f0xx_hal_tim.c ****   /* Enable the Peripheral */
 697:cube/Drivers/STM32F0xx_HAL_Driver/Src/stm32f0xx_hal_tim.c ****   __HAL_TIM_ENABLE(htim);
 1294              		.loc 1 697 0
 1295 00bc 7B68     		ldr	r3, [r7, #4]
 1296 00be 1B68     		ldr	r3, [r3]
 1297 00c0 1A68     		ldr	r2, [r3]
 1298 00c2 7B68     		ldr	r3, [r7, #4]
 1299 00c4 1B68     		ldr	r3, [r3]
 1300 00c6 0121     		movs	r1, #1
 1301 00c8 0A43     		orrs	r2, r1
 1302 00ca 1A60     		str	r2, [r3]
 698:cube/Drivers/STM32F0xx_HAL_Driver/Src/stm32f0xx_hal_tim.c **** 
 699:cube/Drivers/STM32F0xx_HAL_Driver/Src/stm32f0xx_hal_tim.c ****   /* Return function status */
 700:cube/Drivers/STM32F0xx_HAL_Driver/Src/stm32f0xx_hal_tim.c ****   return HAL_OK;
 1303              		.loc 1 700 0
 1304 00cc 0023     		movs	r3, #0
 701:cube/Drivers/STM32F0xx_HAL_Driver/Src/stm32f0xx_hal_tim.c **** }
 1305              		.loc 1 701 0
 1306 00ce 1800     		movs	r0, r3
 1307 00d0 BD46     		mov	sp, r7
 1308 00d2 02B0     		add	sp, sp, #8
 1309              		@ sp needed
 1310 00d4 80BD     		pop	{r7, pc}
 1311              	.L80:
 1312 00d6 C046     		.align	2
 1313              	.L79:
 1314 00d8 002C0140 		.word	1073818624
 1315 00dc 00400140 		.word	1073823744
 1316 00e0 00440140 		.word	1073824768
 1317 00e4 00480140 		.word	1073825792
 1318              		.cfi_endproc
ARM GAS  /tmp/ccnYXliM.s 			page 36


 1319              	.LFE53:
 1321              		.section	.text.HAL_TIM_OC_Stop_IT,"ax",%progbits
 1322              		.align	1
 1323              		.global	HAL_TIM_OC_Stop_IT
 1324              		.syntax unified
 1325              		.code	16
 1326              		.thumb_func
 1327              		.fpu softvfp
 1329              	HAL_TIM_OC_Stop_IT:
 1330              	.LFB54:
 702:cube/Drivers/STM32F0xx_HAL_Driver/Src/stm32f0xx_hal_tim.c **** 
 703:cube/Drivers/STM32F0xx_HAL_Driver/Src/stm32f0xx_hal_tim.c **** /**
 704:cube/Drivers/STM32F0xx_HAL_Driver/Src/stm32f0xx_hal_tim.c ****   * @brief  Stops the TIM Output Compare signal generation in interrupt mode.
 705:cube/Drivers/STM32F0xx_HAL_Driver/Src/stm32f0xx_hal_tim.c ****   * @param  htim TIM Output Compare handle
 706:cube/Drivers/STM32F0xx_HAL_Driver/Src/stm32f0xx_hal_tim.c ****   * @param  Channel TIM Channel to be disabled
 707:cube/Drivers/STM32F0xx_HAL_Driver/Src/stm32f0xx_hal_tim.c ****   *          This parameter can be one of the following values:
 708:cube/Drivers/STM32F0xx_HAL_Driver/Src/stm32f0xx_hal_tim.c ****   *            @arg TIM_CHANNEL_1: TIM Channel 1 selected
 709:cube/Drivers/STM32F0xx_HAL_Driver/Src/stm32f0xx_hal_tim.c ****   *            @arg TIM_CHANNEL_2: TIM Channel 2 selected
 710:cube/Drivers/STM32F0xx_HAL_Driver/Src/stm32f0xx_hal_tim.c ****   *            @arg TIM_CHANNEL_3: TIM Channel 3 selected
 711:cube/Drivers/STM32F0xx_HAL_Driver/Src/stm32f0xx_hal_tim.c ****   *            @arg TIM_CHANNEL_4: TIM Channel 4 selected
 712:cube/Drivers/STM32F0xx_HAL_Driver/Src/stm32f0xx_hal_tim.c ****   * @retval HAL status
 713:cube/Drivers/STM32F0xx_HAL_Driver/Src/stm32f0xx_hal_tim.c **** */
 714:cube/Drivers/STM32F0xx_HAL_Driver/Src/stm32f0xx_hal_tim.c **** HAL_StatusTypeDef HAL_TIM_OC_Stop_IT(TIM_HandleTypeDef *htim, uint32_t Channel)
 715:cube/Drivers/STM32F0xx_HAL_Driver/Src/stm32f0xx_hal_tim.c **** {
 1331              		.loc 1 715 0
 1332              		.cfi_startproc
 1333              		@ args = 0, pretend = 0, frame = 8
 1334              		@ frame_needed = 1, uses_anonymous_args = 0
 1335 0000 80B5     		push	{r7, lr}
 1336              		.cfi_def_cfa_offset 8
 1337              		.cfi_offset 7, -8
 1338              		.cfi_offset 14, -4
 1339 0002 82B0     		sub	sp, sp, #8
 1340              		.cfi_def_cfa_offset 16
 1341 0004 00AF     		add	r7, sp, #0
 1342              		.cfi_def_cfa_register 7
 1343 0006 7860     		str	r0, [r7, #4]
 1344 0008 3960     		str	r1, [r7]
 716:cube/Drivers/STM32F0xx_HAL_Driver/Src/stm32f0xx_hal_tim.c ****   /* Check the parameters */
 717:cube/Drivers/STM32F0xx_HAL_Driver/Src/stm32f0xx_hal_tim.c ****   assert_param(IS_TIM_CCX_INSTANCE(htim->Instance, Channel));
 718:cube/Drivers/STM32F0xx_HAL_Driver/Src/stm32f0xx_hal_tim.c **** 
 719:cube/Drivers/STM32F0xx_HAL_Driver/Src/stm32f0xx_hal_tim.c ****   switch (Channel)
 1345              		.loc 1 719 0
 1346 000a 3B68     		ldr	r3, [r7]
 1347 000c 042B     		cmp	r3, #4
 1348 000e 11D0     		beq	.L83
 1349 0010 02D8     		bhi	.L84
 1350 0012 002B     		cmp	r3, #0
 1351 0014 05D0     		beq	.L85
 720:cube/Drivers/STM32F0xx_HAL_Driver/Src/stm32f0xx_hal_tim.c ****   {
 721:cube/Drivers/STM32F0xx_HAL_Driver/Src/stm32f0xx_hal_tim.c ****     case TIM_CHANNEL_1:
 722:cube/Drivers/STM32F0xx_HAL_Driver/Src/stm32f0xx_hal_tim.c ****     {
 723:cube/Drivers/STM32F0xx_HAL_Driver/Src/stm32f0xx_hal_tim.c ****       /* Disable the TIM Capture/Compare 1 interrupt */
 724:cube/Drivers/STM32F0xx_HAL_Driver/Src/stm32f0xx_hal_tim.c ****       __HAL_TIM_DISABLE_IT(htim, TIM_IT_CC1);
 725:cube/Drivers/STM32F0xx_HAL_Driver/Src/stm32f0xx_hal_tim.c ****     }
 726:cube/Drivers/STM32F0xx_HAL_Driver/Src/stm32f0xx_hal_tim.c ****     break;
 727:cube/Drivers/STM32F0xx_HAL_Driver/Src/stm32f0xx_hal_tim.c **** 
ARM GAS  /tmp/ccnYXliM.s 			page 37


 728:cube/Drivers/STM32F0xx_HAL_Driver/Src/stm32f0xx_hal_tim.c ****     case TIM_CHANNEL_2:
 729:cube/Drivers/STM32F0xx_HAL_Driver/Src/stm32f0xx_hal_tim.c ****     {
 730:cube/Drivers/STM32F0xx_HAL_Driver/Src/stm32f0xx_hal_tim.c ****       /* Disable the TIM Capture/Compare 2 interrupt */
 731:cube/Drivers/STM32F0xx_HAL_Driver/Src/stm32f0xx_hal_tim.c ****       __HAL_TIM_DISABLE_IT(htim, TIM_IT_CC2);
 732:cube/Drivers/STM32F0xx_HAL_Driver/Src/stm32f0xx_hal_tim.c ****     }
 733:cube/Drivers/STM32F0xx_HAL_Driver/Src/stm32f0xx_hal_tim.c ****     break;
 734:cube/Drivers/STM32F0xx_HAL_Driver/Src/stm32f0xx_hal_tim.c **** 
 735:cube/Drivers/STM32F0xx_HAL_Driver/Src/stm32f0xx_hal_tim.c ****     case TIM_CHANNEL_3:
 736:cube/Drivers/STM32F0xx_HAL_Driver/Src/stm32f0xx_hal_tim.c ****     {
 737:cube/Drivers/STM32F0xx_HAL_Driver/Src/stm32f0xx_hal_tim.c ****       /* Disable the TIM Capture/Compare 3 interrupt */
 738:cube/Drivers/STM32F0xx_HAL_Driver/Src/stm32f0xx_hal_tim.c ****       __HAL_TIM_DISABLE_IT(htim, TIM_IT_CC3);
 739:cube/Drivers/STM32F0xx_HAL_Driver/Src/stm32f0xx_hal_tim.c ****     }
 740:cube/Drivers/STM32F0xx_HAL_Driver/Src/stm32f0xx_hal_tim.c ****     break;
 741:cube/Drivers/STM32F0xx_HAL_Driver/Src/stm32f0xx_hal_tim.c **** 
 742:cube/Drivers/STM32F0xx_HAL_Driver/Src/stm32f0xx_hal_tim.c ****     case TIM_CHANNEL_4:
 743:cube/Drivers/STM32F0xx_HAL_Driver/Src/stm32f0xx_hal_tim.c ****     {
 744:cube/Drivers/STM32F0xx_HAL_Driver/Src/stm32f0xx_hal_tim.c ****       /* Disable the TIM Capture/Compare 4 interrupt */
 745:cube/Drivers/STM32F0xx_HAL_Driver/Src/stm32f0xx_hal_tim.c ****       __HAL_TIM_DISABLE_IT(htim, TIM_IT_CC4);
 746:cube/Drivers/STM32F0xx_HAL_Driver/Src/stm32f0xx_hal_tim.c ****     }
 747:cube/Drivers/STM32F0xx_HAL_Driver/Src/stm32f0xx_hal_tim.c ****     break;
 748:cube/Drivers/STM32F0xx_HAL_Driver/Src/stm32f0xx_hal_tim.c **** 
 749:cube/Drivers/STM32F0xx_HAL_Driver/Src/stm32f0xx_hal_tim.c ****     default:
 750:cube/Drivers/STM32F0xx_HAL_Driver/Src/stm32f0xx_hal_tim.c ****     break;
 1352              		.loc 1 750 0
 1353 0016 28E0     		b	.L88
 1354              	.L84:
 719:cube/Drivers/STM32F0xx_HAL_Driver/Src/stm32f0xx_hal_tim.c ****   {
 1355              		.loc 1 719 0
 1356 0018 082B     		cmp	r3, #8
 1357 001a 14D0     		beq	.L86
 1358 001c 0C2B     		cmp	r3, #12
 1359 001e 1BD0     		beq	.L87
 1360              		.loc 1 750 0
 1361 0020 23E0     		b	.L88
 1362              	.L85:
 724:cube/Drivers/STM32F0xx_HAL_Driver/Src/stm32f0xx_hal_tim.c ****     }
 1363              		.loc 1 724 0
 1364 0022 7B68     		ldr	r3, [r7, #4]
 1365 0024 1B68     		ldr	r3, [r3]
 1366 0026 DA68     		ldr	r2, [r3, #12]
 1367 0028 7B68     		ldr	r3, [r7, #4]
 1368 002a 1B68     		ldr	r3, [r3]
 1369 002c 0221     		movs	r1, #2
 1370 002e 8A43     		bics	r2, r1
 1371 0030 DA60     		str	r2, [r3, #12]
 726:cube/Drivers/STM32F0xx_HAL_Driver/Src/stm32f0xx_hal_tim.c **** 
 1372              		.loc 1 726 0
 1373 0032 1AE0     		b	.L88
 1374              	.L83:
 731:cube/Drivers/STM32F0xx_HAL_Driver/Src/stm32f0xx_hal_tim.c ****     }
 1375              		.loc 1 731 0
 1376 0034 7B68     		ldr	r3, [r7, #4]
 1377 0036 1B68     		ldr	r3, [r3]
 1378 0038 DA68     		ldr	r2, [r3, #12]
 1379 003a 7B68     		ldr	r3, [r7, #4]
 1380 003c 1B68     		ldr	r3, [r3]
 1381 003e 0421     		movs	r1, #4
ARM GAS  /tmp/ccnYXliM.s 			page 38


 1382 0040 8A43     		bics	r2, r1
 1383 0042 DA60     		str	r2, [r3, #12]
 733:cube/Drivers/STM32F0xx_HAL_Driver/Src/stm32f0xx_hal_tim.c **** 
 1384              		.loc 1 733 0
 1385 0044 11E0     		b	.L88
 1386              	.L86:
 738:cube/Drivers/STM32F0xx_HAL_Driver/Src/stm32f0xx_hal_tim.c ****     }
 1387              		.loc 1 738 0
 1388 0046 7B68     		ldr	r3, [r7, #4]
 1389 0048 1B68     		ldr	r3, [r3]
 1390 004a DA68     		ldr	r2, [r3, #12]
 1391 004c 7B68     		ldr	r3, [r7, #4]
 1392 004e 1B68     		ldr	r3, [r3]
 1393 0050 0821     		movs	r1, #8
 1394 0052 8A43     		bics	r2, r1
 1395 0054 DA60     		str	r2, [r3, #12]
 740:cube/Drivers/STM32F0xx_HAL_Driver/Src/stm32f0xx_hal_tim.c **** 
 1396              		.loc 1 740 0
 1397 0056 08E0     		b	.L88
 1398              	.L87:
 745:cube/Drivers/STM32F0xx_HAL_Driver/Src/stm32f0xx_hal_tim.c ****     }
 1399              		.loc 1 745 0
 1400 0058 7B68     		ldr	r3, [r7, #4]
 1401 005a 1B68     		ldr	r3, [r3]
 1402 005c DA68     		ldr	r2, [r3, #12]
 1403 005e 7B68     		ldr	r3, [r7, #4]
 1404 0060 1B68     		ldr	r3, [r3]
 1405 0062 1021     		movs	r1, #16
 1406 0064 8A43     		bics	r2, r1
 1407 0066 DA60     		str	r2, [r3, #12]
 747:cube/Drivers/STM32F0xx_HAL_Driver/Src/stm32f0xx_hal_tim.c **** 
 1408              		.loc 1 747 0
 1409 0068 C046     		nop
 1410              	.L88:
 751:cube/Drivers/STM32F0xx_HAL_Driver/Src/stm32f0xx_hal_tim.c ****   }
 752:cube/Drivers/STM32F0xx_HAL_Driver/Src/stm32f0xx_hal_tim.c **** 
 753:cube/Drivers/STM32F0xx_HAL_Driver/Src/stm32f0xx_hal_tim.c ****   /* Disable the Output compare channel */
 754:cube/Drivers/STM32F0xx_HAL_Driver/Src/stm32f0xx_hal_tim.c ****   TIM_CCxChannelCmd(htim->Instance, Channel, TIM_CCx_DISABLE);
 1411              		.loc 1 754 0
 1412 006a 7B68     		ldr	r3, [r7, #4]
 1413 006c 1B68     		ldr	r3, [r3]
 1414 006e 3968     		ldr	r1, [r7]
 1415 0070 0022     		movs	r2, #0
 1416 0072 1800     		movs	r0, r3
 1417 0074 FFF7FEFF 		bl	TIM_CCxChannelCmd
 755:cube/Drivers/STM32F0xx_HAL_Driver/Src/stm32f0xx_hal_tim.c **** 
 756:cube/Drivers/STM32F0xx_HAL_Driver/Src/stm32f0xx_hal_tim.c ****   if(IS_TIM_BREAK_INSTANCE(htim->Instance) != RESET)
 1418              		.loc 1 756 0
 1419 0078 7B68     		ldr	r3, [r7, #4]
 1420 007a 1B68     		ldr	r3, [r3]
 1421 007c 214A     		ldr	r2, .L95
 1422 007e 9342     		cmp	r3, r2
 1423 0080 0ED0     		beq	.L89
 1424              		.loc 1 756 0 is_stmt 0 discriminator 2
 1425 0082 7B68     		ldr	r3, [r7, #4]
 1426 0084 1B68     		ldr	r3, [r3]
 1427 0086 204A     		ldr	r2, .L95+4
ARM GAS  /tmp/ccnYXliM.s 			page 39


 1428 0088 9342     		cmp	r3, r2
 1429 008a 09D0     		beq	.L89
 1430              		.loc 1 756 0 discriminator 4
 1431 008c 7B68     		ldr	r3, [r7, #4]
 1432 008e 1B68     		ldr	r3, [r3]
 1433 0090 1E4A     		ldr	r2, .L95+8
 1434 0092 9342     		cmp	r3, r2
 1435 0094 04D0     		beq	.L89
 1436              		.loc 1 756 0 discriminator 6
 1437 0096 7B68     		ldr	r3, [r7, #4]
 1438 0098 1B68     		ldr	r3, [r3]
 1439 009a 1D4A     		ldr	r2, .L95+12
 1440 009c 9342     		cmp	r3, r2
 1441 009e 01D1     		bne	.L90
 1442              	.L89:
 1443              		.loc 1 756 0 discriminator 7
 1444 00a0 0123     		movs	r3, #1
 1445 00a2 00E0     		b	.L91
 1446              	.L90:
 1447              		.loc 1 756 0 discriminator 8
 1448 00a4 0023     		movs	r3, #0
 1449              	.L91:
 1450              		.loc 1 756 0 discriminator 10
 1451 00a6 002B     		cmp	r3, #0
 1452 00a8 13D0     		beq	.L92
 757:cube/Drivers/STM32F0xx_HAL_Driver/Src/stm32f0xx_hal_tim.c ****   {
 758:cube/Drivers/STM32F0xx_HAL_Driver/Src/stm32f0xx_hal_tim.c ****     /* Disable the Main Ouput */
 759:cube/Drivers/STM32F0xx_HAL_Driver/Src/stm32f0xx_hal_tim.c ****     __HAL_TIM_MOE_DISABLE(htim);
 1453              		.loc 1 759 0 is_stmt 1
 1454 00aa 7B68     		ldr	r3, [r7, #4]
 1455 00ac 1B68     		ldr	r3, [r3]
 1456 00ae 1B6A     		ldr	r3, [r3, #32]
 1457 00b0 184A     		ldr	r2, .L95+16
 1458 00b2 1340     		ands	r3, r2
 1459 00b4 0DD1     		bne	.L92
 1460              		.loc 1 759 0 is_stmt 0 discriminator 1
 1461 00b6 7B68     		ldr	r3, [r7, #4]
 1462 00b8 1B68     		ldr	r3, [r3]
 1463 00ba 1B6A     		ldr	r3, [r3, #32]
 1464 00bc 164A     		ldr	r2, .L95+20
 1465 00be 1340     		ands	r3, r2
 1466 00c0 07D1     		bne	.L92
 1467              		.loc 1 759 0 discriminator 2
 1468 00c2 7B68     		ldr	r3, [r7, #4]
 1469 00c4 1B68     		ldr	r3, [r3]
 1470 00c6 5A6C     		ldr	r2, [r3, #68]
 1471 00c8 7B68     		ldr	r3, [r7, #4]
 1472 00ca 1B68     		ldr	r3, [r3]
 1473 00cc 1349     		ldr	r1, .L95+24
 1474 00ce 0A40     		ands	r2, r1
 1475 00d0 5A64     		str	r2, [r3, #68]
 1476              	.L92:
 760:cube/Drivers/STM32F0xx_HAL_Driver/Src/stm32f0xx_hal_tim.c ****   }
 761:cube/Drivers/STM32F0xx_HAL_Driver/Src/stm32f0xx_hal_tim.c **** 
 762:cube/Drivers/STM32F0xx_HAL_Driver/Src/stm32f0xx_hal_tim.c ****   /* Disable the Peripheral */
 763:cube/Drivers/STM32F0xx_HAL_Driver/Src/stm32f0xx_hal_tim.c ****   __HAL_TIM_DISABLE(htim);
 1477              		.loc 1 763 0 is_stmt 1
ARM GAS  /tmp/ccnYXliM.s 			page 40


 1478 00d2 7B68     		ldr	r3, [r7, #4]
 1479 00d4 1B68     		ldr	r3, [r3]
 1480 00d6 1B6A     		ldr	r3, [r3, #32]
 1481 00d8 0E4A     		ldr	r2, .L95+16
 1482 00da 1340     		ands	r3, r2
 1483 00dc 0DD1     		bne	.L93
 1484              		.loc 1 763 0 is_stmt 0 discriminator 1
 1485 00de 7B68     		ldr	r3, [r7, #4]
 1486 00e0 1B68     		ldr	r3, [r3]
 1487 00e2 1B6A     		ldr	r3, [r3, #32]
 1488 00e4 0C4A     		ldr	r2, .L95+20
 1489 00e6 1340     		ands	r3, r2
 1490 00e8 07D1     		bne	.L93
 1491              		.loc 1 763 0 discriminator 2
 1492 00ea 7B68     		ldr	r3, [r7, #4]
 1493 00ec 1B68     		ldr	r3, [r3]
 1494 00ee 1A68     		ldr	r2, [r3]
 1495 00f0 7B68     		ldr	r3, [r7, #4]
 1496 00f2 1B68     		ldr	r3, [r3]
 1497 00f4 0121     		movs	r1, #1
 1498 00f6 8A43     		bics	r2, r1
 1499 00f8 1A60     		str	r2, [r3]
 1500              	.L93:
 764:cube/Drivers/STM32F0xx_HAL_Driver/Src/stm32f0xx_hal_tim.c **** 
 765:cube/Drivers/STM32F0xx_HAL_Driver/Src/stm32f0xx_hal_tim.c ****   /* Return function status */
 766:cube/Drivers/STM32F0xx_HAL_Driver/Src/stm32f0xx_hal_tim.c ****   return HAL_OK;
 1501              		.loc 1 766 0 is_stmt 1
 1502 00fa 0023     		movs	r3, #0
 767:cube/Drivers/STM32F0xx_HAL_Driver/Src/stm32f0xx_hal_tim.c **** }
 1503              		.loc 1 767 0
 1504 00fc 1800     		movs	r0, r3
 1505 00fe BD46     		mov	sp, r7
 1506 0100 02B0     		add	sp, sp, #8
 1507              		@ sp needed
 1508 0102 80BD     		pop	{r7, pc}
 1509              	.L96:
 1510              		.align	2
 1511              	.L95:
 1512 0104 002C0140 		.word	1073818624
 1513 0108 00400140 		.word	1073823744
 1514 010c 00440140 		.word	1073824768
 1515 0110 00480140 		.word	1073825792
 1516 0114 11110000 		.word	4369
 1517 0118 44040000 		.word	1092
 1518 011c FF7FFFFF 		.word	-32769
 1519              		.cfi_endproc
 1520              	.LFE54:
 1522              		.section	.text.HAL_TIM_OC_Start_DMA,"ax",%progbits
 1523              		.align	1
 1524              		.global	HAL_TIM_OC_Start_DMA
 1525              		.syntax unified
 1526              		.code	16
 1527              		.thumb_func
 1528              		.fpu softvfp
 1530              	HAL_TIM_OC_Start_DMA:
 1531              	.LFB55:
 768:cube/Drivers/STM32F0xx_HAL_Driver/Src/stm32f0xx_hal_tim.c **** 
ARM GAS  /tmp/ccnYXliM.s 			page 41


 769:cube/Drivers/STM32F0xx_HAL_Driver/Src/stm32f0xx_hal_tim.c **** /**
 770:cube/Drivers/STM32F0xx_HAL_Driver/Src/stm32f0xx_hal_tim.c ****   * @brief  Starts the TIM Output Compare signal generation in DMA mode.
 771:cube/Drivers/STM32F0xx_HAL_Driver/Src/stm32f0xx_hal_tim.c ****   * @param  htim TIM Output Compare handle
 772:cube/Drivers/STM32F0xx_HAL_Driver/Src/stm32f0xx_hal_tim.c ****   * @param  Channel TIM Channel to be enabled
 773:cube/Drivers/STM32F0xx_HAL_Driver/Src/stm32f0xx_hal_tim.c ****   *          This parameter can be one of the following values:
 774:cube/Drivers/STM32F0xx_HAL_Driver/Src/stm32f0xx_hal_tim.c ****   *            @arg TIM_CHANNEL_1: TIM Channel 1 selected
 775:cube/Drivers/STM32F0xx_HAL_Driver/Src/stm32f0xx_hal_tim.c ****   *            @arg TIM_CHANNEL_2: TIM Channel 2 selected
 776:cube/Drivers/STM32F0xx_HAL_Driver/Src/stm32f0xx_hal_tim.c ****   *            @arg TIM_CHANNEL_3: TIM Channel 3 selected
 777:cube/Drivers/STM32F0xx_HAL_Driver/Src/stm32f0xx_hal_tim.c ****   *            @arg TIM_CHANNEL_4: TIM Channel 4 selected
 778:cube/Drivers/STM32F0xx_HAL_Driver/Src/stm32f0xx_hal_tim.c ****   * @param  pData The source Buffer address.
 779:cube/Drivers/STM32F0xx_HAL_Driver/Src/stm32f0xx_hal_tim.c ****   * @param  Length The length of data to be transferred from memory to TIM peripheral
 780:cube/Drivers/STM32F0xx_HAL_Driver/Src/stm32f0xx_hal_tim.c ****   * @retval HAL status
 781:cube/Drivers/STM32F0xx_HAL_Driver/Src/stm32f0xx_hal_tim.c **** */
 782:cube/Drivers/STM32F0xx_HAL_Driver/Src/stm32f0xx_hal_tim.c **** HAL_StatusTypeDef HAL_TIM_OC_Start_DMA(TIM_HandleTypeDef *htim, uint32_t Channel, uint32_t *pData, 
 783:cube/Drivers/STM32F0xx_HAL_Driver/Src/stm32f0xx_hal_tim.c **** {
 1532              		.loc 1 783 0
 1533              		.cfi_startproc
 1534              		@ args = 0, pretend = 0, frame = 16
 1535              		@ frame_needed = 1, uses_anonymous_args = 0
 1536 0000 80B5     		push	{r7, lr}
 1537              		.cfi_def_cfa_offset 8
 1538              		.cfi_offset 7, -8
 1539              		.cfi_offset 14, -4
 1540 0002 84B0     		sub	sp, sp, #16
 1541              		.cfi_def_cfa_offset 24
 1542 0004 00AF     		add	r7, sp, #0
 1543              		.cfi_def_cfa_register 7
 1544 0006 F860     		str	r0, [r7, #12]
 1545 0008 B960     		str	r1, [r7, #8]
 1546 000a 7A60     		str	r2, [r7, #4]
 1547 000c 1A00     		movs	r2, r3
 1548 000e BB1C     		adds	r3, r7, #2
 1549 0010 1A80     		strh	r2, [r3]
 784:cube/Drivers/STM32F0xx_HAL_Driver/Src/stm32f0xx_hal_tim.c ****   /* Check the parameters */
 785:cube/Drivers/STM32F0xx_HAL_Driver/Src/stm32f0xx_hal_tim.c ****   assert_param(IS_TIM_CCX_INSTANCE(htim->Instance, Channel));
 786:cube/Drivers/STM32F0xx_HAL_Driver/Src/stm32f0xx_hal_tim.c **** 
 787:cube/Drivers/STM32F0xx_HAL_Driver/Src/stm32f0xx_hal_tim.c ****   if((htim->State == HAL_TIM_STATE_BUSY))
 1550              		.loc 1 787 0
 1551 0012 FB68     		ldr	r3, [r7, #12]
 1552 0014 3D22     		movs	r2, #61
 1553 0016 9B5C     		ldrb	r3, [r3, r2]
 1554 0018 DBB2     		uxtb	r3, r3
 1555 001a 022B     		cmp	r3, #2
 1556 001c 01D1     		bne	.L98
 788:cube/Drivers/STM32F0xx_HAL_Driver/Src/stm32f0xx_hal_tim.c ****   {
 789:cube/Drivers/STM32F0xx_HAL_Driver/Src/stm32f0xx_hal_tim.c ****      return HAL_BUSY;
 1557              		.loc 1 789 0
 1558 001e 0223     		movs	r3, #2
 1559 0020 C4E0     		b	.L99
 1560              	.L98:
 790:cube/Drivers/STM32F0xx_HAL_Driver/Src/stm32f0xx_hal_tim.c ****   }
 791:cube/Drivers/STM32F0xx_HAL_Driver/Src/stm32f0xx_hal_tim.c ****   else if((htim->State == HAL_TIM_STATE_READY))
 1561              		.loc 1 791 0
 1562 0022 FB68     		ldr	r3, [r7, #12]
 1563 0024 3D22     		movs	r2, #61
 1564 0026 9B5C     		ldrb	r3, [r3, r2]
 1565 0028 DBB2     		uxtb	r3, r3
ARM GAS  /tmp/ccnYXliM.s 			page 42


 1566 002a 012B     		cmp	r3, #1
 1567 002c 0CD1     		bne	.L100
 792:cube/Drivers/STM32F0xx_HAL_Driver/Src/stm32f0xx_hal_tim.c ****   {
 793:cube/Drivers/STM32F0xx_HAL_Driver/Src/stm32f0xx_hal_tim.c ****     if(((uint32_t)pData == 0U ) && (Length > 0U))
 1568              		.loc 1 793 0
 1569 002e 7B68     		ldr	r3, [r7, #4]
 1570 0030 002B     		cmp	r3, #0
 1571 0032 05D1     		bne	.L101
 1572              		.loc 1 793 0 is_stmt 0 discriminator 1
 1573 0034 BB1C     		adds	r3, r7, #2
 1574 0036 1B88     		ldrh	r3, [r3]
 1575 0038 002B     		cmp	r3, #0
 1576 003a 01D0     		beq	.L101
 794:cube/Drivers/STM32F0xx_HAL_Driver/Src/stm32f0xx_hal_tim.c ****     {
 795:cube/Drivers/STM32F0xx_HAL_Driver/Src/stm32f0xx_hal_tim.c ****       return HAL_ERROR;
 1577              		.loc 1 795 0 is_stmt 1
 1578 003c 0123     		movs	r3, #1
 1579 003e B5E0     		b	.L99
 1580              	.L101:
 796:cube/Drivers/STM32F0xx_HAL_Driver/Src/stm32f0xx_hal_tim.c ****     }
 797:cube/Drivers/STM32F0xx_HAL_Driver/Src/stm32f0xx_hal_tim.c ****     else
 798:cube/Drivers/STM32F0xx_HAL_Driver/Src/stm32f0xx_hal_tim.c ****     {
 799:cube/Drivers/STM32F0xx_HAL_Driver/Src/stm32f0xx_hal_tim.c ****       htim->State = HAL_TIM_STATE_BUSY;
 1581              		.loc 1 799 0
 1582 0040 FB68     		ldr	r3, [r7, #12]
 1583 0042 3D22     		movs	r2, #61
 1584 0044 0221     		movs	r1, #2
 1585 0046 9954     		strb	r1, [r3, r2]
 1586              	.L100:
 800:cube/Drivers/STM32F0xx_HAL_Driver/Src/stm32f0xx_hal_tim.c ****     }
 801:cube/Drivers/STM32F0xx_HAL_Driver/Src/stm32f0xx_hal_tim.c ****   }
 802:cube/Drivers/STM32F0xx_HAL_Driver/Src/stm32f0xx_hal_tim.c ****   switch (Channel)
 1587              		.loc 1 802 0
 1588 0048 BB68     		ldr	r3, [r7, #8]
 1589 004a 042B     		cmp	r3, #4
 1590 004c 25D0     		beq	.L103
 1591 004e 02D8     		bhi	.L104
 1592 0050 002B     		cmp	r3, #0
 1593 0052 05D0     		beq	.L105
 803:cube/Drivers/STM32F0xx_HAL_Driver/Src/stm32f0xx_hal_tim.c ****   {
 804:cube/Drivers/STM32F0xx_HAL_Driver/Src/stm32f0xx_hal_tim.c ****     case TIM_CHANNEL_1:
 805:cube/Drivers/STM32F0xx_HAL_Driver/Src/stm32f0xx_hal_tim.c ****     {
 806:cube/Drivers/STM32F0xx_HAL_Driver/Src/stm32f0xx_hal_tim.c ****       /* Set the DMA Period elapsed callback */
 807:cube/Drivers/STM32F0xx_HAL_Driver/Src/stm32f0xx_hal_tim.c ****       htim->hdma[TIM_DMA_ID_CC1]->XferCpltCallback = TIM_DMADelayPulseCplt;
 808:cube/Drivers/STM32F0xx_HAL_Driver/Src/stm32f0xx_hal_tim.c **** 
 809:cube/Drivers/STM32F0xx_HAL_Driver/Src/stm32f0xx_hal_tim.c ****       /* Set the DMA error callback */
 810:cube/Drivers/STM32F0xx_HAL_Driver/Src/stm32f0xx_hal_tim.c ****       htim->hdma[TIM_DMA_ID_CC1]->XferErrorCallback = TIM_DMAError ;
 811:cube/Drivers/STM32F0xx_HAL_Driver/Src/stm32f0xx_hal_tim.c **** 
 812:cube/Drivers/STM32F0xx_HAL_Driver/Src/stm32f0xx_hal_tim.c ****       /* Enable the DMA channel */
 813:cube/Drivers/STM32F0xx_HAL_Driver/Src/stm32f0xx_hal_tim.c ****       HAL_DMA_Start_IT(htim->hdma[TIM_DMA_ID_CC1], (uint32_t)pData, (uint32_t)&htim->Instance->CCR1
 814:cube/Drivers/STM32F0xx_HAL_Driver/Src/stm32f0xx_hal_tim.c **** 
 815:cube/Drivers/STM32F0xx_HAL_Driver/Src/stm32f0xx_hal_tim.c ****       /* Enable the TIM Capture/Compare 1 DMA request */
 816:cube/Drivers/STM32F0xx_HAL_Driver/Src/stm32f0xx_hal_tim.c ****       __HAL_TIM_ENABLE_DMA(htim, TIM_DMA_CC1);
 817:cube/Drivers/STM32F0xx_HAL_Driver/Src/stm32f0xx_hal_tim.c ****     }
 818:cube/Drivers/STM32F0xx_HAL_Driver/Src/stm32f0xx_hal_tim.c ****     break;
 819:cube/Drivers/STM32F0xx_HAL_Driver/Src/stm32f0xx_hal_tim.c **** 
 820:cube/Drivers/STM32F0xx_HAL_Driver/Src/stm32f0xx_hal_tim.c ****     case TIM_CHANNEL_2:
ARM GAS  /tmp/ccnYXliM.s 			page 43


 821:cube/Drivers/STM32F0xx_HAL_Driver/Src/stm32f0xx_hal_tim.c ****     {
 822:cube/Drivers/STM32F0xx_HAL_Driver/Src/stm32f0xx_hal_tim.c ****       /* Set the DMA Period elapsed callback */
 823:cube/Drivers/STM32F0xx_HAL_Driver/Src/stm32f0xx_hal_tim.c ****       htim->hdma[TIM_DMA_ID_CC2]->XferCpltCallback = TIM_DMADelayPulseCplt;
 824:cube/Drivers/STM32F0xx_HAL_Driver/Src/stm32f0xx_hal_tim.c **** 
 825:cube/Drivers/STM32F0xx_HAL_Driver/Src/stm32f0xx_hal_tim.c ****       /* Set the DMA error callback */
 826:cube/Drivers/STM32F0xx_HAL_Driver/Src/stm32f0xx_hal_tim.c ****       htim->hdma[TIM_DMA_ID_CC2]->XferErrorCallback = TIM_DMAError ;
 827:cube/Drivers/STM32F0xx_HAL_Driver/Src/stm32f0xx_hal_tim.c **** 
 828:cube/Drivers/STM32F0xx_HAL_Driver/Src/stm32f0xx_hal_tim.c ****       /* Enable the DMA channel */
 829:cube/Drivers/STM32F0xx_HAL_Driver/Src/stm32f0xx_hal_tim.c ****       HAL_DMA_Start_IT(htim->hdma[TIM_DMA_ID_CC2], (uint32_t)pData, (uint32_t)&htim->Instance->CCR2
 830:cube/Drivers/STM32F0xx_HAL_Driver/Src/stm32f0xx_hal_tim.c **** 
 831:cube/Drivers/STM32F0xx_HAL_Driver/Src/stm32f0xx_hal_tim.c ****       /* Enable the TIM Capture/Compare 2 DMA request */
 832:cube/Drivers/STM32F0xx_HAL_Driver/Src/stm32f0xx_hal_tim.c ****       __HAL_TIM_ENABLE_DMA(htim, TIM_DMA_CC2);
 833:cube/Drivers/STM32F0xx_HAL_Driver/Src/stm32f0xx_hal_tim.c ****     }
 834:cube/Drivers/STM32F0xx_HAL_Driver/Src/stm32f0xx_hal_tim.c ****     break;
 835:cube/Drivers/STM32F0xx_HAL_Driver/Src/stm32f0xx_hal_tim.c **** 
 836:cube/Drivers/STM32F0xx_HAL_Driver/Src/stm32f0xx_hal_tim.c ****     case TIM_CHANNEL_3:
 837:cube/Drivers/STM32F0xx_HAL_Driver/Src/stm32f0xx_hal_tim.c ****     {
 838:cube/Drivers/STM32F0xx_HAL_Driver/Src/stm32f0xx_hal_tim.c ****       /* Set the DMA Period elapsed callback */
 839:cube/Drivers/STM32F0xx_HAL_Driver/Src/stm32f0xx_hal_tim.c ****       htim->hdma[TIM_DMA_ID_CC3]->XferCpltCallback = TIM_DMADelayPulseCplt;
 840:cube/Drivers/STM32F0xx_HAL_Driver/Src/stm32f0xx_hal_tim.c **** 
 841:cube/Drivers/STM32F0xx_HAL_Driver/Src/stm32f0xx_hal_tim.c ****       /* Set the DMA error callback */
 842:cube/Drivers/STM32F0xx_HAL_Driver/Src/stm32f0xx_hal_tim.c ****       htim->hdma[TIM_DMA_ID_CC3]->XferErrorCallback = TIM_DMAError ;
 843:cube/Drivers/STM32F0xx_HAL_Driver/Src/stm32f0xx_hal_tim.c **** 
 844:cube/Drivers/STM32F0xx_HAL_Driver/Src/stm32f0xx_hal_tim.c ****       /* Enable the DMA channel */
 845:cube/Drivers/STM32F0xx_HAL_Driver/Src/stm32f0xx_hal_tim.c ****       HAL_DMA_Start_IT(htim->hdma[TIM_DMA_ID_CC3], (uint32_t)pData, (uint32_t)&htim->Instance->CCR3
 846:cube/Drivers/STM32F0xx_HAL_Driver/Src/stm32f0xx_hal_tim.c **** 
 847:cube/Drivers/STM32F0xx_HAL_Driver/Src/stm32f0xx_hal_tim.c ****       /* Enable the TIM Capture/Compare 3 DMA request */
 848:cube/Drivers/STM32F0xx_HAL_Driver/Src/stm32f0xx_hal_tim.c ****       __HAL_TIM_ENABLE_DMA(htim, TIM_DMA_CC3);
 849:cube/Drivers/STM32F0xx_HAL_Driver/Src/stm32f0xx_hal_tim.c ****     }
 850:cube/Drivers/STM32F0xx_HAL_Driver/Src/stm32f0xx_hal_tim.c ****     break;
 851:cube/Drivers/STM32F0xx_HAL_Driver/Src/stm32f0xx_hal_tim.c **** 
 852:cube/Drivers/STM32F0xx_HAL_Driver/Src/stm32f0xx_hal_tim.c ****     case TIM_CHANNEL_4:
 853:cube/Drivers/STM32F0xx_HAL_Driver/Src/stm32f0xx_hal_tim.c ****     {
 854:cube/Drivers/STM32F0xx_HAL_Driver/Src/stm32f0xx_hal_tim.c ****      /* Set the DMA Period elapsed callback */
 855:cube/Drivers/STM32F0xx_HAL_Driver/Src/stm32f0xx_hal_tim.c ****       htim->hdma[TIM_DMA_ID_CC4]->XferCpltCallback = TIM_DMADelayPulseCplt;
 856:cube/Drivers/STM32F0xx_HAL_Driver/Src/stm32f0xx_hal_tim.c **** 
 857:cube/Drivers/STM32F0xx_HAL_Driver/Src/stm32f0xx_hal_tim.c ****       /* Set the DMA error callback */
 858:cube/Drivers/STM32F0xx_HAL_Driver/Src/stm32f0xx_hal_tim.c ****       htim->hdma[TIM_DMA_ID_CC4]->XferErrorCallback = TIM_DMAError ;
 859:cube/Drivers/STM32F0xx_HAL_Driver/Src/stm32f0xx_hal_tim.c **** 
 860:cube/Drivers/STM32F0xx_HAL_Driver/Src/stm32f0xx_hal_tim.c ****       /* Enable the DMA channel */
 861:cube/Drivers/STM32F0xx_HAL_Driver/Src/stm32f0xx_hal_tim.c ****       HAL_DMA_Start_IT(htim->hdma[TIM_DMA_ID_CC4], (uint32_t)pData, (uint32_t)&htim->Instance->CCR4
 862:cube/Drivers/STM32F0xx_HAL_Driver/Src/stm32f0xx_hal_tim.c **** 
 863:cube/Drivers/STM32F0xx_HAL_Driver/Src/stm32f0xx_hal_tim.c ****       /* Enable the TIM Capture/Compare 4 DMA request */
 864:cube/Drivers/STM32F0xx_HAL_Driver/Src/stm32f0xx_hal_tim.c ****       __HAL_TIM_ENABLE_DMA(htim, TIM_DMA_CC4);
 865:cube/Drivers/STM32F0xx_HAL_Driver/Src/stm32f0xx_hal_tim.c ****     }
 866:cube/Drivers/STM32F0xx_HAL_Driver/Src/stm32f0xx_hal_tim.c ****     break;
 867:cube/Drivers/STM32F0xx_HAL_Driver/Src/stm32f0xx_hal_tim.c **** 
 868:cube/Drivers/STM32F0xx_HAL_Driver/Src/stm32f0xx_hal_tim.c ****     default:
 869:cube/Drivers/STM32F0xx_HAL_Driver/Src/stm32f0xx_hal_tim.c ****     break;
 1594              		.loc 1 869 0
 1595 0054 78E0     		b	.L108
 1596              	.L104:
 802:cube/Drivers/STM32F0xx_HAL_Driver/Src/stm32f0xx_hal_tim.c ****   {
 1597              		.loc 1 802 0
 1598 0056 082B     		cmp	r3, #8
 1599 0058 3CD0     		beq	.L106
 1600 005a 0C2B     		cmp	r3, #12
ARM GAS  /tmp/ccnYXliM.s 			page 44


 1601 005c 57D0     		beq	.L107
 1602              		.loc 1 869 0
 1603 005e 73E0     		b	.L108
 1604              	.L105:
 807:cube/Drivers/STM32F0xx_HAL_Driver/Src/stm32f0xx_hal_tim.c **** 
 1605              		.loc 1 807 0
 1606 0060 FB68     		ldr	r3, [r7, #12]
 1607 0062 5B6A     		ldr	r3, [r3, #36]
 1608 0064 534A     		ldr	r2, .L113
 1609 0066 9A62     		str	r2, [r3, #40]
 810:cube/Drivers/STM32F0xx_HAL_Driver/Src/stm32f0xx_hal_tim.c **** 
 1610              		.loc 1 810 0
 1611 0068 FB68     		ldr	r3, [r7, #12]
 1612 006a 5B6A     		ldr	r3, [r3, #36]
 1613 006c 524A     		ldr	r2, .L113+4
 1614 006e 1A63     		str	r2, [r3, #48]
 813:cube/Drivers/STM32F0xx_HAL_Driver/Src/stm32f0xx_hal_tim.c **** 
 1615              		.loc 1 813 0
 1616 0070 FB68     		ldr	r3, [r7, #12]
 1617 0072 586A     		ldr	r0, [r3, #36]
 1618 0074 7968     		ldr	r1, [r7, #4]
 1619 0076 FB68     		ldr	r3, [r7, #12]
 1620 0078 1B68     		ldr	r3, [r3]
 1621 007a 3433     		adds	r3, r3, #52
 1622 007c 1A00     		movs	r2, r3
 1623 007e BB1C     		adds	r3, r7, #2
 1624 0080 1B88     		ldrh	r3, [r3]
 1625 0082 FFF7FEFF 		bl	HAL_DMA_Start_IT
 816:cube/Drivers/STM32F0xx_HAL_Driver/Src/stm32f0xx_hal_tim.c ****     }
 1626              		.loc 1 816 0
 1627 0086 FB68     		ldr	r3, [r7, #12]
 1628 0088 1B68     		ldr	r3, [r3]
 1629 008a DA68     		ldr	r2, [r3, #12]
 1630 008c FB68     		ldr	r3, [r7, #12]
 1631 008e 1B68     		ldr	r3, [r3]
 1632 0090 8021     		movs	r1, #128
 1633 0092 8900     		lsls	r1, r1, #2
 1634 0094 0A43     		orrs	r2, r1
 1635 0096 DA60     		str	r2, [r3, #12]
 818:cube/Drivers/STM32F0xx_HAL_Driver/Src/stm32f0xx_hal_tim.c **** 
 1636              		.loc 1 818 0
 1637 0098 56E0     		b	.L108
 1638              	.L103:
 823:cube/Drivers/STM32F0xx_HAL_Driver/Src/stm32f0xx_hal_tim.c **** 
 1639              		.loc 1 823 0
 1640 009a FB68     		ldr	r3, [r7, #12]
 1641 009c 9B6A     		ldr	r3, [r3, #40]
 1642 009e 454A     		ldr	r2, .L113
 1643 00a0 9A62     		str	r2, [r3, #40]
 826:cube/Drivers/STM32F0xx_HAL_Driver/Src/stm32f0xx_hal_tim.c **** 
 1644              		.loc 1 826 0
 1645 00a2 FB68     		ldr	r3, [r7, #12]
 1646 00a4 9B6A     		ldr	r3, [r3, #40]
 1647 00a6 444A     		ldr	r2, .L113+4
 1648 00a8 1A63     		str	r2, [r3, #48]
 829:cube/Drivers/STM32F0xx_HAL_Driver/Src/stm32f0xx_hal_tim.c **** 
 1649              		.loc 1 829 0
ARM GAS  /tmp/ccnYXliM.s 			page 45


 1650 00aa FB68     		ldr	r3, [r7, #12]
 1651 00ac 986A     		ldr	r0, [r3, #40]
 1652 00ae 7968     		ldr	r1, [r7, #4]
 1653 00b0 FB68     		ldr	r3, [r7, #12]
 1654 00b2 1B68     		ldr	r3, [r3]
 1655 00b4 3833     		adds	r3, r3, #56
 1656 00b6 1A00     		movs	r2, r3
 1657 00b8 BB1C     		adds	r3, r7, #2
 1658 00ba 1B88     		ldrh	r3, [r3]
 1659 00bc FFF7FEFF 		bl	HAL_DMA_Start_IT
 832:cube/Drivers/STM32F0xx_HAL_Driver/Src/stm32f0xx_hal_tim.c ****     }
 1660              		.loc 1 832 0
 1661 00c0 FB68     		ldr	r3, [r7, #12]
 1662 00c2 1B68     		ldr	r3, [r3]
 1663 00c4 DA68     		ldr	r2, [r3, #12]
 1664 00c6 FB68     		ldr	r3, [r7, #12]
 1665 00c8 1B68     		ldr	r3, [r3]
 1666 00ca 8021     		movs	r1, #128
 1667 00cc C900     		lsls	r1, r1, #3
 1668 00ce 0A43     		orrs	r2, r1
 1669 00d0 DA60     		str	r2, [r3, #12]
 834:cube/Drivers/STM32F0xx_HAL_Driver/Src/stm32f0xx_hal_tim.c **** 
 1670              		.loc 1 834 0
 1671 00d2 39E0     		b	.L108
 1672              	.L106:
 839:cube/Drivers/STM32F0xx_HAL_Driver/Src/stm32f0xx_hal_tim.c **** 
 1673              		.loc 1 839 0
 1674 00d4 FB68     		ldr	r3, [r7, #12]
 1675 00d6 DB6A     		ldr	r3, [r3, #44]
 1676 00d8 364A     		ldr	r2, .L113
 1677 00da 9A62     		str	r2, [r3, #40]
 842:cube/Drivers/STM32F0xx_HAL_Driver/Src/stm32f0xx_hal_tim.c **** 
 1678              		.loc 1 842 0
 1679 00dc FB68     		ldr	r3, [r7, #12]
 1680 00de DB6A     		ldr	r3, [r3, #44]
 1681 00e0 354A     		ldr	r2, .L113+4
 1682 00e2 1A63     		str	r2, [r3, #48]
 845:cube/Drivers/STM32F0xx_HAL_Driver/Src/stm32f0xx_hal_tim.c **** 
 1683              		.loc 1 845 0
 1684 00e4 FB68     		ldr	r3, [r7, #12]
 1685 00e6 D86A     		ldr	r0, [r3, #44]
 1686 00e8 7968     		ldr	r1, [r7, #4]
 1687 00ea FB68     		ldr	r3, [r7, #12]
 1688 00ec 1B68     		ldr	r3, [r3]
 1689 00ee 3C33     		adds	r3, r3, #60
 1690 00f0 1A00     		movs	r2, r3
 1691 00f2 BB1C     		adds	r3, r7, #2
 1692 00f4 1B88     		ldrh	r3, [r3]
 1693 00f6 FFF7FEFF 		bl	HAL_DMA_Start_IT
 848:cube/Drivers/STM32F0xx_HAL_Driver/Src/stm32f0xx_hal_tim.c ****     }
 1694              		.loc 1 848 0
 1695 00fa FB68     		ldr	r3, [r7, #12]
 1696 00fc 1B68     		ldr	r3, [r3]
 1697 00fe DA68     		ldr	r2, [r3, #12]
 1698 0100 FB68     		ldr	r3, [r7, #12]
 1699 0102 1B68     		ldr	r3, [r3]
 1700 0104 8021     		movs	r1, #128
ARM GAS  /tmp/ccnYXliM.s 			page 46


 1701 0106 0901     		lsls	r1, r1, #4
 1702 0108 0A43     		orrs	r2, r1
 1703 010a DA60     		str	r2, [r3, #12]
 850:cube/Drivers/STM32F0xx_HAL_Driver/Src/stm32f0xx_hal_tim.c **** 
 1704              		.loc 1 850 0
 1705 010c 1CE0     		b	.L108
 1706              	.L107:
 855:cube/Drivers/STM32F0xx_HAL_Driver/Src/stm32f0xx_hal_tim.c **** 
 1707              		.loc 1 855 0
 1708 010e FB68     		ldr	r3, [r7, #12]
 1709 0110 1B6B     		ldr	r3, [r3, #48]
 1710 0112 284A     		ldr	r2, .L113
 1711 0114 9A62     		str	r2, [r3, #40]
 858:cube/Drivers/STM32F0xx_HAL_Driver/Src/stm32f0xx_hal_tim.c **** 
 1712              		.loc 1 858 0
 1713 0116 FB68     		ldr	r3, [r7, #12]
 1714 0118 1B6B     		ldr	r3, [r3, #48]
 1715 011a 274A     		ldr	r2, .L113+4
 1716 011c 1A63     		str	r2, [r3, #48]
 861:cube/Drivers/STM32F0xx_HAL_Driver/Src/stm32f0xx_hal_tim.c **** 
 1717              		.loc 1 861 0
 1718 011e FB68     		ldr	r3, [r7, #12]
 1719 0120 186B     		ldr	r0, [r3, #48]
 1720 0122 7968     		ldr	r1, [r7, #4]
 1721 0124 FB68     		ldr	r3, [r7, #12]
 1722 0126 1B68     		ldr	r3, [r3]
 1723 0128 4033     		adds	r3, r3, #64
 1724 012a 1A00     		movs	r2, r3
 1725 012c BB1C     		adds	r3, r7, #2
 1726 012e 1B88     		ldrh	r3, [r3]
 1727 0130 FFF7FEFF 		bl	HAL_DMA_Start_IT
 864:cube/Drivers/STM32F0xx_HAL_Driver/Src/stm32f0xx_hal_tim.c ****     }
 1728              		.loc 1 864 0
 1729 0134 FB68     		ldr	r3, [r7, #12]
 1730 0136 1B68     		ldr	r3, [r3]
 1731 0138 DA68     		ldr	r2, [r3, #12]
 1732 013a FB68     		ldr	r3, [r7, #12]
 1733 013c 1B68     		ldr	r3, [r3]
 1734 013e 8021     		movs	r1, #128
 1735 0140 4901     		lsls	r1, r1, #5
 1736 0142 0A43     		orrs	r2, r1
 1737 0144 DA60     		str	r2, [r3, #12]
 866:cube/Drivers/STM32F0xx_HAL_Driver/Src/stm32f0xx_hal_tim.c **** 
 1738              		.loc 1 866 0
 1739 0146 C046     		nop
 1740              	.L108:
 870:cube/Drivers/STM32F0xx_HAL_Driver/Src/stm32f0xx_hal_tim.c ****   }
 871:cube/Drivers/STM32F0xx_HAL_Driver/Src/stm32f0xx_hal_tim.c **** 
 872:cube/Drivers/STM32F0xx_HAL_Driver/Src/stm32f0xx_hal_tim.c ****   /* Enable the Output compare channel */
 873:cube/Drivers/STM32F0xx_HAL_Driver/Src/stm32f0xx_hal_tim.c ****   TIM_CCxChannelCmd(htim->Instance, Channel, TIM_CCx_ENABLE);
 1741              		.loc 1 873 0
 1742 0148 FB68     		ldr	r3, [r7, #12]
 1743 014a 1B68     		ldr	r3, [r3]
 1744 014c B968     		ldr	r1, [r7, #8]
 1745 014e 0122     		movs	r2, #1
 1746 0150 1800     		movs	r0, r3
 1747 0152 FFF7FEFF 		bl	TIM_CCxChannelCmd
ARM GAS  /tmp/ccnYXliM.s 			page 47


 874:cube/Drivers/STM32F0xx_HAL_Driver/Src/stm32f0xx_hal_tim.c **** 
 875:cube/Drivers/STM32F0xx_HAL_Driver/Src/stm32f0xx_hal_tim.c ****   if(IS_TIM_BREAK_INSTANCE(htim->Instance) != RESET)
 1748              		.loc 1 875 0
 1749 0156 FB68     		ldr	r3, [r7, #12]
 1750 0158 1B68     		ldr	r3, [r3]
 1751 015a 184A     		ldr	r2, .L113+8
 1752 015c 9342     		cmp	r3, r2
 1753 015e 0ED0     		beq	.L109
 1754              		.loc 1 875 0 is_stmt 0 discriminator 2
 1755 0160 FB68     		ldr	r3, [r7, #12]
 1756 0162 1B68     		ldr	r3, [r3]
 1757 0164 164A     		ldr	r2, .L113+12
 1758 0166 9342     		cmp	r3, r2
 1759 0168 09D0     		beq	.L109
 1760              		.loc 1 875 0 discriminator 4
 1761 016a FB68     		ldr	r3, [r7, #12]
 1762 016c 1B68     		ldr	r3, [r3]
 1763 016e 154A     		ldr	r2, .L113+16
 1764 0170 9342     		cmp	r3, r2
 1765 0172 04D0     		beq	.L109
 1766              		.loc 1 875 0 discriminator 6
 1767 0174 FB68     		ldr	r3, [r7, #12]
 1768 0176 1B68     		ldr	r3, [r3]
 1769 0178 134A     		ldr	r2, .L113+20
 1770 017a 9342     		cmp	r3, r2
 1771 017c 01D1     		bne	.L110
 1772              	.L109:
 1773              		.loc 1 875 0 discriminator 7
 1774 017e 0123     		movs	r3, #1
 1775 0180 00E0     		b	.L111
 1776              	.L110:
 1777              		.loc 1 875 0 discriminator 8
 1778 0182 0023     		movs	r3, #0
 1779              	.L111:
 1780              		.loc 1 875 0 discriminator 10
 1781 0184 002B     		cmp	r3, #0
 1782 0186 08D0     		beq	.L112
 876:cube/Drivers/STM32F0xx_HAL_Driver/Src/stm32f0xx_hal_tim.c ****   {
 877:cube/Drivers/STM32F0xx_HAL_Driver/Src/stm32f0xx_hal_tim.c ****     /* Enable the main output */
 878:cube/Drivers/STM32F0xx_HAL_Driver/Src/stm32f0xx_hal_tim.c ****     __HAL_TIM_MOE_ENABLE(htim);
 1783              		.loc 1 878 0 is_stmt 1
 1784 0188 FB68     		ldr	r3, [r7, #12]
 1785 018a 1B68     		ldr	r3, [r3]
 1786 018c 5A6C     		ldr	r2, [r3, #68]
 1787 018e FB68     		ldr	r3, [r7, #12]
 1788 0190 1B68     		ldr	r3, [r3]
 1789 0192 8021     		movs	r1, #128
 1790 0194 0902     		lsls	r1, r1, #8
 1791 0196 0A43     		orrs	r2, r1
 1792 0198 5A64     		str	r2, [r3, #68]
 1793              	.L112:
 879:cube/Drivers/STM32F0xx_HAL_Driver/Src/stm32f0xx_hal_tim.c ****   }
 880:cube/Drivers/STM32F0xx_HAL_Driver/Src/stm32f0xx_hal_tim.c **** 
 881:cube/Drivers/STM32F0xx_HAL_Driver/Src/stm32f0xx_hal_tim.c ****   /* Enable the Peripheral */
 882:cube/Drivers/STM32F0xx_HAL_Driver/Src/stm32f0xx_hal_tim.c ****   __HAL_TIM_ENABLE(htim);
 1794              		.loc 1 882 0
 1795 019a FB68     		ldr	r3, [r7, #12]
ARM GAS  /tmp/ccnYXliM.s 			page 48


 1796 019c 1B68     		ldr	r3, [r3]
 1797 019e 1A68     		ldr	r2, [r3]
 1798 01a0 FB68     		ldr	r3, [r7, #12]
 1799 01a2 1B68     		ldr	r3, [r3]
 1800 01a4 0121     		movs	r1, #1
 1801 01a6 0A43     		orrs	r2, r1
 1802 01a8 1A60     		str	r2, [r3]
 883:cube/Drivers/STM32F0xx_HAL_Driver/Src/stm32f0xx_hal_tim.c **** 
 884:cube/Drivers/STM32F0xx_HAL_Driver/Src/stm32f0xx_hal_tim.c ****   /* Return function status */
 885:cube/Drivers/STM32F0xx_HAL_Driver/Src/stm32f0xx_hal_tim.c ****   return HAL_OK;
 1803              		.loc 1 885 0
 1804 01aa 0023     		movs	r3, #0
 1805              	.L99:
 886:cube/Drivers/STM32F0xx_HAL_Driver/Src/stm32f0xx_hal_tim.c **** }
 1806              		.loc 1 886 0
 1807 01ac 1800     		movs	r0, r3
 1808 01ae BD46     		mov	sp, r7
 1809 01b0 04B0     		add	sp, sp, #16
 1810              		@ sp needed
 1811 01b2 80BD     		pop	{r7, pc}
 1812              	.L114:
 1813              		.align	2
 1814              	.L113:
 1815 01b4 00000000 		.word	TIM_DMADelayPulseCplt
 1816 01b8 00000000 		.word	TIM_DMAError
 1817 01bc 002C0140 		.word	1073818624
 1818 01c0 00400140 		.word	1073823744
 1819 01c4 00440140 		.word	1073824768
 1820 01c8 00480140 		.word	1073825792
 1821              		.cfi_endproc
 1822              	.LFE55:
 1824              		.section	.text.HAL_TIM_OC_Stop_DMA,"ax",%progbits
 1825              		.align	1
 1826              		.global	HAL_TIM_OC_Stop_DMA
 1827              		.syntax unified
 1828              		.code	16
 1829              		.thumb_func
 1830              		.fpu softvfp
 1832              	HAL_TIM_OC_Stop_DMA:
 1833              	.LFB56:
 887:cube/Drivers/STM32F0xx_HAL_Driver/Src/stm32f0xx_hal_tim.c **** 
 888:cube/Drivers/STM32F0xx_HAL_Driver/Src/stm32f0xx_hal_tim.c **** /**
 889:cube/Drivers/STM32F0xx_HAL_Driver/Src/stm32f0xx_hal_tim.c ****   * @brief  Stops the TIM Output Compare signal generation in DMA mode.
 890:cube/Drivers/STM32F0xx_HAL_Driver/Src/stm32f0xx_hal_tim.c ****   * @param  htim TIM Output Compare handle
 891:cube/Drivers/STM32F0xx_HAL_Driver/Src/stm32f0xx_hal_tim.c ****   * @param  Channel TIM Channel to be disabled
 892:cube/Drivers/STM32F0xx_HAL_Driver/Src/stm32f0xx_hal_tim.c ****   *          This parameter can be one of the following values:
 893:cube/Drivers/STM32F0xx_HAL_Driver/Src/stm32f0xx_hal_tim.c ****   *            @arg TIM_CHANNEL_1: TIM Channel 1 selected
 894:cube/Drivers/STM32F0xx_HAL_Driver/Src/stm32f0xx_hal_tim.c ****   *            @arg TIM_CHANNEL_2: TIM Channel 2 selected
 895:cube/Drivers/STM32F0xx_HAL_Driver/Src/stm32f0xx_hal_tim.c ****   *            @arg TIM_CHANNEL_3: TIM Channel 3 selected
 896:cube/Drivers/STM32F0xx_HAL_Driver/Src/stm32f0xx_hal_tim.c ****   *            @arg TIM_CHANNEL_4: TIM Channel 4 selected
 897:cube/Drivers/STM32F0xx_HAL_Driver/Src/stm32f0xx_hal_tim.c ****   * @retval HAL status
 898:cube/Drivers/STM32F0xx_HAL_Driver/Src/stm32f0xx_hal_tim.c **** */
 899:cube/Drivers/STM32F0xx_HAL_Driver/Src/stm32f0xx_hal_tim.c **** HAL_StatusTypeDef HAL_TIM_OC_Stop_DMA(TIM_HandleTypeDef *htim, uint32_t Channel)
 900:cube/Drivers/STM32F0xx_HAL_Driver/Src/stm32f0xx_hal_tim.c **** {
 1834              		.loc 1 900 0
 1835              		.cfi_startproc
 1836              		@ args = 0, pretend = 0, frame = 8
ARM GAS  /tmp/ccnYXliM.s 			page 49


 1837              		@ frame_needed = 1, uses_anonymous_args = 0
 1838 0000 80B5     		push	{r7, lr}
 1839              		.cfi_def_cfa_offset 8
 1840              		.cfi_offset 7, -8
 1841              		.cfi_offset 14, -4
 1842 0002 82B0     		sub	sp, sp, #8
 1843              		.cfi_def_cfa_offset 16
 1844 0004 00AF     		add	r7, sp, #0
 1845              		.cfi_def_cfa_register 7
 1846 0006 7860     		str	r0, [r7, #4]
 1847 0008 3960     		str	r1, [r7]
 901:cube/Drivers/STM32F0xx_HAL_Driver/Src/stm32f0xx_hal_tim.c ****   /* Check the parameters */
 902:cube/Drivers/STM32F0xx_HAL_Driver/Src/stm32f0xx_hal_tim.c ****   assert_param(IS_TIM_CCX_INSTANCE(htim->Instance, Channel));
 903:cube/Drivers/STM32F0xx_HAL_Driver/Src/stm32f0xx_hal_tim.c **** 
 904:cube/Drivers/STM32F0xx_HAL_Driver/Src/stm32f0xx_hal_tim.c ****   switch (Channel)
 1848              		.loc 1 904 0
 1849 000a 3B68     		ldr	r3, [r7]
 1850 000c 042B     		cmp	r3, #4
 1851 000e 11D0     		beq	.L117
 1852 0010 02D8     		bhi	.L118
 1853 0012 002B     		cmp	r3, #0
 1854 0014 05D0     		beq	.L119
 905:cube/Drivers/STM32F0xx_HAL_Driver/Src/stm32f0xx_hal_tim.c ****   {
 906:cube/Drivers/STM32F0xx_HAL_Driver/Src/stm32f0xx_hal_tim.c ****     case TIM_CHANNEL_1:
 907:cube/Drivers/STM32F0xx_HAL_Driver/Src/stm32f0xx_hal_tim.c ****     {
 908:cube/Drivers/STM32F0xx_HAL_Driver/Src/stm32f0xx_hal_tim.c ****       /* Disable the TIM Capture/Compare 1 DMA request */
 909:cube/Drivers/STM32F0xx_HAL_Driver/Src/stm32f0xx_hal_tim.c ****       __HAL_TIM_DISABLE_DMA(htim, TIM_DMA_CC1);
 910:cube/Drivers/STM32F0xx_HAL_Driver/Src/stm32f0xx_hal_tim.c ****     }
 911:cube/Drivers/STM32F0xx_HAL_Driver/Src/stm32f0xx_hal_tim.c ****     break;
 912:cube/Drivers/STM32F0xx_HAL_Driver/Src/stm32f0xx_hal_tim.c **** 
 913:cube/Drivers/STM32F0xx_HAL_Driver/Src/stm32f0xx_hal_tim.c ****     case TIM_CHANNEL_2:
 914:cube/Drivers/STM32F0xx_HAL_Driver/Src/stm32f0xx_hal_tim.c ****     {
 915:cube/Drivers/STM32F0xx_HAL_Driver/Src/stm32f0xx_hal_tim.c ****       /* Disable the TIM Capture/Compare 2 DMA request */
 916:cube/Drivers/STM32F0xx_HAL_Driver/Src/stm32f0xx_hal_tim.c ****       __HAL_TIM_DISABLE_DMA(htim, TIM_DMA_CC2);
 917:cube/Drivers/STM32F0xx_HAL_Driver/Src/stm32f0xx_hal_tim.c ****     }
 918:cube/Drivers/STM32F0xx_HAL_Driver/Src/stm32f0xx_hal_tim.c ****     break;
 919:cube/Drivers/STM32F0xx_HAL_Driver/Src/stm32f0xx_hal_tim.c **** 
 920:cube/Drivers/STM32F0xx_HAL_Driver/Src/stm32f0xx_hal_tim.c ****     case TIM_CHANNEL_3:
 921:cube/Drivers/STM32F0xx_HAL_Driver/Src/stm32f0xx_hal_tim.c ****     {
 922:cube/Drivers/STM32F0xx_HAL_Driver/Src/stm32f0xx_hal_tim.c ****       /* Disable the TIM Capture/Compare 3 DMA request */
 923:cube/Drivers/STM32F0xx_HAL_Driver/Src/stm32f0xx_hal_tim.c ****       __HAL_TIM_DISABLE_DMA(htim, TIM_DMA_CC3);
 924:cube/Drivers/STM32F0xx_HAL_Driver/Src/stm32f0xx_hal_tim.c ****     }
 925:cube/Drivers/STM32F0xx_HAL_Driver/Src/stm32f0xx_hal_tim.c ****     break;
 926:cube/Drivers/STM32F0xx_HAL_Driver/Src/stm32f0xx_hal_tim.c **** 
 927:cube/Drivers/STM32F0xx_HAL_Driver/Src/stm32f0xx_hal_tim.c ****     case TIM_CHANNEL_4:
 928:cube/Drivers/STM32F0xx_HAL_Driver/Src/stm32f0xx_hal_tim.c ****     {
 929:cube/Drivers/STM32F0xx_HAL_Driver/Src/stm32f0xx_hal_tim.c ****       /* Disable the TIM Capture/Compare 4 interrupt */
 930:cube/Drivers/STM32F0xx_HAL_Driver/Src/stm32f0xx_hal_tim.c ****       __HAL_TIM_DISABLE_DMA(htim, TIM_DMA_CC4);
 931:cube/Drivers/STM32F0xx_HAL_Driver/Src/stm32f0xx_hal_tim.c ****     }
 932:cube/Drivers/STM32F0xx_HAL_Driver/Src/stm32f0xx_hal_tim.c ****     break;
 933:cube/Drivers/STM32F0xx_HAL_Driver/Src/stm32f0xx_hal_tim.c **** 
 934:cube/Drivers/STM32F0xx_HAL_Driver/Src/stm32f0xx_hal_tim.c ****     default:
 935:cube/Drivers/STM32F0xx_HAL_Driver/Src/stm32f0xx_hal_tim.c ****     break;
 1855              		.loc 1 935 0
 1856 0016 28E0     		b	.L122
 1857              	.L118:
 904:cube/Drivers/STM32F0xx_HAL_Driver/Src/stm32f0xx_hal_tim.c ****   {
ARM GAS  /tmp/ccnYXliM.s 			page 50


 1858              		.loc 1 904 0
 1859 0018 082B     		cmp	r3, #8
 1860 001a 14D0     		beq	.L120
 1861 001c 0C2B     		cmp	r3, #12
 1862 001e 1BD0     		beq	.L121
 1863              		.loc 1 935 0
 1864 0020 23E0     		b	.L122
 1865              	.L119:
 909:cube/Drivers/STM32F0xx_HAL_Driver/Src/stm32f0xx_hal_tim.c ****     }
 1866              		.loc 1 909 0
 1867 0022 7B68     		ldr	r3, [r7, #4]
 1868 0024 1B68     		ldr	r3, [r3]
 1869 0026 DA68     		ldr	r2, [r3, #12]
 1870 0028 7B68     		ldr	r3, [r7, #4]
 1871 002a 1B68     		ldr	r3, [r3]
 1872 002c 3749     		ldr	r1, .L129
 1873 002e 0A40     		ands	r2, r1
 1874 0030 DA60     		str	r2, [r3, #12]
 911:cube/Drivers/STM32F0xx_HAL_Driver/Src/stm32f0xx_hal_tim.c **** 
 1875              		.loc 1 911 0
 1876 0032 1AE0     		b	.L122
 1877              	.L117:
 916:cube/Drivers/STM32F0xx_HAL_Driver/Src/stm32f0xx_hal_tim.c ****     }
 1878              		.loc 1 916 0
 1879 0034 7B68     		ldr	r3, [r7, #4]
 1880 0036 1B68     		ldr	r3, [r3]
 1881 0038 DA68     		ldr	r2, [r3, #12]
 1882 003a 7B68     		ldr	r3, [r7, #4]
 1883 003c 1B68     		ldr	r3, [r3]
 1884 003e 3449     		ldr	r1, .L129+4
 1885 0040 0A40     		ands	r2, r1
 1886 0042 DA60     		str	r2, [r3, #12]
 918:cube/Drivers/STM32F0xx_HAL_Driver/Src/stm32f0xx_hal_tim.c **** 
 1887              		.loc 1 918 0
 1888 0044 11E0     		b	.L122
 1889              	.L120:
 923:cube/Drivers/STM32F0xx_HAL_Driver/Src/stm32f0xx_hal_tim.c ****     }
 1890              		.loc 1 923 0
 1891 0046 7B68     		ldr	r3, [r7, #4]
 1892 0048 1B68     		ldr	r3, [r3]
 1893 004a DA68     		ldr	r2, [r3, #12]
 1894 004c 7B68     		ldr	r3, [r7, #4]
 1895 004e 1B68     		ldr	r3, [r3]
 1896 0050 3049     		ldr	r1, .L129+8
 1897 0052 0A40     		ands	r2, r1
 1898 0054 DA60     		str	r2, [r3, #12]
 925:cube/Drivers/STM32F0xx_HAL_Driver/Src/stm32f0xx_hal_tim.c **** 
 1899              		.loc 1 925 0
 1900 0056 08E0     		b	.L122
 1901              	.L121:
 930:cube/Drivers/STM32F0xx_HAL_Driver/Src/stm32f0xx_hal_tim.c ****     }
 1902              		.loc 1 930 0
 1903 0058 7B68     		ldr	r3, [r7, #4]
 1904 005a 1B68     		ldr	r3, [r3]
 1905 005c DA68     		ldr	r2, [r3, #12]
 1906 005e 7B68     		ldr	r3, [r7, #4]
 1907 0060 1B68     		ldr	r3, [r3]
ARM GAS  /tmp/ccnYXliM.s 			page 51


 1908 0062 2D49     		ldr	r1, .L129+12
 1909 0064 0A40     		ands	r2, r1
 1910 0066 DA60     		str	r2, [r3, #12]
 932:cube/Drivers/STM32F0xx_HAL_Driver/Src/stm32f0xx_hal_tim.c **** 
 1911              		.loc 1 932 0
 1912 0068 C046     		nop
 1913              	.L122:
 936:cube/Drivers/STM32F0xx_HAL_Driver/Src/stm32f0xx_hal_tim.c ****   }
 937:cube/Drivers/STM32F0xx_HAL_Driver/Src/stm32f0xx_hal_tim.c **** 
 938:cube/Drivers/STM32F0xx_HAL_Driver/Src/stm32f0xx_hal_tim.c ****   /* Disable the Output compare channel */
 939:cube/Drivers/STM32F0xx_HAL_Driver/Src/stm32f0xx_hal_tim.c ****   TIM_CCxChannelCmd(htim->Instance, Channel, TIM_CCx_DISABLE);
 1914              		.loc 1 939 0
 1915 006a 7B68     		ldr	r3, [r7, #4]
 1916 006c 1B68     		ldr	r3, [r3]
 1917 006e 3968     		ldr	r1, [r7]
 1918 0070 0022     		movs	r2, #0
 1919 0072 1800     		movs	r0, r3
 1920 0074 FFF7FEFF 		bl	TIM_CCxChannelCmd
 940:cube/Drivers/STM32F0xx_HAL_Driver/Src/stm32f0xx_hal_tim.c **** 
 941:cube/Drivers/STM32F0xx_HAL_Driver/Src/stm32f0xx_hal_tim.c ****   if(IS_TIM_BREAK_INSTANCE(htim->Instance) != RESET)
 1921              		.loc 1 941 0
 1922 0078 7B68     		ldr	r3, [r7, #4]
 1923 007a 1B68     		ldr	r3, [r3]
 1924 007c 274A     		ldr	r2, .L129+16
 1925 007e 9342     		cmp	r3, r2
 1926 0080 0ED0     		beq	.L123
 1927              		.loc 1 941 0 is_stmt 0 discriminator 2
 1928 0082 7B68     		ldr	r3, [r7, #4]
 1929 0084 1B68     		ldr	r3, [r3]
 1930 0086 264A     		ldr	r2, .L129+20
 1931 0088 9342     		cmp	r3, r2
 1932 008a 09D0     		beq	.L123
 1933              		.loc 1 941 0 discriminator 4
 1934 008c 7B68     		ldr	r3, [r7, #4]
 1935 008e 1B68     		ldr	r3, [r3]
 1936 0090 244A     		ldr	r2, .L129+24
 1937 0092 9342     		cmp	r3, r2
 1938 0094 04D0     		beq	.L123
 1939              		.loc 1 941 0 discriminator 6
 1940 0096 7B68     		ldr	r3, [r7, #4]
 1941 0098 1B68     		ldr	r3, [r3]
 1942 009a 234A     		ldr	r2, .L129+28
 1943 009c 9342     		cmp	r3, r2
 1944 009e 01D1     		bne	.L124
 1945              	.L123:
 1946              		.loc 1 941 0 discriminator 7
 1947 00a0 0123     		movs	r3, #1
 1948 00a2 00E0     		b	.L125
 1949              	.L124:
 1950              		.loc 1 941 0 discriminator 8
 1951 00a4 0023     		movs	r3, #0
 1952              	.L125:
 1953              		.loc 1 941 0 discriminator 10
 1954 00a6 002B     		cmp	r3, #0
 1955 00a8 13D0     		beq	.L126
 942:cube/Drivers/STM32F0xx_HAL_Driver/Src/stm32f0xx_hal_tim.c ****   {
 943:cube/Drivers/STM32F0xx_HAL_Driver/Src/stm32f0xx_hal_tim.c ****     /* Disable the Main Ouput */
ARM GAS  /tmp/ccnYXliM.s 			page 52


 944:cube/Drivers/STM32F0xx_HAL_Driver/Src/stm32f0xx_hal_tim.c ****     __HAL_TIM_MOE_DISABLE(htim);
 1956              		.loc 1 944 0 is_stmt 1
 1957 00aa 7B68     		ldr	r3, [r7, #4]
 1958 00ac 1B68     		ldr	r3, [r3]
 1959 00ae 1B6A     		ldr	r3, [r3, #32]
 1960 00b0 1E4A     		ldr	r2, .L129+32
 1961 00b2 1340     		ands	r3, r2
 1962 00b4 0DD1     		bne	.L126
 1963              		.loc 1 944 0 is_stmt 0 discriminator 1
 1964 00b6 7B68     		ldr	r3, [r7, #4]
 1965 00b8 1B68     		ldr	r3, [r3]
 1966 00ba 1B6A     		ldr	r3, [r3, #32]
 1967 00bc 1C4A     		ldr	r2, .L129+36
 1968 00be 1340     		ands	r3, r2
 1969 00c0 07D1     		bne	.L126
 1970              		.loc 1 944 0 discriminator 2
 1971 00c2 7B68     		ldr	r3, [r7, #4]
 1972 00c4 1B68     		ldr	r3, [r3]
 1973 00c6 5A6C     		ldr	r2, [r3, #68]
 1974 00c8 7B68     		ldr	r3, [r7, #4]
 1975 00ca 1B68     		ldr	r3, [r3]
 1976 00cc 1949     		ldr	r1, .L129+40
 1977 00ce 0A40     		ands	r2, r1
 1978 00d0 5A64     		str	r2, [r3, #68]
 1979              	.L126:
 945:cube/Drivers/STM32F0xx_HAL_Driver/Src/stm32f0xx_hal_tim.c ****   }
 946:cube/Drivers/STM32F0xx_HAL_Driver/Src/stm32f0xx_hal_tim.c **** 
 947:cube/Drivers/STM32F0xx_HAL_Driver/Src/stm32f0xx_hal_tim.c ****   /* Disable the Peripheral */
 948:cube/Drivers/STM32F0xx_HAL_Driver/Src/stm32f0xx_hal_tim.c ****   __HAL_TIM_DISABLE(htim);
 1980              		.loc 1 948 0 is_stmt 1
 1981 00d2 7B68     		ldr	r3, [r7, #4]
 1982 00d4 1B68     		ldr	r3, [r3]
 1983 00d6 1B6A     		ldr	r3, [r3, #32]
 1984 00d8 144A     		ldr	r2, .L129+32
 1985 00da 1340     		ands	r3, r2
 1986 00dc 0DD1     		bne	.L127
 1987              		.loc 1 948 0 is_stmt 0 discriminator 1
 1988 00de 7B68     		ldr	r3, [r7, #4]
 1989 00e0 1B68     		ldr	r3, [r3]
 1990 00e2 1B6A     		ldr	r3, [r3, #32]
 1991 00e4 124A     		ldr	r2, .L129+36
 1992 00e6 1340     		ands	r3, r2
 1993 00e8 07D1     		bne	.L127
 1994              		.loc 1 948 0 discriminator 2
 1995 00ea 7B68     		ldr	r3, [r7, #4]
 1996 00ec 1B68     		ldr	r3, [r3]
 1997 00ee 1A68     		ldr	r2, [r3]
 1998 00f0 7B68     		ldr	r3, [r7, #4]
 1999 00f2 1B68     		ldr	r3, [r3]
 2000 00f4 0121     		movs	r1, #1
 2001 00f6 8A43     		bics	r2, r1
 2002 00f8 1A60     		str	r2, [r3]
 2003              	.L127:
 949:cube/Drivers/STM32F0xx_HAL_Driver/Src/stm32f0xx_hal_tim.c **** 
 950:cube/Drivers/STM32F0xx_HAL_Driver/Src/stm32f0xx_hal_tim.c ****   /* Change the htim state */
 951:cube/Drivers/STM32F0xx_HAL_Driver/Src/stm32f0xx_hal_tim.c ****   htim->State = HAL_TIM_STATE_READY;
 2004              		.loc 1 951 0 is_stmt 1
ARM GAS  /tmp/ccnYXliM.s 			page 53


 2005 00fa 7B68     		ldr	r3, [r7, #4]
 2006 00fc 3D22     		movs	r2, #61
 2007 00fe 0121     		movs	r1, #1
 2008 0100 9954     		strb	r1, [r3, r2]
 952:cube/Drivers/STM32F0xx_HAL_Driver/Src/stm32f0xx_hal_tim.c **** 
 953:cube/Drivers/STM32F0xx_HAL_Driver/Src/stm32f0xx_hal_tim.c ****   /* Return function status */
 954:cube/Drivers/STM32F0xx_HAL_Driver/Src/stm32f0xx_hal_tim.c ****   return HAL_OK;
 2009              		.loc 1 954 0
 2010 0102 0023     		movs	r3, #0
 955:cube/Drivers/STM32F0xx_HAL_Driver/Src/stm32f0xx_hal_tim.c **** }
 2011              		.loc 1 955 0
 2012 0104 1800     		movs	r0, r3
 2013 0106 BD46     		mov	sp, r7
 2014 0108 02B0     		add	sp, sp, #8
 2015              		@ sp needed
 2016 010a 80BD     		pop	{r7, pc}
 2017              	.L130:
 2018              		.align	2
 2019              	.L129:
 2020 010c FFFDFFFF 		.word	-513
 2021 0110 FFFBFFFF 		.word	-1025
 2022 0114 FFF7FFFF 		.word	-2049
 2023 0118 FFEFFFFF 		.word	-4097
 2024 011c 002C0140 		.word	1073818624
 2025 0120 00400140 		.word	1073823744
 2026 0124 00440140 		.word	1073824768
 2027 0128 00480140 		.word	1073825792
 2028 012c 11110000 		.word	4369
 2029 0130 44040000 		.word	1092
 2030 0134 FF7FFFFF 		.word	-32769
 2031              		.cfi_endproc
 2032              	.LFE56:
 2034              		.section	.text.HAL_TIM_PWM_Init,"ax",%progbits
 2035              		.align	1
 2036              		.global	HAL_TIM_PWM_Init
 2037              		.syntax unified
 2038              		.code	16
 2039              		.thumb_func
 2040              		.fpu softvfp
 2042              	HAL_TIM_PWM_Init:
 2043              	.LFB57:
 956:cube/Drivers/STM32F0xx_HAL_Driver/Src/stm32f0xx_hal_tim.c **** 
 957:cube/Drivers/STM32F0xx_HAL_Driver/Src/stm32f0xx_hal_tim.c **** /**
 958:cube/Drivers/STM32F0xx_HAL_Driver/Src/stm32f0xx_hal_tim.c ****   * @}
 959:cube/Drivers/STM32F0xx_HAL_Driver/Src/stm32f0xx_hal_tim.c ****   */
 960:cube/Drivers/STM32F0xx_HAL_Driver/Src/stm32f0xx_hal_tim.c **** 
 961:cube/Drivers/STM32F0xx_HAL_Driver/Src/stm32f0xx_hal_tim.c **** /** @defgroup TIM_Exported_Functions_Group3 Time PWM functions 
 962:cube/Drivers/STM32F0xx_HAL_Driver/Src/stm32f0xx_hal_tim.c ****  *  @brief    Time PWM functions 
 963:cube/Drivers/STM32F0xx_HAL_Driver/Src/stm32f0xx_hal_tim.c ****  *
 964:cube/Drivers/STM32F0xx_HAL_Driver/Src/stm32f0xx_hal_tim.c **** @verbatim 
 965:cube/Drivers/STM32F0xx_HAL_Driver/Src/stm32f0xx_hal_tim.c ****   ==============================================================================
 966:cube/Drivers/STM32F0xx_HAL_Driver/Src/stm32f0xx_hal_tim.c ****                           ##### Time PWM functions #####
 967:cube/Drivers/STM32F0xx_HAL_Driver/Src/stm32f0xx_hal_tim.c ****   ==============================================================================
 968:cube/Drivers/STM32F0xx_HAL_Driver/Src/stm32f0xx_hal_tim.c ****   [..]
 969:cube/Drivers/STM32F0xx_HAL_Driver/Src/stm32f0xx_hal_tim.c ****     This section provides functions allowing to:
 970:cube/Drivers/STM32F0xx_HAL_Driver/Src/stm32f0xx_hal_tim.c ****     (+) Initialize and configure the TIM OPWM.
 971:cube/Drivers/STM32F0xx_HAL_Driver/Src/stm32f0xx_hal_tim.c ****     (+) De-initialize the TIM PWM.
ARM GAS  /tmp/ccnYXliM.s 			page 54


 972:cube/Drivers/STM32F0xx_HAL_Driver/Src/stm32f0xx_hal_tim.c ****     (+) Start the Time PWM.
 973:cube/Drivers/STM32F0xx_HAL_Driver/Src/stm32f0xx_hal_tim.c ****     (+) Stop the Time PWM.
 974:cube/Drivers/STM32F0xx_HAL_Driver/Src/stm32f0xx_hal_tim.c ****     (+) Start the Time PWM and enable interrupt.
 975:cube/Drivers/STM32F0xx_HAL_Driver/Src/stm32f0xx_hal_tim.c ****     (+) Stop the Time PWM and disable interrupt.
 976:cube/Drivers/STM32F0xx_HAL_Driver/Src/stm32f0xx_hal_tim.c ****     (+) Start the Time PWM and enable DMA transfer.
 977:cube/Drivers/STM32F0xx_HAL_Driver/Src/stm32f0xx_hal_tim.c ****     (+) Stop the Time PWM and disable DMA transfer.
 978:cube/Drivers/STM32F0xx_HAL_Driver/Src/stm32f0xx_hal_tim.c **** 
 979:cube/Drivers/STM32F0xx_HAL_Driver/Src/stm32f0xx_hal_tim.c **** @endverbatim
 980:cube/Drivers/STM32F0xx_HAL_Driver/Src/stm32f0xx_hal_tim.c ****   * @{
 981:cube/Drivers/STM32F0xx_HAL_Driver/Src/stm32f0xx_hal_tim.c ****   */
 982:cube/Drivers/STM32F0xx_HAL_Driver/Src/stm32f0xx_hal_tim.c **** /**
 983:cube/Drivers/STM32F0xx_HAL_Driver/Src/stm32f0xx_hal_tim.c ****   * @brief  Initializes the TIM PWM Time Base according to the specified
 984:cube/Drivers/STM32F0xx_HAL_Driver/Src/stm32f0xx_hal_tim.c ****   *         parameters in the TIM_HandleTypeDef and create the associated handle.
 985:cube/Drivers/STM32F0xx_HAL_Driver/Src/stm32f0xx_hal_tim.c ****   * @param  htim TIM handle
 986:cube/Drivers/STM32F0xx_HAL_Driver/Src/stm32f0xx_hal_tim.c ****   * @retval HAL status
 987:cube/Drivers/STM32F0xx_HAL_Driver/Src/stm32f0xx_hal_tim.c ****   */
 988:cube/Drivers/STM32F0xx_HAL_Driver/Src/stm32f0xx_hal_tim.c **** HAL_StatusTypeDef HAL_TIM_PWM_Init(TIM_HandleTypeDef *htim)
 989:cube/Drivers/STM32F0xx_HAL_Driver/Src/stm32f0xx_hal_tim.c **** {
 2044              		.loc 1 989 0
 2045              		.cfi_startproc
 2046              		@ args = 0, pretend = 0, frame = 8
 2047              		@ frame_needed = 1, uses_anonymous_args = 0
 2048 0000 80B5     		push	{r7, lr}
 2049              		.cfi_def_cfa_offset 8
 2050              		.cfi_offset 7, -8
 2051              		.cfi_offset 14, -4
 2052 0002 82B0     		sub	sp, sp, #8
 2053              		.cfi_def_cfa_offset 16
 2054 0004 00AF     		add	r7, sp, #0
 2055              		.cfi_def_cfa_register 7
 2056 0006 7860     		str	r0, [r7, #4]
 990:cube/Drivers/STM32F0xx_HAL_Driver/Src/stm32f0xx_hal_tim.c ****   /* Check the TIM handle allocation */
 991:cube/Drivers/STM32F0xx_HAL_Driver/Src/stm32f0xx_hal_tim.c ****   if(htim == NULL)
 2057              		.loc 1 991 0
 2058 0008 7B68     		ldr	r3, [r7, #4]
 2059 000a 002B     		cmp	r3, #0
 2060 000c 01D1     		bne	.L132
 992:cube/Drivers/STM32F0xx_HAL_Driver/Src/stm32f0xx_hal_tim.c ****   {
 993:cube/Drivers/STM32F0xx_HAL_Driver/Src/stm32f0xx_hal_tim.c ****     return HAL_ERROR;
 2061              		.loc 1 993 0
 2062 000e 0123     		movs	r3, #1
 2063 0010 1EE0     		b	.L133
 2064              	.L132:
 994:cube/Drivers/STM32F0xx_HAL_Driver/Src/stm32f0xx_hal_tim.c ****   }
 995:cube/Drivers/STM32F0xx_HAL_Driver/Src/stm32f0xx_hal_tim.c **** 
 996:cube/Drivers/STM32F0xx_HAL_Driver/Src/stm32f0xx_hal_tim.c ****   /* Check the parameters */
 997:cube/Drivers/STM32F0xx_HAL_Driver/Src/stm32f0xx_hal_tim.c ****   assert_param(IS_TIM_INSTANCE(htim->Instance));
 998:cube/Drivers/STM32F0xx_HAL_Driver/Src/stm32f0xx_hal_tim.c ****   assert_param(IS_TIM_COUNTER_MODE(htim->Init.CounterMode));
 999:cube/Drivers/STM32F0xx_HAL_Driver/Src/stm32f0xx_hal_tim.c ****   assert_param(IS_TIM_CLOCKDIVISION_DIV(htim->Init.ClockDivision));
1000:cube/Drivers/STM32F0xx_HAL_Driver/Src/stm32f0xx_hal_tim.c ****   assert_param(IS_TIM_AUTORELOAD_PRELOAD(htim->Init.AutoReloadPreload));
1001:cube/Drivers/STM32F0xx_HAL_Driver/Src/stm32f0xx_hal_tim.c **** 
1002:cube/Drivers/STM32F0xx_HAL_Driver/Src/stm32f0xx_hal_tim.c ****   if(htim->State == HAL_TIM_STATE_RESET)
 2065              		.loc 1 1002 0
 2066 0012 7B68     		ldr	r3, [r7, #4]
 2067 0014 3D22     		movs	r2, #61
 2068 0016 9B5C     		ldrb	r3, [r3, r2]
 2069 0018 DBB2     		uxtb	r3, r3
ARM GAS  /tmp/ccnYXliM.s 			page 55


 2070 001a 002B     		cmp	r3, #0
 2071 001c 07D1     		bne	.L134
1003:cube/Drivers/STM32F0xx_HAL_Driver/Src/stm32f0xx_hal_tim.c ****   {
1004:cube/Drivers/STM32F0xx_HAL_Driver/Src/stm32f0xx_hal_tim.c ****     /* Allocate lock resource and initialize it */
1005:cube/Drivers/STM32F0xx_HAL_Driver/Src/stm32f0xx_hal_tim.c ****     htim->Lock = HAL_UNLOCKED;
 2072              		.loc 1 1005 0
 2073 001e 7B68     		ldr	r3, [r7, #4]
 2074 0020 3C22     		movs	r2, #60
 2075 0022 0021     		movs	r1, #0
 2076 0024 9954     		strb	r1, [r3, r2]
1006:cube/Drivers/STM32F0xx_HAL_Driver/Src/stm32f0xx_hal_tim.c **** 
1007:cube/Drivers/STM32F0xx_HAL_Driver/Src/stm32f0xx_hal_tim.c ****     /* Init the low level hardware : GPIO, CLOCK, NVIC and DMA */
1008:cube/Drivers/STM32F0xx_HAL_Driver/Src/stm32f0xx_hal_tim.c ****     HAL_TIM_PWM_MspInit(htim);
 2077              		.loc 1 1008 0
 2078 0026 7B68     		ldr	r3, [r7, #4]
 2079 0028 1800     		movs	r0, r3
 2080 002a FFF7FEFF 		bl	HAL_TIM_PWM_MspInit
 2081              	.L134:
1009:cube/Drivers/STM32F0xx_HAL_Driver/Src/stm32f0xx_hal_tim.c ****   }
1010:cube/Drivers/STM32F0xx_HAL_Driver/Src/stm32f0xx_hal_tim.c **** 
1011:cube/Drivers/STM32F0xx_HAL_Driver/Src/stm32f0xx_hal_tim.c ****   /* Set the TIM state */
1012:cube/Drivers/STM32F0xx_HAL_Driver/Src/stm32f0xx_hal_tim.c ****   htim->State= HAL_TIM_STATE_BUSY;
 2082              		.loc 1 1012 0
 2083 002e 7B68     		ldr	r3, [r7, #4]
 2084 0030 3D22     		movs	r2, #61
 2085 0032 0221     		movs	r1, #2
 2086 0034 9954     		strb	r1, [r3, r2]
1013:cube/Drivers/STM32F0xx_HAL_Driver/Src/stm32f0xx_hal_tim.c **** 
1014:cube/Drivers/STM32F0xx_HAL_Driver/Src/stm32f0xx_hal_tim.c ****   /* Init the base time for the PWM */
1015:cube/Drivers/STM32F0xx_HAL_Driver/Src/stm32f0xx_hal_tim.c ****   TIM_Base_SetConfig(htim->Instance, &htim->Init);
 2087              		.loc 1 1015 0
 2088 0036 7B68     		ldr	r3, [r7, #4]
 2089 0038 1A68     		ldr	r2, [r3]
 2090 003a 7B68     		ldr	r3, [r7, #4]
 2091 003c 0433     		adds	r3, r3, #4
 2092 003e 1900     		movs	r1, r3
 2093 0040 1000     		movs	r0, r2
 2094 0042 FFF7FEFF 		bl	TIM_Base_SetConfig
1016:cube/Drivers/STM32F0xx_HAL_Driver/Src/stm32f0xx_hal_tim.c **** 
1017:cube/Drivers/STM32F0xx_HAL_Driver/Src/stm32f0xx_hal_tim.c ****   /* Initialize the TIM state*/
1018:cube/Drivers/STM32F0xx_HAL_Driver/Src/stm32f0xx_hal_tim.c ****   htim->State= HAL_TIM_STATE_READY;
 2095              		.loc 1 1018 0
 2096 0046 7B68     		ldr	r3, [r7, #4]
 2097 0048 3D22     		movs	r2, #61
 2098 004a 0121     		movs	r1, #1
 2099 004c 9954     		strb	r1, [r3, r2]
1019:cube/Drivers/STM32F0xx_HAL_Driver/Src/stm32f0xx_hal_tim.c **** 
1020:cube/Drivers/STM32F0xx_HAL_Driver/Src/stm32f0xx_hal_tim.c ****   return HAL_OK;
 2100              		.loc 1 1020 0
 2101 004e 0023     		movs	r3, #0
 2102              	.L133:
1021:cube/Drivers/STM32F0xx_HAL_Driver/Src/stm32f0xx_hal_tim.c **** }
 2103              		.loc 1 1021 0
 2104 0050 1800     		movs	r0, r3
 2105 0052 BD46     		mov	sp, r7
 2106 0054 02B0     		add	sp, sp, #8
 2107              		@ sp needed
ARM GAS  /tmp/ccnYXliM.s 			page 56


 2108 0056 80BD     		pop	{r7, pc}
 2109              		.cfi_endproc
 2110              	.LFE57:
 2112              		.section	.text.HAL_TIM_PWM_DeInit,"ax",%progbits
 2113              		.align	1
 2114              		.global	HAL_TIM_PWM_DeInit
 2115              		.syntax unified
 2116              		.code	16
 2117              		.thumb_func
 2118              		.fpu softvfp
 2120              	HAL_TIM_PWM_DeInit:
 2121              	.LFB58:
1022:cube/Drivers/STM32F0xx_HAL_Driver/Src/stm32f0xx_hal_tim.c **** 
1023:cube/Drivers/STM32F0xx_HAL_Driver/Src/stm32f0xx_hal_tim.c **** /**
1024:cube/Drivers/STM32F0xx_HAL_Driver/Src/stm32f0xx_hal_tim.c ****   * @brief  DeInitializes the TIM peripheral 
1025:cube/Drivers/STM32F0xx_HAL_Driver/Src/stm32f0xx_hal_tim.c ****   * @param  htim TIM handle
1026:cube/Drivers/STM32F0xx_HAL_Driver/Src/stm32f0xx_hal_tim.c ****   * @retval HAL status
1027:cube/Drivers/STM32F0xx_HAL_Driver/Src/stm32f0xx_hal_tim.c ****   */
1028:cube/Drivers/STM32F0xx_HAL_Driver/Src/stm32f0xx_hal_tim.c **** HAL_StatusTypeDef HAL_TIM_PWM_DeInit(TIM_HandleTypeDef *htim)
1029:cube/Drivers/STM32F0xx_HAL_Driver/Src/stm32f0xx_hal_tim.c **** {
 2122              		.loc 1 1029 0
 2123              		.cfi_startproc
 2124              		@ args = 0, pretend = 0, frame = 8
 2125              		@ frame_needed = 1, uses_anonymous_args = 0
 2126 0000 80B5     		push	{r7, lr}
 2127              		.cfi_def_cfa_offset 8
 2128              		.cfi_offset 7, -8
 2129              		.cfi_offset 14, -4
 2130 0002 82B0     		sub	sp, sp, #8
 2131              		.cfi_def_cfa_offset 16
 2132 0004 00AF     		add	r7, sp, #0
 2133              		.cfi_def_cfa_register 7
 2134 0006 7860     		str	r0, [r7, #4]
1030:cube/Drivers/STM32F0xx_HAL_Driver/Src/stm32f0xx_hal_tim.c ****   /* Check the parameters */
1031:cube/Drivers/STM32F0xx_HAL_Driver/Src/stm32f0xx_hal_tim.c ****   assert_param(IS_TIM_INSTANCE(htim->Instance));
1032:cube/Drivers/STM32F0xx_HAL_Driver/Src/stm32f0xx_hal_tim.c **** 
1033:cube/Drivers/STM32F0xx_HAL_Driver/Src/stm32f0xx_hal_tim.c ****   htim->State = HAL_TIM_STATE_BUSY;
 2135              		.loc 1 1033 0
 2136 0008 7B68     		ldr	r3, [r7, #4]
 2137 000a 3D22     		movs	r2, #61
 2138 000c 0221     		movs	r1, #2
 2139 000e 9954     		strb	r1, [r3, r2]
1034:cube/Drivers/STM32F0xx_HAL_Driver/Src/stm32f0xx_hal_tim.c **** 
1035:cube/Drivers/STM32F0xx_HAL_Driver/Src/stm32f0xx_hal_tim.c ****   /* Disable the TIM Peripheral Clock */
1036:cube/Drivers/STM32F0xx_HAL_Driver/Src/stm32f0xx_hal_tim.c ****   __HAL_TIM_DISABLE(htim);
 2140              		.loc 1 1036 0
 2141 0010 7B68     		ldr	r3, [r7, #4]
 2142 0012 1B68     		ldr	r3, [r3]
 2143 0014 1B6A     		ldr	r3, [r3, #32]
 2144 0016 114A     		ldr	r2, .L138
 2145 0018 1340     		ands	r3, r2
 2146 001a 0DD1     		bne	.L136
 2147              		.loc 1 1036 0 is_stmt 0 discriminator 1
 2148 001c 7B68     		ldr	r3, [r7, #4]
 2149 001e 1B68     		ldr	r3, [r3]
 2150 0020 1B6A     		ldr	r3, [r3, #32]
 2151 0022 0F4A     		ldr	r2, .L138+4
ARM GAS  /tmp/ccnYXliM.s 			page 57


 2152 0024 1340     		ands	r3, r2
 2153 0026 07D1     		bne	.L136
 2154              		.loc 1 1036 0 discriminator 2
 2155 0028 7B68     		ldr	r3, [r7, #4]
 2156 002a 1B68     		ldr	r3, [r3]
 2157 002c 1A68     		ldr	r2, [r3]
 2158 002e 7B68     		ldr	r3, [r7, #4]
 2159 0030 1B68     		ldr	r3, [r3]
 2160 0032 0121     		movs	r1, #1
 2161 0034 8A43     		bics	r2, r1
 2162 0036 1A60     		str	r2, [r3]
 2163              	.L136:
1037:cube/Drivers/STM32F0xx_HAL_Driver/Src/stm32f0xx_hal_tim.c **** 
1038:cube/Drivers/STM32F0xx_HAL_Driver/Src/stm32f0xx_hal_tim.c ****   /* DeInit the low level hardware: GPIO, CLOCK, NVIC and DMA */
1039:cube/Drivers/STM32F0xx_HAL_Driver/Src/stm32f0xx_hal_tim.c ****   HAL_TIM_PWM_MspDeInit(htim);
 2164              		.loc 1 1039 0 is_stmt 1
 2165 0038 7B68     		ldr	r3, [r7, #4]
 2166 003a 1800     		movs	r0, r3
 2167 003c FFF7FEFF 		bl	HAL_TIM_PWM_MspDeInit
1040:cube/Drivers/STM32F0xx_HAL_Driver/Src/stm32f0xx_hal_tim.c **** 
1041:cube/Drivers/STM32F0xx_HAL_Driver/Src/stm32f0xx_hal_tim.c ****   /* Change TIM state */
1042:cube/Drivers/STM32F0xx_HAL_Driver/Src/stm32f0xx_hal_tim.c ****   htim->State = HAL_TIM_STATE_RESET;
 2168              		.loc 1 1042 0
 2169 0040 7B68     		ldr	r3, [r7, #4]
 2170 0042 3D22     		movs	r2, #61
 2171 0044 0021     		movs	r1, #0
 2172 0046 9954     		strb	r1, [r3, r2]
1043:cube/Drivers/STM32F0xx_HAL_Driver/Src/stm32f0xx_hal_tim.c **** 
1044:cube/Drivers/STM32F0xx_HAL_Driver/Src/stm32f0xx_hal_tim.c ****   /* Release Lock */
1045:cube/Drivers/STM32F0xx_HAL_Driver/Src/stm32f0xx_hal_tim.c ****   __HAL_UNLOCK(htim);
 2173              		.loc 1 1045 0
 2174 0048 7B68     		ldr	r3, [r7, #4]
 2175 004a 3C22     		movs	r2, #60
 2176 004c 0021     		movs	r1, #0
 2177 004e 9954     		strb	r1, [r3, r2]
1046:cube/Drivers/STM32F0xx_HAL_Driver/Src/stm32f0xx_hal_tim.c **** 
1047:cube/Drivers/STM32F0xx_HAL_Driver/Src/stm32f0xx_hal_tim.c ****   return HAL_OK;
 2178              		.loc 1 1047 0
 2179 0050 0023     		movs	r3, #0
1048:cube/Drivers/STM32F0xx_HAL_Driver/Src/stm32f0xx_hal_tim.c **** }
 2180              		.loc 1 1048 0
 2181 0052 1800     		movs	r0, r3
 2182 0054 BD46     		mov	sp, r7
 2183 0056 02B0     		add	sp, sp, #8
 2184              		@ sp needed
 2185 0058 80BD     		pop	{r7, pc}
 2186              	.L139:
 2187 005a C046     		.align	2
 2188              	.L138:
 2189 005c 11110000 		.word	4369
 2190 0060 44040000 		.word	1092
 2191              		.cfi_endproc
 2192              	.LFE58:
 2194              		.section	.text.HAL_TIM_PWM_MspInit,"ax",%progbits
 2195              		.align	1
 2196              		.weak	HAL_TIM_PWM_MspInit
 2197              		.syntax unified
ARM GAS  /tmp/ccnYXliM.s 			page 58


 2198              		.code	16
 2199              		.thumb_func
 2200              		.fpu softvfp
 2202              	HAL_TIM_PWM_MspInit:
 2203              	.LFB59:
1049:cube/Drivers/STM32F0xx_HAL_Driver/Src/stm32f0xx_hal_tim.c **** 
1050:cube/Drivers/STM32F0xx_HAL_Driver/Src/stm32f0xx_hal_tim.c **** /**
1051:cube/Drivers/STM32F0xx_HAL_Driver/Src/stm32f0xx_hal_tim.c ****   * @brief  Initializes the TIM PWM MSP.
1052:cube/Drivers/STM32F0xx_HAL_Driver/Src/stm32f0xx_hal_tim.c ****   * @param  htim TIM handle
1053:cube/Drivers/STM32F0xx_HAL_Driver/Src/stm32f0xx_hal_tim.c ****   * @retval None
1054:cube/Drivers/STM32F0xx_HAL_Driver/Src/stm32f0xx_hal_tim.c ****   */
1055:cube/Drivers/STM32F0xx_HAL_Driver/Src/stm32f0xx_hal_tim.c **** __weak void HAL_TIM_PWM_MspInit(TIM_HandleTypeDef *htim)
1056:cube/Drivers/STM32F0xx_HAL_Driver/Src/stm32f0xx_hal_tim.c **** {
 2204              		.loc 1 1056 0
 2205              		.cfi_startproc
 2206              		@ args = 0, pretend = 0, frame = 8
 2207              		@ frame_needed = 1, uses_anonymous_args = 0
 2208 0000 80B5     		push	{r7, lr}
 2209              		.cfi_def_cfa_offset 8
 2210              		.cfi_offset 7, -8
 2211              		.cfi_offset 14, -4
 2212 0002 82B0     		sub	sp, sp, #8
 2213              		.cfi_def_cfa_offset 16
 2214 0004 00AF     		add	r7, sp, #0
 2215              		.cfi_def_cfa_register 7
 2216 0006 7860     		str	r0, [r7, #4]
1057:cube/Drivers/STM32F0xx_HAL_Driver/Src/stm32f0xx_hal_tim.c ****   /* Prevent unused argument(s) compilation warning */
1058:cube/Drivers/STM32F0xx_HAL_Driver/Src/stm32f0xx_hal_tim.c ****   UNUSED(htim);
1059:cube/Drivers/STM32F0xx_HAL_Driver/Src/stm32f0xx_hal_tim.c **** 
1060:cube/Drivers/STM32F0xx_HAL_Driver/Src/stm32f0xx_hal_tim.c ****   /* NOTE : This function Should not be modified, when the callback is needed,
1061:cube/Drivers/STM32F0xx_HAL_Driver/Src/stm32f0xx_hal_tim.c ****             the HAL_TIM_PWM_MspInit could be implemented in the user file
1062:cube/Drivers/STM32F0xx_HAL_Driver/Src/stm32f0xx_hal_tim.c ****    */
1063:cube/Drivers/STM32F0xx_HAL_Driver/Src/stm32f0xx_hal_tim.c **** }
 2217              		.loc 1 1063 0
 2218 0008 C046     		nop
 2219 000a BD46     		mov	sp, r7
 2220 000c 02B0     		add	sp, sp, #8
 2221              		@ sp needed
 2222 000e 80BD     		pop	{r7, pc}
 2223              		.cfi_endproc
 2224              	.LFE59:
 2226              		.section	.text.HAL_TIM_PWM_MspDeInit,"ax",%progbits
 2227              		.align	1
 2228              		.weak	HAL_TIM_PWM_MspDeInit
 2229              		.syntax unified
 2230              		.code	16
 2231              		.thumb_func
 2232              		.fpu softvfp
 2234              	HAL_TIM_PWM_MspDeInit:
 2235              	.LFB60:
1064:cube/Drivers/STM32F0xx_HAL_Driver/Src/stm32f0xx_hal_tim.c **** 
1065:cube/Drivers/STM32F0xx_HAL_Driver/Src/stm32f0xx_hal_tim.c **** /**
1066:cube/Drivers/STM32F0xx_HAL_Driver/Src/stm32f0xx_hal_tim.c ****   * @brief  DeInitializes TIM PWM MSP.
1067:cube/Drivers/STM32F0xx_HAL_Driver/Src/stm32f0xx_hal_tim.c ****   * @param  htim TIM handle
1068:cube/Drivers/STM32F0xx_HAL_Driver/Src/stm32f0xx_hal_tim.c ****   * @retval None
1069:cube/Drivers/STM32F0xx_HAL_Driver/Src/stm32f0xx_hal_tim.c ****   */
1070:cube/Drivers/STM32F0xx_HAL_Driver/Src/stm32f0xx_hal_tim.c **** __weak void HAL_TIM_PWM_MspDeInit(TIM_HandleTypeDef *htim)
ARM GAS  /tmp/ccnYXliM.s 			page 59


1071:cube/Drivers/STM32F0xx_HAL_Driver/Src/stm32f0xx_hal_tim.c **** {
 2236              		.loc 1 1071 0
 2237              		.cfi_startproc
 2238              		@ args = 0, pretend = 0, frame = 8
 2239              		@ frame_needed = 1, uses_anonymous_args = 0
 2240 0000 80B5     		push	{r7, lr}
 2241              		.cfi_def_cfa_offset 8
 2242              		.cfi_offset 7, -8
 2243              		.cfi_offset 14, -4
 2244 0002 82B0     		sub	sp, sp, #8
 2245              		.cfi_def_cfa_offset 16
 2246 0004 00AF     		add	r7, sp, #0
 2247              		.cfi_def_cfa_register 7
 2248 0006 7860     		str	r0, [r7, #4]
1072:cube/Drivers/STM32F0xx_HAL_Driver/Src/stm32f0xx_hal_tim.c ****   /* Prevent unused argument(s) compilation warning */
1073:cube/Drivers/STM32F0xx_HAL_Driver/Src/stm32f0xx_hal_tim.c ****   UNUSED(htim);
1074:cube/Drivers/STM32F0xx_HAL_Driver/Src/stm32f0xx_hal_tim.c **** 
1075:cube/Drivers/STM32F0xx_HAL_Driver/Src/stm32f0xx_hal_tim.c ****   /* NOTE : This function Should not be modified, when the callback is needed,
1076:cube/Drivers/STM32F0xx_HAL_Driver/Src/stm32f0xx_hal_tim.c ****             the HAL_TIM_PWM_MspDeInit could be implemented in the user file
1077:cube/Drivers/STM32F0xx_HAL_Driver/Src/stm32f0xx_hal_tim.c ****    */
1078:cube/Drivers/STM32F0xx_HAL_Driver/Src/stm32f0xx_hal_tim.c **** }
 2249              		.loc 1 1078 0
 2250 0008 C046     		nop
 2251 000a BD46     		mov	sp, r7
 2252 000c 02B0     		add	sp, sp, #8
 2253              		@ sp needed
 2254 000e 80BD     		pop	{r7, pc}
 2255              		.cfi_endproc
 2256              	.LFE60:
 2258              		.section	.text.HAL_TIM_PWM_Start,"ax",%progbits
 2259              		.align	1
 2260              		.global	HAL_TIM_PWM_Start
 2261              		.syntax unified
 2262              		.code	16
 2263              		.thumb_func
 2264              		.fpu softvfp
 2266              	HAL_TIM_PWM_Start:
 2267              	.LFB61:
1079:cube/Drivers/STM32F0xx_HAL_Driver/Src/stm32f0xx_hal_tim.c **** 
1080:cube/Drivers/STM32F0xx_HAL_Driver/Src/stm32f0xx_hal_tim.c **** /**
1081:cube/Drivers/STM32F0xx_HAL_Driver/Src/stm32f0xx_hal_tim.c ****   * @brief  Starts the PWM signal generation.
1082:cube/Drivers/STM32F0xx_HAL_Driver/Src/stm32f0xx_hal_tim.c ****   * @param  htim TIM handle
1083:cube/Drivers/STM32F0xx_HAL_Driver/Src/stm32f0xx_hal_tim.c ****   * @param  Channel TIM Channels to be enabled
1084:cube/Drivers/STM32F0xx_HAL_Driver/Src/stm32f0xx_hal_tim.c ****   *          This parameter can be one of the following values:
1085:cube/Drivers/STM32F0xx_HAL_Driver/Src/stm32f0xx_hal_tim.c ****   *            @arg TIM_CHANNEL_1: TIM Channel 1 selected
1086:cube/Drivers/STM32F0xx_HAL_Driver/Src/stm32f0xx_hal_tim.c ****   *            @arg TIM_CHANNEL_2: TIM Channel 2 selected
1087:cube/Drivers/STM32F0xx_HAL_Driver/Src/stm32f0xx_hal_tim.c ****   *            @arg TIM_CHANNEL_3: TIM Channel 3 selected
1088:cube/Drivers/STM32F0xx_HAL_Driver/Src/stm32f0xx_hal_tim.c ****   *            @arg TIM_CHANNEL_4: TIM Channel 4 selected
1089:cube/Drivers/STM32F0xx_HAL_Driver/Src/stm32f0xx_hal_tim.c ****   * @retval HAL status
1090:cube/Drivers/STM32F0xx_HAL_Driver/Src/stm32f0xx_hal_tim.c **** */
1091:cube/Drivers/STM32F0xx_HAL_Driver/Src/stm32f0xx_hal_tim.c **** HAL_StatusTypeDef HAL_TIM_PWM_Start(TIM_HandleTypeDef *htim, uint32_t Channel)
1092:cube/Drivers/STM32F0xx_HAL_Driver/Src/stm32f0xx_hal_tim.c **** {
 2268              		.loc 1 1092 0
 2269              		.cfi_startproc
 2270              		@ args = 0, pretend = 0, frame = 8
 2271              		@ frame_needed = 1, uses_anonymous_args = 0
 2272 0000 80B5     		push	{r7, lr}
ARM GAS  /tmp/ccnYXliM.s 			page 60


 2273              		.cfi_def_cfa_offset 8
 2274              		.cfi_offset 7, -8
 2275              		.cfi_offset 14, -4
 2276 0002 82B0     		sub	sp, sp, #8
 2277              		.cfi_def_cfa_offset 16
 2278 0004 00AF     		add	r7, sp, #0
 2279              		.cfi_def_cfa_register 7
 2280 0006 7860     		str	r0, [r7, #4]
 2281 0008 3960     		str	r1, [r7]
1093:cube/Drivers/STM32F0xx_HAL_Driver/Src/stm32f0xx_hal_tim.c ****   /* Check the parameters */
1094:cube/Drivers/STM32F0xx_HAL_Driver/Src/stm32f0xx_hal_tim.c ****   assert_param(IS_TIM_CCX_INSTANCE(htim->Instance, Channel));
1095:cube/Drivers/STM32F0xx_HAL_Driver/Src/stm32f0xx_hal_tim.c **** 
1096:cube/Drivers/STM32F0xx_HAL_Driver/Src/stm32f0xx_hal_tim.c ****   /* Enable the Capture compare channel */
1097:cube/Drivers/STM32F0xx_HAL_Driver/Src/stm32f0xx_hal_tim.c ****   TIM_CCxChannelCmd(htim->Instance, Channel, TIM_CCx_ENABLE);
 2282              		.loc 1 1097 0
 2283 000a 7B68     		ldr	r3, [r7, #4]
 2284 000c 1B68     		ldr	r3, [r3]
 2285 000e 3968     		ldr	r1, [r7]
 2286 0010 0122     		movs	r2, #1
 2287 0012 1800     		movs	r0, r3
 2288 0014 FFF7FEFF 		bl	TIM_CCxChannelCmd
1098:cube/Drivers/STM32F0xx_HAL_Driver/Src/stm32f0xx_hal_tim.c **** 
1099:cube/Drivers/STM32F0xx_HAL_Driver/Src/stm32f0xx_hal_tim.c ****   if(IS_TIM_BREAK_INSTANCE(htim->Instance) != RESET)
 2289              		.loc 1 1099 0
 2290 0018 7B68     		ldr	r3, [r7, #4]
 2291 001a 1B68     		ldr	r3, [r3]
 2292 001c 164A     		ldr	r2, .L148
 2293 001e 9342     		cmp	r3, r2
 2294 0020 0ED0     		beq	.L143
 2295              		.loc 1 1099 0 is_stmt 0 discriminator 2
 2296 0022 7B68     		ldr	r3, [r7, #4]
 2297 0024 1B68     		ldr	r3, [r3]
 2298 0026 154A     		ldr	r2, .L148+4
 2299 0028 9342     		cmp	r3, r2
 2300 002a 09D0     		beq	.L143
 2301              		.loc 1 1099 0 discriminator 4
 2302 002c 7B68     		ldr	r3, [r7, #4]
 2303 002e 1B68     		ldr	r3, [r3]
 2304 0030 134A     		ldr	r2, .L148+8
 2305 0032 9342     		cmp	r3, r2
 2306 0034 04D0     		beq	.L143
 2307              		.loc 1 1099 0 discriminator 6
 2308 0036 7B68     		ldr	r3, [r7, #4]
 2309 0038 1B68     		ldr	r3, [r3]
 2310 003a 124A     		ldr	r2, .L148+12
 2311 003c 9342     		cmp	r3, r2
 2312 003e 01D1     		bne	.L144
 2313              	.L143:
 2314              		.loc 1 1099 0 discriminator 7
 2315 0040 0123     		movs	r3, #1
 2316 0042 00E0     		b	.L145
 2317              	.L144:
 2318              		.loc 1 1099 0 discriminator 8
 2319 0044 0023     		movs	r3, #0
 2320              	.L145:
 2321              		.loc 1 1099 0 discriminator 10
 2322 0046 002B     		cmp	r3, #0
ARM GAS  /tmp/ccnYXliM.s 			page 61


 2323 0048 08D0     		beq	.L146
1100:cube/Drivers/STM32F0xx_HAL_Driver/Src/stm32f0xx_hal_tim.c ****   {
1101:cube/Drivers/STM32F0xx_HAL_Driver/Src/stm32f0xx_hal_tim.c ****     /* Enable the main output */
1102:cube/Drivers/STM32F0xx_HAL_Driver/Src/stm32f0xx_hal_tim.c ****     __HAL_TIM_MOE_ENABLE(htim);
 2324              		.loc 1 1102 0 is_stmt 1
 2325 004a 7B68     		ldr	r3, [r7, #4]
 2326 004c 1B68     		ldr	r3, [r3]
 2327 004e 5A6C     		ldr	r2, [r3, #68]
 2328 0050 7B68     		ldr	r3, [r7, #4]
 2329 0052 1B68     		ldr	r3, [r3]
 2330 0054 8021     		movs	r1, #128
 2331 0056 0902     		lsls	r1, r1, #8
 2332 0058 0A43     		orrs	r2, r1
 2333 005a 5A64     		str	r2, [r3, #68]
 2334              	.L146:
1103:cube/Drivers/STM32F0xx_HAL_Driver/Src/stm32f0xx_hal_tim.c ****   }
1104:cube/Drivers/STM32F0xx_HAL_Driver/Src/stm32f0xx_hal_tim.c **** 
1105:cube/Drivers/STM32F0xx_HAL_Driver/Src/stm32f0xx_hal_tim.c ****   /* Enable the Peripheral */
1106:cube/Drivers/STM32F0xx_HAL_Driver/Src/stm32f0xx_hal_tim.c ****   __HAL_TIM_ENABLE(htim);
 2335              		.loc 1 1106 0
 2336 005c 7B68     		ldr	r3, [r7, #4]
 2337 005e 1B68     		ldr	r3, [r3]
 2338 0060 1A68     		ldr	r2, [r3]
 2339 0062 7B68     		ldr	r3, [r7, #4]
 2340 0064 1B68     		ldr	r3, [r3]
 2341 0066 0121     		movs	r1, #1
 2342 0068 0A43     		orrs	r2, r1
 2343 006a 1A60     		str	r2, [r3]
1107:cube/Drivers/STM32F0xx_HAL_Driver/Src/stm32f0xx_hal_tim.c **** 
1108:cube/Drivers/STM32F0xx_HAL_Driver/Src/stm32f0xx_hal_tim.c ****   /* Return function status */
1109:cube/Drivers/STM32F0xx_HAL_Driver/Src/stm32f0xx_hal_tim.c ****   return HAL_OK;
 2344              		.loc 1 1109 0
 2345 006c 0023     		movs	r3, #0
1110:cube/Drivers/STM32F0xx_HAL_Driver/Src/stm32f0xx_hal_tim.c **** }
 2346              		.loc 1 1110 0
 2347 006e 1800     		movs	r0, r3
 2348 0070 BD46     		mov	sp, r7
 2349 0072 02B0     		add	sp, sp, #8
 2350              		@ sp needed
 2351 0074 80BD     		pop	{r7, pc}
 2352              	.L149:
 2353 0076 C046     		.align	2
 2354              	.L148:
 2355 0078 002C0140 		.word	1073818624
 2356 007c 00400140 		.word	1073823744
 2357 0080 00440140 		.word	1073824768
 2358 0084 00480140 		.word	1073825792
 2359              		.cfi_endproc
 2360              	.LFE61:
 2362              		.section	.text.HAL_TIM_PWM_Stop,"ax",%progbits
 2363              		.align	1
 2364              		.global	HAL_TIM_PWM_Stop
 2365              		.syntax unified
 2366              		.code	16
 2367              		.thumb_func
 2368              		.fpu softvfp
 2370              	HAL_TIM_PWM_Stop:
ARM GAS  /tmp/ccnYXliM.s 			page 62


 2371              	.LFB62:
1111:cube/Drivers/STM32F0xx_HAL_Driver/Src/stm32f0xx_hal_tim.c **** 
1112:cube/Drivers/STM32F0xx_HAL_Driver/Src/stm32f0xx_hal_tim.c **** /**
1113:cube/Drivers/STM32F0xx_HAL_Driver/Src/stm32f0xx_hal_tim.c ****   * @brief  Stops the PWM signal generation.
1114:cube/Drivers/STM32F0xx_HAL_Driver/Src/stm32f0xx_hal_tim.c ****   * @param  htim TIM handle
1115:cube/Drivers/STM32F0xx_HAL_Driver/Src/stm32f0xx_hal_tim.c ****   * @param  Channel TIM Channels to be disabled
1116:cube/Drivers/STM32F0xx_HAL_Driver/Src/stm32f0xx_hal_tim.c ****   *          This parameter can be one of the following values:
1117:cube/Drivers/STM32F0xx_HAL_Driver/Src/stm32f0xx_hal_tim.c ****   *            @arg TIM_CHANNEL_1: TIM Channel 1 selected
1118:cube/Drivers/STM32F0xx_HAL_Driver/Src/stm32f0xx_hal_tim.c ****   *            @arg TIM_CHANNEL_2: TIM Channel 2 selected
1119:cube/Drivers/STM32F0xx_HAL_Driver/Src/stm32f0xx_hal_tim.c ****   *            @arg TIM_CHANNEL_3: TIM Channel 3 selected
1120:cube/Drivers/STM32F0xx_HAL_Driver/Src/stm32f0xx_hal_tim.c ****   *            @arg TIM_CHANNEL_4: TIM Channel 4 selected
1121:cube/Drivers/STM32F0xx_HAL_Driver/Src/stm32f0xx_hal_tim.c ****   * @retval HAL status
1122:cube/Drivers/STM32F0xx_HAL_Driver/Src/stm32f0xx_hal_tim.c **** */
1123:cube/Drivers/STM32F0xx_HAL_Driver/Src/stm32f0xx_hal_tim.c **** HAL_StatusTypeDef HAL_TIM_PWM_Stop(TIM_HandleTypeDef *htim, uint32_t Channel)
1124:cube/Drivers/STM32F0xx_HAL_Driver/Src/stm32f0xx_hal_tim.c **** {
 2372              		.loc 1 1124 0
 2373              		.cfi_startproc
 2374              		@ args = 0, pretend = 0, frame = 8
 2375              		@ frame_needed = 1, uses_anonymous_args = 0
 2376 0000 80B5     		push	{r7, lr}
 2377              		.cfi_def_cfa_offset 8
 2378              		.cfi_offset 7, -8
 2379              		.cfi_offset 14, -4
 2380 0002 82B0     		sub	sp, sp, #8
 2381              		.cfi_def_cfa_offset 16
 2382 0004 00AF     		add	r7, sp, #0
 2383              		.cfi_def_cfa_register 7
 2384 0006 7860     		str	r0, [r7, #4]
 2385 0008 3960     		str	r1, [r7]
1125:cube/Drivers/STM32F0xx_HAL_Driver/Src/stm32f0xx_hal_tim.c ****   /* Check the parameters */
1126:cube/Drivers/STM32F0xx_HAL_Driver/Src/stm32f0xx_hal_tim.c ****   assert_param(IS_TIM_CCX_INSTANCE(htim->Instance, Channel));
1127:cube/Drivers/STM32F0xx_HAL_Driver/Src/stm32f0xx_hal_tim.c **** 
1128:cube/Drivers/STM32F0xx_HAL_Driver/Src/stm32f0xx_hal_tim.c ****   /* Disable the Capture compare channel */
1129:cube/Drivers/STM32F0xx_HAL_Driver/Src/stm32f0xx_hal_tim.c ****   TIM_CCxChannelCmd(htim->Instance, Channel, TIM_CCx_DISABLE);
 2386              		.loc 1 1129 0
 2387 000a 7B68     		ldr	r3, [r7, #4]
 2388 000c 1B68     		ldr	r3, [r3]
 2389 000e 3968     		ldr	r1, [r7]
 2390 0010 0022     		movs	r2, #0
 2391 0012 1800     		movs	r0, r3
 2392 0014 FFF7FEFF 		bl	TIM_CCxChannelCmd
1130:cube/Drivers/STM32F0xx_HAL_Driver/Src/stm32f0xx_hal_tim.c **** 
1131:cube/Drivers/STM32F0xx_HAL_Driver/Src/stm32f0xx_hal_tim.c ****   if(IS_TIM_BREAK_INSTANCE(htim->Instance) != RESET)
 2393              		.loc 1 1131 0
 2394 0018 7B68     		ldr	r3, [r7, #4]
 2395 001a 1B68     		ldr	r3, [r3]
 2396 001c 234A     		ldr	r2, .L157
 2397 001e 9342     		cmp	r3, r2
 2398 0020 0ED0     		beq	.L151
 2399              		.loc 1 1131 0 is_stmt 0 discriminator 2
 2400 0022 7B68     		ldr	r3, [r7, #4]
 2401 0024 1B68     		ldr	r3, [r3]
 2402 0026 224A     		ldr	r2, .L157+4
 2403 0028 9342     		cmp	r3, r2
 2404 002a 09D0     		beq	.L151
 2405              		.loc 1 1131 0 discriminator 4
 2406 002c 7B68     		ldr	r3, [r7, #4]
ARM GAS  /tmp/ccnYXliM.s 			page 63


 2407 002e 1B68     		ldr	r3, [r3]
 2408 0030 204A     		ldr	r2, .L157+8
 2409 0032 9342     		cmp	r3, r2
 2410 0034 04D0     		beq	.L151
 2411              		.loc 1 1131 0 discriminator 6
 2412 0036 7B68     		ldr	r3, [r7, #4]
 2413 0038 1B68     		ldr	r3, [r3]
 2414 003a 1F4A     		ldr	r2, .L157+12
 2415 003c 9342     		cmp	r3, r2
 2416 003e 01D1     		bne	.L152
 2417              	.L151:
 2418              		.loc 1 1131 0 discriminator 7
 2419 0040 0123     		movs	r3, #1
 2420 0042 00E0     		b	.L153
 2421              	.L152:
 2422              		.loc 1 1131 0 discriminator 8
 2423 0044 0023     		movs	r3, #0
 2424              	.L153:
 2425              		.loc 1 1131 0 discriminator 10
 2426 0046 002B     		cmp	r3, #0
 2427 0048 13D0     		beq	.L154
1132:cube/Drivers/STM32F0xx_HAL_Driver/Src/stm32f0xx_hal_tim.c ****   {
1133:cube/Drivers/STM32F0xx_HAL_Driver/Src/stm32f0xx_hal_tim.c ****     /* Disable the Main Ouput */
1134:cube/Drivers/STM32F0xx_HAL_Driver/Src/stm32f0xx_hal_tim.c ****     __HAL_TIM_MOE_DISABLE(htim);
 2428              		.loc 1 1134 0 is_stmt 1
 2429 004a 7B68     		ldr	r3, [r7, #4]
 2430 004c 1B68     		ldr	r3, [r3]
 2431 004e 1B6A     		ldr	r3, [r3, #32]
 2432 0050 1A4A     		ldr	r2, .L157+16
 2433 0052 1340     		ands	r3, r2
 2434 0054 0DD1     		bne	.L154
 2435              		.loc 1 1134 0 is_stmt 0 discriminator 1
 2436 0056 7B68     		ldr	r3, [r7, #4]
 2437 0058 1B68     		ldr	r3, [r3]
 2438 005a 1B6A     		ldr	r3, [r3, #32]
 2439 005c 184A     		ldr	r2, .L157+20
 2440 005e 1340     		ands	r3, r2
 2441 0060 07D1     		bne	.L154
 2442              		.loc 1 1134 0 discriminator 2
 2443 0062 7B68     		ldr	r3, [r7, #4]
 2444 0064 1B68     		ldr	r3, [r3]
 2445 0066 5A6C     		ldr	r2, [r3, #68]
 2446 0068 7B68     		ldr	r3, [r7, #4]
 2447 006a 1B68     		ldr	r3, [r3]
 2448 006c 1549     		ldr	r1, .L157+24
 2449 006e 0A40     		ands	r2, r1
 2450 0070 5A64     		str	r2, [r3, #68]
 2451              	.L154:
1135:cube/Drivers/STM32F0xx_HAL_Driver/Src/stm32f0xx_hal_tim.c ****   }
1136:cube/Drivers/STM32F0xx_HAL_Driver/Src/stm32f0xx_hal_tim.c **** 
1137:cube/Drivers/STM32F0xx_HAL_Driver/Src/stm32f0xx_hal_tim.c ****   /* Disable the Peripheral */
1138:cube/Drivers/STM32F0xx_HAL_Driver/Src/stm32f0xx_hal_tim.c ****   __HAL_TIM_DISABLE(htim);
 2452              		.loc 1 1138 0 is_stmt 1
 2453 0072 7B68     		ldr	r3, [r7, #4]
 2454 0074 1B68     		ldr	r3, [r3]
 2455 0076 1B6A     		ldr	r3, [r3, #32]
 2456 0078 104A     		ldr	r2, .L157+16
ARM GAS  /tmp/ccnYXliM.s 			page 64


 2457 007a 1340     		ands	r3, r2
 2458 007c 0DD1     		bne	.L155
 2459              		.loc 1 1138 0 is_stmt 0 discriminator 1
 2460 007e 7B68     		ldr	r3, [r7, #4]
 2461 0080 1B68     		ldr	r3, [r3]
 2462 0082 1B6A     		ldr	r3, [r3, #32]
 2463 0084 0E4A     		ldr	r2, .L157+20
 2464 0086 1340     		ands	r3, r2
 2465 0088 07D1     		bne	.L155
 2466              		.loc 1 1138 0 discriminator 2
 2467 008a 7B68     		ldr	r3, [r7, #4]
 2468 008c 1B68     		ldr	r3, [r3]
 2469 008e 1A68     		ldr	r2, [r3]
 2470 0090 7B68     		ldr	r3, [r7, #4]
 2471 0092 1B68     		ldr	r3, [r3]
 2472 0094 0121     		movs	r1, #1
 2473 0096 8A43     		bics	r2, r1
 2474 0098 1A60     		str	r2, [r3]
 2475              	.L155:
1139:cube/Drivers/STM32F0xx_HAL_Driver/Src/stm32f0xx_hal_tim.c **** 
1140:cube/Drivers/STM32F0xx_HAL_Driver/Src/stm32f0xx_hal_tim.c ****   /* Change the htim state */
1141:cube/Drivers/STM32F0xx_HAL_Driver/Src/stm32f0xx_hal_tim.c ****   htim->State = HAL_TIM_STATE_READY;
 2476              		.loc 1 1141 0 is_stmt 1
 2477 009a 7B68     		ldr	r3, [r7, #4]
 2478 009c 3D22     		movs	r2, #61
 2479 009e 0121     		movs	r1, #1
 2480 00a0 9954     		strb	r1, [r3, r2]
1142:cube/Drivers/STM32F0xx_HAL_Driver/Src/stm32f0xx_hal_tim.c **** 
1143:cube/Drivers/STM32F0xx_HAL_Driver/Src/stm32f0xx_hal_tim.c ****   /* Return function status */
1144:cube/Drivers/STM32F0xx_HAL_Driver/Src/stm32f0xx_hal_tim.c ****   return HAL_OK;
 2481              		.loc 1 1144 0
 2482 00a2 0023     		movs	r3, #0
1145:cube/Drivers/STM32F0xx_HAL_Driver/Src/stm32f0xx_hal_tim.c **** }
 2483              		.loc 1 1145 0
 2484 00a4 1800     		movs	r0, r3
 2485 00a6 BD46     		mov	sp, r7
 2486 00a8 02B0     		add	sp, sp, #8
 2487              		@ sp needed
 2488 00aa 80BD     		pop	{r7, pc}
 2489              	.L158:
 2490              		.align	2
 2491              	.L157:
 2492 00ac 002C0140 		.word	1073818624
 2493 00b0 00400140 		.word	1073823744
 2494 00b4 00440140 		.word	1073824768
 2495 00b8 00480140 		.word	1073825792
 2496 00bc 11110000 		.word	4369
 2497 00c0 44040000 		.word	1092
 2498 00c4 FF7FFFFF 		.word	-32769
 2499              		.cfi_endproc
 2500              	.LFE62:
 2502              		.section	.text.HAL_TIM_PWM_Start_IT,"ax",%progbits
 2503              		.align	1
 2504              		.global	HAL_TIM_PWM_Start_IT
 2505              		.syntax unified
 2506              		.code	16
 2507              		.thumb_func
ARM GAS  /tmp/ccnYXliM.s 			page 65


 2508              		.fpu softvfp
 2510              	HAL_TIM_PWM_Start_IT:
 2511              	.LFB63:
1146:cube/Drivers/STM32F0xx_HAL_Driver/Src/stm32f0xx_hal_tim.c **** 
1147:cube/Drivers/STM32F0xx_HAL_Driver/Src/stm32f0xx_hal_tim.c **** /**
1148:cube/Drivers/STM32F0xx_HAL_Driver/Src/stm32f0xx_hal_tim.c ****   * @brief  Starts the PWM signal generation in interrupt mode.
1149:cube/Drivers/STM32F0xx_HAL_Driver/Src/stm32f0xx_hal_tim.c ****   * @param  htim TIM handle
1150:cube/Drivers/STM32F0xx_HAL_Driver/Src/stm32f0xx_hal_tim.c ****   * @param  Channel TIM Channel to be enabled
1151:cube/Drivers/STM32F0xx_HAL_Driver/Src/stm32f0xx_hal_tim.c ****   *          This parameter can be one of the following values:
1152:cube/Drivers/STM32F0xx_HAL_Driver/Src/stm32f0xx_hal_tim.c ****   *            @arg TIM_CHANNEL_1: TIM Channel 1 selected
1153:cube/Drivers/STM32F0xx_HAL_Driver/Src/stm32f0xx_hal_tim.c ****   *            @arg TIM_CHANNEL_2: TIM Channel 2 selected
1154:cube/Drivers/STM32F0xx_HAL_Driver/Src/stm32f0xx_hal_tim.c ****   *            @arg TIM_CHANNEL_3: TIM Channel 3 selected
1155:cube/Drivers/STM32F0xx_HAL_Driver/Src/stm32f0xx_hal_tim.c ****   *            @arg TIM_CHANNEL_4: TIM Channel 4 selected
1156:cube/Drivers/STM32F0xx_HAL_Driver/Src/stm32f0xx_hal_tim.c ****   * @retval HAL status
1157:cube/Drivers/STM32F0xx_HAL_Driver/Src/stm32f0xx_hal_tim.c **** */
1158:cube/Drivers/STM32F0xx_HAL_Driver/Src/stm32f0xx_hal_tim.c **** HAL_StatusTypeDef HAL_TIM_PWM_Start_IT(TIM_HandleTypeDef *htim, uint32_t Channel)
1159:cube/Drivers/STM32F0xx_HAL_Driver/Src/stm32f0xx_hal_tim.c **** {
 2512              		.loc 1 1159 0
 2513              		.cfi_startproc
 2514              		@ args = 0, pretend = 0, frame = 8
 2515              		@ frame_needed = 1, uses_anonymous_args = 0
 2516 0000 80B5     		push	{r7, lr}
 2517              		.cfi_def_cfa_offset 8
 2518              		.cfi_offset 7, -8
 2519              		.cfi_offset 14, -4
 2520 0002 82B0     		sub	sp, sp, #8
 2521              		.cfi_def_cfa_offset 16
 2522 0004 00AF     		add	r7, sp, #0
 2523              		.cfi_def_cfa_register 7
 2524 0006 7860     		str	r0, [r7, #4]
 2525 0008 3960     		str	r1, [r7]
1160:cube/Drivers/STM32F0xx_HAL_Driver/Src/stm32f0xx_hal_tim.c ****   /* Check the parameters */
1161:cube/Drivers/STM32F0xx_HAL_Driver/Src/stm32f0xx_hal_tim.c ****   assert_param(IS_TIM_CCX_INSTANCE(htim->Instance, Channel));
1162:cube/Drivers/STM32F0xx_HAL_Driver/Src/stm32f0xx_hal_tim.c **** 
1163:cube/Drivers/STM32F0xx_HAL_Driver/Src/stm32f0xx_hal_tim.c ****   switch (Channel)
 2526              		.loc 1 1163 0
 2527 000a 3B68     		ldr	r3, [r7]
 2528 000c 042B     		cmp	r3, #4
 2529 000e 11D0     		beq	.L161
 2530 0010 02D8     		bhi	.L162
 2531 0012 002B     		cmp	r3, #0
 2532 0014 05D0     		beq	.L163
1164:cube/Drivers/STM32F0xx_HAL_Driver/Src/stm32f0xx_hal_tim.c ****   {
1165:cube/Drivers/STM32F0xx_HAL_Driver/Src/stm32f0xx_hal_tim.c ****     case TIM_CHANNEL_1:
1166:cube/Drivers/STM32F0xx_HAL_Driver/Src/stm32f0xx_hal_tim.c ****     {
1167:cube/Drivers/STM32F0xx_HAL_Driver/Src/stm32f0xx_hal_tim.c ****       /* Enable the TIM Capture/Compare 1 interrupt */
1168:cube/Drivers/STM32F0xx_HAL_Driver/Src/stm32f0xx_hal_tim.c ****       __HAL_TIM_ENABLE_IT(htim, TIM_IT_CC1);
1169:cube/Drivers/STM32F0xx_HAL_Driver/Src/stm32f0xx_hal_tim.c ****     }
1170:cube/Drivers/STM32F0xx_HAL_Driver/Src/stm32f0xx_hal_tim.c ****     break;
1171:cube/Drivers/STM32F0xx_HAL_Driver/Src/stm32f0xx_hal_tim.c **** 
1172:cube/Drivers/STM32F0xx_HAL_Driver/Src/stm32f0xx_hal_tim.c ****     case TIM_CHANNEL_2:
1173:cube/Drivers/STM32F0xx_HAL_Driver/Src/stm32f0xx_hal_tim.c ****     {
1174:cube/Drivers/STM32F0xx_HAL_Driver/Src/stm32f0xx_hal_tim.c ****       /* Enable the TIM Capture/Compare 2 interrupt */
1175:cube/Drivers/STM32F0xx_HAL_Driver/Src/stm32f0xx_hal_tim.c ****       __HAL_TIM_ENABLE_IT(htim, TIM_IT_CC2);
1176:cube/Drivers/STM32F0xx_HAL_Driver/Src/stm32f0xx_hal_tim.c ****     }
1177:cube/Drivers/STM32F0xx_HAL_Driver/Src/stm32f0xx_hal_tim.c ****     break;
1178:cube/Drivers/STM32F0xx_HAL_Driver/Src/stm32f0xx_hal_tim.c **** 
ARM GAS  /tmp/ccnYXliM.s 			page 66


1179:cube/Drivers/STM32F0xx_HAL_Driver/Src/stm32f0xx_hal_tim.c ****     case TIM_CHANNEL_3:
1180:cube/Drivers/STM32F0xx_HAL_Driver/Src/stm32f0xx_hal_tim.c ****     {
1181:cube/Drivers/STM32F0xx_HAL_Driver/Src/stm32f0xx_hal_tim.c ****       /* Enable the TIM Capture/Compare 3 interrupt */
1182:cube/Drivers/STM32F0xx_HAL_Driver/Src/stm32f0xx_hal_tim.c ****       __HAL_TIM_ENABLE_IT(htim, TIM_IT_CC3);
1183:cube/Drivers/STM32F0xx_HAL_Driver/Src/stm32f0xx_hal_tim.c ****     }
1184:cube/Drivers/STM32F0xx_HAL_Driver/Src/stm32f0xx_hal_tim.c ****     break;
1185:cube/Drivers/STM32F0xx_HAL_Driver/Src/stm32f0xx_hal_tim.c **** 
1186:cube/Drivers/STM32F0xx_HAL_Driver/Src/stm32f0xx_hal_tim.c ****     case TIM_CHANNEL_4:
1187:cube/Drivers/STM32F0xx_HAL_Driver/Src/stm32f0xx_hal_tim.c ****     {
1188:cube/Drivers/STM32F0xx_HAL_Driver/Src/stm32f0xx_hal_tim.c ****       /* Enable the TIM Capture/Compare 4 interrupt */
1189:cube/Drivers/STM32F0xx_HAL_Driver/Src/stm32f0xx_hal_tim.c ****       __HAL_TIM_ENABLE_IT(htim, TIM_IT_CC4);
1190:cube/Drivers/STM32F0xx_HAL_Driver/Src/stm32f0xx_hal_tim.c ****     }
1191:cube/Drivers/STM32F0xx_HAL_Driver/Src/stm32f0xx_hal_tim.c ****     break;
1192:cube/Drivers/STM32F0xx_HAL_Driver/Src/stm32f0xx_hal_tim.c **** 
1193:cube/Drivers/STM32F0xx_HAL_Driver/Src/stm32f0xx_hal_tim.c ****     default:
1194:cube/Drivers/STM32F0xx_HAL_Driver/Src/stm32f0xx_hal_tim.c ****     break;
 2533              		.loc 1 1194 0
 2534 0016 28E0     		b	.L166
 2535              	.L162:
1163:cube/Drivers/STM32F0xx_HAL_Driver/Src/stm32f0xx_hal_tim.c ****   {
 2536              		.loc 1 1163 0
 2537 0018 082B     		cmp	r3, #8
 2538 001a 14D0     		beq	.L164
 2539 001c 0C2B     		cmp	r3, #12
 2540 001e 1BD0     		beq	.L165
 2541              		.loc 1 1194 0
 2542 0020 23E0     		b	.L166
 2543              	.L163:
1168:cube/Drivers/STM32F0xx_HAL_Driver/Src/stm32f0xx_hal_tim.c ****     }
 2544              		.loc 1 1168 0
 2545 0022 7B68     		ldr	r3, [r7, #4]
 2546 0024 1B68     		ldr	r3, [r3]
 2547 0026 DA68     		ldr	r2, [r3, #12]
 2548 0028 7B68     		ldr	r3, [r7, #4]
 2549 002a 1B68     		ldr	r3, [r3]
 2550 002c 0221     		movs	r1, #2
 2551 002e 0A43     		orrs	r2, r1
 2552 0030 DA60     		str	r2, [r3, #12]
1170:cube/Drivers/STM32F0xx_HAL_Driver/Src/stm32f0xx_hal_tim.c **** 
 2553              		.loc 1 1170 0
 2554 0032 1AE0     		b	.L166
 2555              	.L161:
1175:cube/Drivers/STM32F0xx_HAL_Driver/Src/stm32f0xx_hal_tim.c ****     }
 2556              		.loc 1 1175 0
 2557 0034 7B68     		ldr	r3, [r7, #4]
 2558 0036 1B68     		ldr	r3, [r3]
 2559 0038 DA68     		ldr	r2, [r3, #12]
 2560 003a 7B68     		ldr	r3, [r7, #4]
 2561 003c 1B68     		ldr	r3, [r3]
 2562 003e 0421     		movs	r1, #4
 2563 0040 0A43     		orrs	r2, r1
 2564 0042 DA60     		str	r2, [r3, #12]
1177:cube/Drivers/STM32F0xx_HAL_Driver/Src/stm32f0xx_hal_tim.c **** 
 2565              		.loc 1 1177 0
 2566 0044 11E0     		b	.L166
 2567              	.L164:
1182:cube/Drivers/STM32F0xx_HAL_Driver/Src/stm32f0xx_hal_tim.c ****     }
ARM GAS  /tmp/ccnYXliM.s 			page 67


 2568              		.loc 1 1182 0
 2569 0046 7B68     		ldr	r3, [r7, #4]
 2570 0048 1B68     		ldr	r3, [r3]
 2571 004a DA68     		ldr	r2, [r3, #12]
 2572 004c 7B68     		ldr	r3, [r7, #4]
 2573 004e 1B68     		ldr	r3, [r3]
 2574 0050 0821     		movs	r1, #8
 2575 0052 0A43     		orrs	r2, r1
 2576 0054 DA60     		str	r2, [r3, #12]
1184:cube/Drivers/STM32F0xx_HAL_Driver/Src/stm32f0xx_hal_tim.c **** 
 2577              		.loc 1 1184 0
 2578 0056 08E0     		b	.L166
 2579              	.L165:
1189:cube/Drivers/STM32F0xx_HAL_Driver/Src/stm32f0xx_hal_tim.c ****     }
 2580              		.loc 1 1189 0
 2581 0058 7B68     		ldr	r3, [r7, #4]
 2582 005a 1B68     		ldr	r3, [r3]
 2583 005c DA68     		ldr	r2, [r3, #12]
 2584 005e 7B68     		ldr	r3, [r7, #4]
 2585 0060 1B68     		ldr	r3, [r3]
 2586 0062 1021     		movs	r1, #16
 2587 0064 0A43     		orrs	r2, r1
 2588 0066 DA60     		str	r2, [r3, #12]
1191:cube/Drivers/STM32F0xx_HAL_Driver/Src/stm32f0xx_hal_tim.c **** 
 2589              		.loc 1 1191 0
 2590 0068 C046     		nop
 2591              	.L166:
1195:cube/Drivers/STM32F0xx_HAL_Driver/Src/stm32f0xx_hal_tim.c ****   }
1196:cube/Drivers/STM32F0xx_HAL_Driver/Src/stm32f0xx_hal_tim.c **** 
1197:cube/Drivers/STM32F0xx_HAL_Driver/Src/stm32f0xx_hal_tim.c ****   /* Enable the Capture compare channel */
1198:cube/Drivers/STM32F0xx_HAL_Driver/Src/stm32f0xx_hal_tim.c ****   TIM_CCxChannelCmd(htim->Instance, Channel, TIM_CCx_ENABLE);
 2592              		.loc 1 1198 0
 2593 006a 7B68     		ldr	r3, [r7, #4]
 2594 006c 1B68     		ldr	r3, [r3]
 2595 006e 3968     		ldr	r1, [r7]
 2596 0070 0122     		movs	r2, #1
 2597 0072 1800     		movs	r0, r3
 2598 0074 FFF7FEFF 		bl	TIM_CCxChannelCmd
1199:cube/Drivers/STM32F0xx_HAL_Driver/Src/stm32f0xx_hal_tim.c **** 
1200:cube/Drivers/STM32F0xx_HAL_Driver/Src/stm32f0xx_hal_tim.c ****   if(IS_TIM_BREAK_INSTANCE(htim->Instance) != RESET)
 2599              		.loc 1 1200 0
 2600 0078 7B68     		ldr	r3, [r7, #4]
 2601 007a 1B68     		ldr	r3, [r3]
 2602 007c 164A     		ldr	r2, .L172
 2603 007e 9342     		cmp	r3, r2
 2604 0080 0ED0     		beq	.L167
 2605              		.loc 1 1200 0 is_stmt 0 discriminator 2
 2606 0082 7B68     		ldr	r3, [r7, #4]
 2607 0084 1B68     		ldr	r3, [r3]
 2608 0086 154A     		ldr	r2, .L172+4
 2609 0088 9342     		cmp	r3, r2
 2610 008a 09D0     		beq	.L167
 2611              		.loc 1 1200 0 discriminator 4
 2612 008c 7B68     		ldr	r3, [r7, #4]
 2613 008e 1B68     		ldr	r3, [r3]
 2614 0090 134A     		ldr	r2, .L172+8
 2615 0092 9342     		cmp	r3, r2
ARM GAS  /tmp/ccnYXliM.s 			page 68


 2616 0094 04D0     		beq	.L167
 2617              		.loc 1 1200 0 discriminator 6
 2618 0096 7B68     		ldr	r3, [r7, #4]
 2619 0098 1B68     		ldr	r3, [r3]
 2620 009a 124A     		ldr	r2, .L172+12
 2621 009c 9342     		cmp	r3, r2
 2622 009e 01D1     		bne	.L168
 2623              	.L167:
 2624              		.loc 1 1200 0 discriminator 7
 2625 00a0 0123     		movs	r3, #1
 2626 00a2 00E0     		b	.L169
 2627              	.L168:
 2628              		.loc 1 1200 0 discriminator 8
 2629 00a4 0023     		movs	r3, #0
 2630              	.L169:
 2631              		.loc 1 1200 0 discriminator 10
 2632 00a6 002B     		cmp	r3, #0
 2633 00a8 08D0     		beq	.L170
1201:cube/Drivers/STM32F0xx_HAL_Driver/Src/stm32f0xx_hal_tim.c ****   {
1202:cube/Drivers/STM32F0xx_HAL_Driver/Src/stm32f0xx_hal_tim.c ****     /* Enable the main output */
1203:cube/Drivers/STM32F0xx_HAL_Driver/Src/stm32f0xx_hal_tim.c ****     __HAL_TIM_MOE_ENABLE(htim);
 2634              		.loc 1 1203 0 is_stmt 1
 2635 00aa 7B68     		ldr	r3, [r7, #4]
 2636 00ac 1B68     		ldr	r3, [r3]
 2637 00ae 5A6C     		ldr	r2, [r3, #68]
 2638 00b0 7B68     		ldr	r3, [r7, #4]
 2639 00b2 1B68     		ldr	r3, [r3]
 2640 00b4 8021     		movs	r1, #128
 2641 00b6 0902     		lsls	r1, r1, #8
 2642 00b8 0A43     		orrs	r2, r1
 2643 00ba 5A64     		str	r2, [r3, #68]
 2644              	.L170:
1204:cube/Drivers/STM32F0xx_HAL_Driver/Src/stm32f0xx_hal_tim.c ****   }
1205:cube/Drivers/STM32F0xx_HAL_Driver/Src/stm32f0xx_hal_tim.c **** 
1206:cube/Drivers/STM32F0xx_HAL_Driver/Src/stm32f0xx_hal_tim.c ****   /* Enable the Peripheral */
1207:cube/Drivers/STM32F0xx_HAL_Driver/Src/stm32f0xx_hal_tim.c ****   __HAL_TIM_ENABLE(htim);
 2645              		.loc 1 1207 0
 2646 00bc 7B68     		ldr	r3, [r7, #4]
 2647 00be 1B68     		ldr	r3, [r3]
 2648 00c0 1A68     		ldr	r2, [r3]
 2649 00c2 7B68     		ldr	r3, [r7, #4]
 2650 00c4 1B68     		ldr	r3, [r3]
 2651 00c6 0121     		movs	r1, #1
 2652 00c8 0A43     		orrs	r2, r1
 2653 00ca 1A60     		str	r2, [r3]
1208:cube/Drivers/STM32F0xx_HAL_Driver/Src/stm32f0xx_hal_tim.c **** 
1209:cube/Drivers/STM32F0xx_HAL_Driver/Src/stm32f0xx_hal_tim.c ****   /* Return function status */
1210:cube/Drivers/STM32F0xx_HAL_Driver/Src/stm32f0xx_hal_tim.c ****   return HAL_OK;
 2654              		.loc 1 1210 0
 2655 00cc 0023     		movs	r3, #0
1211:cube/Drivers/STM32F0xx_HAL_Driver/Src/stm32f0xx_hal_tim.c **** }
 2656              		.loc 1 1211 0
 2657 00ce 1800     		movs	r0, r3
 2658 00d0 BD46     		mov	sp, r7
 2659 00d2 02B0     		add	sp, sp, #8
 2660              		@ sp needed
 2661 00d4 80BD     		pop	{r7, pc}
ARM GAS  /tmp/ccnYXliM.s 			page 69


 2662              	.L173:
 2663 00d6 C046     		.align	2
 2664              	.L172:
 2665 00d8 002C0140 		.word	1073818624
 2666 00dc 00400140 		.word	1073823744
 2667 00e0 00440140 		.word	1073824768
 2668 00e4 00480140 		.word	1073825792
 2669              		.cfi_endproc
 2670              	.LFE63:
 2672              		.section	.text.HAL_TIM_PWM_Stop_IT,"ax",%progbits
 2673              		.align	1
 2674              		.global	HAL_TIM_PWM_Stop_IT
 2675              		.syntax unified
 2676              		.code	16
 2677              		.thumb_func
 2678              		.fpu softvfp
 2680              	HAL_TIM_PWM_Stop_IT:
 2681              	.LFB64:
1212:cube/Drivers/STM32F0xx_HAL_Driver/Src/stm32f0xx_hal_tim.c **** 
1213:cube/Drivers/STM32F0xx_HAL_Driver/Src/stm32f0xx_hal_tim.c **** /**
1214:cube/Drivers/STM32F0xx_HAL_Driver/Src/stm32f0xx_hal_tim.c ****   * @brief  Stops the PWM signal generation in interrupt mode.
1215:cube/Drivers/STM32F0xx_HAL_Driver/Src/stm32f0xx_hal_tim.c ****   * @param  htim TIM handle
1216:cube/Drivers/STM32F0xx_HAL_Driver/Src/stm32f0xx_hal_tim.c ****   * @param  Channel TIM Channels to be disabled
1217:cube/Drivers/STM32F0xx_HAL_Driver/Src/stm32f0xx_hal_tim.c ****   *          This parameter can be one of the following values:
1218:cube/Drivers/STM32F0xx_HAL_Driver/Src/stm32f0xx_hal_tim.c ****   *            @arg TIM_CHANNEL_1: TIM Channel 1 selected
1219:cube/Drivers/STM32F0xx_HAL_Driver/Src/stm32f0xx_hal_tim.c ****   *            @arg TIM_CHANNEL_2: TIM Channel 2 selected
1220:cube/Drivers/STM32F0xx_HAL_Driver/Src/stm32f0xx_hal_tim.c ****   *            @arg TIM_CHANNEL_3: TIM Channel 3 selected
1221:cube/Drivers/STM32F0xx_HAL_Driver/Src/stm32f0xx_hal_tim.c ****   *            @arg TIM_CHANNEL_4: TIM Channel 4 selected
1222:cube/Drivers/STM32F0xx_HAL_Driver/Src/stm32f0xx_hal_tim.c ****   * @retval HAL status
1223:cube/Drivers/STM32F0xx_HAL_Driver/Src/stm32f0xx_hal_tim.c **** */
1224:cube/Drivers/STM32F0xx_HAL_Driver/Src/stm32f0xx_hal_tim.c **** HAL_StatusTypeDef HAL_TIM_PWM_Stop_IT (TIM_HandleTypeDef *htim, uint32_t Channel)
1225:cube/Drivers/STM32F0xx_HAL_Driver/Src/stm32f0xx_hal_tim.c **** {
 2682              		.loc 1 1225 0
 2683              		.cfi_startproc
 2684              		@ args = 0, pretend = 0, frame = 8
 2685              		@ frame_needed = 1, uses_anonymous_args = 0
 2686 0000 80B5     		push	{r7, lr}
 2687              		.cfi_def_cfa_offset 8
 2688              		.cfi_offset 7, -8
 2689              		.cfi_offset 14, -4
 2690 0002 82B0     		sub	sp, sp, #8
 2691              		.cfi_def_cfa_offset 16
 2692 0004 00AF     		add	r7, sp, #0
 2693              		.cfi_def_cfa_register 7
 2694 0006 7860     		str	r0, [r7, #4]
 2695 0008 3960     		str	r1, [r7]
1226:cube/Drivers/STM32F0xx_HAL_Driver/Src/stm32f0xx_hal_tim.c ****   /* Check the parameters */
1227:cube/Drivers/STM32F0xx_HAL_Driver/Src/stm32f0xx_hal_tim.c ****   assert_param(IS_TIM_CCX_INSTANCE(htim->Instance, Channel));
1228:cube/Drivers/STM32F0xx_HAL_Driver/Src/stm32f0xx_hal_tim.c **** 
1229:cube/Drivers/STM32F0xx_HAL_Driver/Src/stm32f0xx_hal_tim.c ****   switch (Channel)
 2696              		.loc 1 1229 0
 2697 000a 3B68     		ldr	r3, [r7]
 2698 000c 042B     		cmp	r3, #4
 2699 000e 11D0     		beq	.L176
 2700 0010 02D8     		bhi	.L177
 2701 0012 002B     		cmp	r3, #0
 2702 0014 05D0     		beq	.L178
ARM GAS  /tmp/ccnYXliM.s 			page 70


1230:cube/Drivers/STM32F0xx_HAL_Driver/Src/stm32f0xx_hal_tim.c ****   {
1231:cube/Drivers/STM32F0xx_HAL_Driver/Src/stm32f0xx_hal_tim.c ****     case TIM_CHANNEL_1:
1232:cube/Drivers/STM32F0xx_HAL_Driver/Src/stm32f0xx_hal_tim.c ****     {
1233:cube/Drivers/STM32F0xx_HAL_Driver/Src/stm32f0xx_hal_tim.c ****       /* Disable the TIM Capture/Compare 1 interrupt */
1234:cube/Drivers/STM32F0xx_HAL_Driver/Src/stm32f0xx_hal_tim.c ****       __HAL_TIM_DISABLE_IT(htim, TIM_IT_CC1);
1235:cube/Drivers/STM32F0xx_HAL_Driver/Src/stm32f0xx_hal_tim.c ****     }
1236:cube/Drivers/STM32F0xx_HAL_Driver/Src/stm32f0xx_hal_tim.c ****     break;
1237:cube/Drivers/STM32F0xx_HAL_Driver/Src/stm32f0xx_hal_tim.c **** 
1238:cube/Drivers/STM32F0xx_HAL_Driver/Src/stm32f0xx_hal_tim.c ****     case TIM_CHANNEL_2:
1239:cube/Drivers/STM32F0xx_HAL_Driver/Src/stm32f0xx_hal_tim.c ****     {
1240:cube/Drivers/STM32F0xx_HAL_Driver/Src/stm32f0xx_hal_tim.c ****       /* Disable the TIM Capture/Compare 2 interrupt */
1241:cube/Drivers/STM32F0xx_HAL_Driver/Src/stm32f0xx_hal_tim.c ****       __HAL_TIM_DISABLE_IT(htim, TIM_IT_CC2);
1242:cube/Drivers/STM32F0xx_HAL_Driver/Src/stm32f0xx_hal_tim.c ****     }
1243:cube/Drivers/STM32F0xx_HAL_Driver/Src/stm32f0xx_hal_tim.c ****     break;
1244:cube/Drivers/STM32F0xx_HAL_Driver/Src/stm32f0xx_hal_tim.c **** 
1245:cube/Drivers/STM32F0xx_HAL_Driver/Src/stm32f0xx_hal_tim.c ****     case TIM_CHANNEL_3:
1246:cube/Drivers/STM32F0xx_HAL_Driver/Src/stm32f0xx_hal_tim.c ****     {
1247:cube/Drivers/STM32F0xx_HAL_Driver/Src/stm32f0xx_hal_tim.c ****       /* Disable the TIM Capture/Compare 3 interrupt */
1248:cube/Drivers/STM32F0xx_HAL_Driver/Src/stm32f0xx_hal_tim.c ****       __HAL_TIM_DISABLE_IT(htim, TIM_IT_CC3);
1249:cube/Drivers/STM32F0xx_HAL_Driver/Src/stm32f0xx_hal_tim.c ****     }
1250:cube/Drivers/STM32F0xx_HAL_Driver/Src/stm32f0xx_hal_tim.c ****     break;
1251:cube/Drivers/STM32F0xx_HAL_Driver/Src/stm32f0xx_hal_tim.c **** 
1252:cube/Drivers/STM32F0xx_HAL_Driver/Src/stm32f0xx_hal_tim.c ****     case TIM_CHANNEL_4:
1253:cube/Drivers/STM32F0xx_HAL_Driver/Src/stm32f0xx_hal_tim.c ****     {
1254:cube/Drivers/STM32F0xx_HAL_Driver/Src/stm32f0xx_hal_tim.c ****       /* Disable the TIM Capture/Compare 4 interrupt */
1255:cube/Drivers/STM32F0xx_HAL_Driver/Src/stm32f0xx_hal_tim.c ****       __HAL_TIM_DISABLE_IT(htim, TIM_IT_CC4);
1256:cube/Drivers/STM32F0xx_HAL_Driver/Src/stm32f0xx_hal_tim.c ****     }
1257:cube/Drivers/STM32F0xx_HAL_Driver/Src/stm32f0xx_hal_tim.c ****     break;
1258:cube/Drivers/STM32F0xx_HAL_Driver/Src/stm32f0xx_hal_tim.c **** 
1259:cube/Drivers/STM32F0xx_HAL_Driver/Src/stm32f0xx_hal_tim.c ****     default:
1260:cube/Drivers/STM32F0xx_HAL_Driver/Src/stm32f0xx_hal_tim.c ****     break;
 2703              		.loc 1 1260 0
 2704 0016 28E0     		b	.L181
 2705              	.L177:
1229:cube/Drivers/STM32F0xx_HAL_Driver/Src/stm32f0xx_hal_tim.c ****   {
 2706              		.loc 1 1229 0
 2707 0018 082B     		cmp	r3, #8
 2708 001a 14D0     		beq	.L179
 2709 001c 0C2B     		cmp	r3, #12
 2710 001e 1BD0     		beq	.L180
 2711              		.loc 1 1260 0
 2712 0020 23E0     		b	.L181
 2713              	.L178:
1234:cube/Drivers/STM32F0xx_HAL_Driver/Src/stm32f0xx_hal_tim.c ****     }
 2714              		.loc 1 1234 0
 2715 0022 7B68     		ldr	r3, [r7, #4]
 2716 0024 1B68     		ldr	r3, [r3]
 2717 0026 DA68     		ldr	r2, [r3, #12]
 2718 0028 7B68     		ldr	r3, [r7, #4]
 2719 002a 1B68     		ldr	r3, [r3]
 2720 002c 0221     		movs	r1, #2
 2721 002e 8A43     		bics	r2, r1
 2722 0030 DA60     		str	r2, [r3, #12]
1236:cube/Drivers/STM32F0xx_HAL_Driver/Src/stm32f0xx_hal_tim.c **** 
 2723              		.loc 1 1236 0
 2724 0032 1AE0     		b	.L181
 2725              	.L176:
ARM GAS  /tmp/ccnYXliM.s 			page 71


1241:cube/Drivers/STM32F0xx_HAL_Driver/Src/stm32f0xx_hal_tim.c ****     }
 2726              		.loc 1 1241 0
 2727 0034 7B68     		ldr	r3, [r7, #4]
 2728 0036 1B68     		ldr	r3, [r3]
 2729 0038 DA68     		ldr	r2, [r3, #12]
 2730 003a 7B68     		ldr	r3, [r7, #4]
 2731 003c 1B68     		ldr	r3, [r3]
 2732 003e 0421     		movs	r1, #4
 2733 0040 8A43     		bics	r2, r1
 2734 0042 DA60     		str	r2, [r3, #12]
1243:cube/Drivers/STM32F0xx_HAL_Driver/Src/stm32f0xx_hal_tim.c **** 
 2735              		.loc 1 1243 0
 2736 0044 11E0     		b	.L181
 2737              	.L179:
1248:cube/Drivers/STM32F0xx_HAL_Driver/Src/stm32f0xx_hal_tim.c ****     }
 2738              		.loc 1 1248 0
 2739 0046 7B68     		ldr	r3, [r7, #4]
 2740 0048 1B68     		ldr	r3, [r3]
 2741 004a DA68     		ldr	r2, [r3, #12]
 2742 004c 7B68     		ldr	r3, [r7, #4]
 2743 004e 1B68     		ldr	r3, [r3]
 2744 0050 0821     		movs	r1, #8
 2745 0052 8A43     		bics	r2, r1
 2746 0054 DA60     		str	r2, [r3, #12]
1250:cube/Drivers/STM32F0xx_HAL_Driver/Src/stm32f0xx_hal_tim.c **** 
 2747              		.loc 1 1250 0
 2748 0056 08E0     		b	.L181
 2749              	.L180:
1255:cube/Drivers/STM32F0xx_HAL_Driver/Src/stm32f0xx_hal_tim.c ****     }
 2750              		.loc 1 1255 0
 2751 0058 7B68     		ldr	r3, [r7, #4]
 2752 005a 1B68     		ldr	r3, [r3]
 2753 005c DA68     		ldr	r2, [r3, #12]
 2754 005e 7B68     		ldr	r3, [r7, #4]
 2755 0060 1B68     		ldr	r3, [r3]
 2756 0062 1021     		movs	r1, #16
 2757 0064 8A43     		bics	r2, r1
 2758 0066 DA60     		str	r2, [r3, #12]
1257:cube/Drivers/STM32F0xx_HAL_Driver/Src/stm32f0xx_hal_tim.c **** 
 2759              		.loc 1 1257 0
 2760 0068 C046     		nop
 2761              	.L181:
1261:cube/Drivers/STM32F0xx_HAL_Driver/Src/stm32f0xx_hal_tim.c ****   }
1262:cube/Drivers/STM32F0xx_HAL_Driver/Src/stm32f0xx_hal_tim.c **** 
1263:cube/Drivers/STM32F0xx_HAL_Driver/Src/stm32f0xx_hal_tim.c ****   /* Disable the Capture compare channel */
1264:cube/Drivers/STM32F0xx_HAL_Driver/Src/stm32f0xx_hal_tim.c ****   TIM_CCxChannelCmd(htim->Instance, Channel, TIM_CCx_DISABLE);
 2762              		.loc 1 1264 0
 2763 006a 7B68     		ldr	r3, [r7, #4]
 2764 006c 1B68     		ldr	r3, [r3]
 2765 006e 3968     		ldr	r1, [r7]
 2766 0070 0022     		movs	r2, #0
 2767 0072 1800     		movs	r0, r3
 2768 0074 FFF7FEFF 		bl	TIM_CCxChannelCmd
1265:cube/Drivers/STM32F0xx_HAL_Driver/Src/stm32f0xx_hal_tim.c **** 
1266:cube/Drivers/STM32F0xx_HAL_Driver/Src/stm32f0xx_hal_tim.c ****   if(IS_TIM_BREAK_INSTANCE(htim->Instance) != RESET)
 2769              		.loc 1 1266 0
 2770 0078 7B68     		ldr	r3, [r7, #4]
ARM GAS  /tmp/ccnYXliM.s 			page 72


 2771 007a 1B68     		ldr	r3, [r3]
 2772 007c 214A     		ldr	r2, .L188
 2773 007e 9342     		cmp	r3, r2
 2774 0080 0ED0     		beq	.L182
 2775              		.loc 1 1266 0 is_stmt 0 discriminator 2
 2776 0082 7B68     		ldr	r3, [r7, #4]
 2777 0084 1B68     		ldr	r3, [r3]
 2778 0086 204A     		ldr	r2, .L188+4
 2779 0088 9342     		cmp	r3, r2
 2780 008a 09D0     		beq	.L182
 2781              		.loc 1 1266 0 discriminator 4
 2782 008c 7B68     		ldr	r3, [r7, #4]
 2783 008e 1B68     		ldr	r3, [r3]
 2784 0090 1E4A     		ldr	r2, .L188+8
 2785 0092 9342     		cmp	r3, r2
 2786 0094 04D0     		beq	.L182
 2787              		.loc 1 1266 0 discriminator 6
 2788 0096 7B68     		ldr	r3, [r7, #4]
 2789 0098 1B68     		ldr	r3, [r3]
 2790 009a 1D4A     		ldr	r2, .L188+12
 2791 009c 9342     		cmp	r3, r2
 2792 009e 01D1     		bne	.L183
 2793              	.L182:
 2794              		.loc 1 1266 0 discriminator 7
 2795 00a0 0123     		movs	r3, #1
 2796 00a2 00E0     		b	.L184
 2797              	.L183:
 2798              		.loc 1 1266 0 discriminator 8
 2799 00a4 0023     		movs	r3, #0
 2800              	.L184:
 2801              		.loc 1 1266 0 discriminator 10
 2802 00a6 002B     		cmp	r3, #0
 2803 00a8 13D0     		beq	.L185
1267:cube/Drivers/STM32F0xx_HAL_Driver/Src/stm32f0xx_hal_tim.c ****   {
1268:cube/Drivers/STM32F0xx_HAL_Driver/Src/stm32f0xx_hal_tim.c ****     /* Disable the Main Ouput */
1269:cube/Drivers/STM32F0xx_HAL_Driver/Src/stm32f0xx_hal_tim.c ****     __HAL_TIM_MOE_DISABLE(htim);
 2804              		.loc 1 1269 0 is_stmt 1
 2805 00aa 7B68     		ldr	r3, [r7, #4]
 2806 00ac 1B68     		ldr	r3, [r3]
 2807 00ae 1B6A     		ldr	r3, [r3, #32]
 2808 00b0 184A     		ldr	r2, .L188+16
 2809 00b2 1340     		ands	r3, r2
 2810 00b4 0DD1     		bne	.L185
 2811              		.loc 1 1269 0 is_stmt 0 discriminator 1
 2812 00b6 7B68     		ldr	r3, [r7, #4]
 2813 00b8 1B68     		ldr	r3, [r3]
 2814 00ba 1B6A     		ldr	r3, [r3, #32]
 2815 00bc 164A     		ldr	r2, .L188+20
 2816 00be 1340     		ands	r3, r2
 2817 00c0 07D1     		bne	.L185
 2818              		.loc 1 1269 0 discriminator 2
 2819 00c2 7B68     		ldr	r3, [r7, #4]
 2820 00c4 1B68     		ldr	r3, [r3]
 2821 00c6 5A6C     		ldr	r2, [r3, #68]
 2822 00c8 7B68     		ldr	r3, [r7, #4]
 2823 00ca 1B68     		ldr	r3, [r3]
 2824 00cc 1349     		ldr	r1, .L188+24
ARM GAS  /tmp/ccnYXliM.s 			page 73


 2825 00ce 0A40     		ands	r2, r1
 2826 00d0 5A64     		str	r2, [r3, #68]
 2827              	.L185:
1270:cube/Drivers/STM32F0xx_HAL_Driver/Src/stm32f0xx_hal_tim.c ****   }
1271:cube/Drivers/STM32F0xx_HAL_Driver/Src/stm32f0xx_hal_tim.c **** 
1272:cube/Drivers/STM32F0xx_HAL_Driver/Src/stm32f0xx_hal_tim.c ****   /* Disable the Peripheral */
1273:cube/Drivers/STM32F0xx_HAL_Driver/Src/stm32f0xx_hal_tim.c ****   __HAL_TIM_DISABLE(htim);
 2828              		.loc 1 1273 0 is_stmt 1
 2829 00d2 7B68     		ldr	r3, [r7, #4]
 2830 00d4 1B68     		ldr	r3, [r3]
 2831 00d6 1B6A     		ldr	r3, [r3, #32]
 2832 00d8 0E4A     		ldr	r2, .L188+16
 2833 00da 1340     		ands	r3, r2
 2834 00dc 0DD1     		bne	.L186
 2835              		.loc 1 1273 0 is_stmt 0 discriminator 1
 2836 00de 7B68     		ldr	r3, [r7, #4]
 2837 00e0 1B68     		ldr	r3, [r3]
 2838 00e2 1B6A     		ldr	r3, [r3, #32]
 2839 00e4 0C4A     		ldr	r2, .L188+20
 2840 00e6 1340     		ands	r3, r2
 2841 00e8 07D1     		bne	.L186
 2842              		.loc 1 1273 0 discriminator 2
 2843 00ea 7B68     		ldr	r3, [r7, #4]
 2844 00ec 1B68     		ldr	r3, [r3]
 2845 00ee 1A68     		ldr	r2, [r3]
 2846 00f0 7B68     		ldr	r3, [r7, #4]
 2847 00f2 1B68     		ldr	r3, [r3]
 2848 00f4 0121     		movs	r1, #1
 2849 00f6 8A43     		bics	r2, r1
 2850 00f8 1A60     		str	r2, [r3]
 2851              	.L186:
1274:cube/Drivers/STM32F0xx_HAL_Driver/Src/stm32f0xx_hal_tim.c **** 
1275:cube/Drivers/STM32F0xx_HAL_Driver/Src/stm32f0xx_hal_tim.c ****   /* Return function status */
1276:cube/Drivers/STM32F0xx_HAL_Driver/Src/stm32f0xx_hal_tim.c ****   return HAL_OK;
 2852              		.loc 1 1276 0 is_stmt 1
 2853 00fa 0023     		movs	r3, #0
1277:cube/Drivers/STM32F0xx_HAL_Driver/Src/stm32f0xx_hal_tim.c **** }
 2854              		.loc 1 1277 0
 2855 00fc 1800     		movs	r0, r3
 2856 00fe BD46     		mov	sp, r7
 2857 0100 02B0     		add	sp, sp, #8
 2858              		@ sp needed
 2859 0102 80BD     		pop	{r7, pc}
 2860              	.L189:
 2861              		.align	2
 2862              	.L188:
 2863 0104 002C0140 		.word	1073818624
 2864 0108 00400140 		.word	1073823744
 2865 010c 00440140 		.word	1073824768
 2866 0110 00480140 		.word	1073825792
 2867 0114 11110000 		.word	4369
 2868 0118 44040000 		.word	1092
 2869 011c FF7FFFFF 		.word	-32769
 2870              		.cfi_endproc
 2871              	.LFE64:
 2873              		.section	.text.HAL_TIM_PWM_Start_DMA,"ax",%progbits
 2874              		.align	1
ARM GAS  /tmp/ccnYXliM.s 			page 74


 2875              		.global	HAL_TIM_PWM_Start_DMA
 2876              		.syntax unified
 2877              		.code	16
 2878              		.thumb_func
 2879              		.fpu softvfp
 2881              	HAL_TIM_PWM_Start_DMA:
 2882              	.LFB65:
1278:cube/Drivers/STM32F0xx_HAL_Driver/Src/stm32f0xx_hal_tim.c **** 
1279:cube/Drivers/STM32F0xx_HAL_Driver/Src/stm32f0xx_hal_tim.c **** /**
1280:cube/Drivers/STM32F0xx_HAL_Driver/Src/stm32f0xx_hal_tim.c ****   * @brief  Starts the TIM PWM signal generation in DMA mode.
1281:cube/Drivers/STM32F0xx_HAL_Driver/Src/stm32f0xx_hal_tim.c ****   * @param  htim TIM handle
1282:cube/Drivers/STM32F0xx_HAL_Driver/Src/stm32f0xx_hal_tim.c ****   * @param  Channel TIM Channels to be enabled
1283:cube/Drivers/STM32F0xx_HAL_Driver/Src/stm32f0xx_hal_tim.c ****   *          This parameter can be one of the following values:
1284:cube/Drivers/STM32F0xx_HAL_Driver/Src/stm32f0xx_hal_tim.c ****   *            @arg TIM_CHANNEL_1: TIM Channel 1 selected
1285:cube/Drivers/STM32F0xx_HAL_Driver/Src/stm32f0xx_hal_tim.c ****   *            @arg TIM_CHANNEL_2: TIM Channel 2 selected
1286:cube/Drivers/STM32F0xx_HAL_Driver/Src/stm32f0xx_hal_tim.c ****   *            @arg TIM_CHANNEL_3: TIM Channel 3 selected
1287:cube/Drivers/STM32F0xx_HAL_Driver/Src/stm32f0xx_hal_tim.c ****   *            @arg TIM_CHANNEL_4: TIM Channel 4 selected
1288:cube/Drivers/STM32F0xx_HAL_Driver/Src/stm32f0xx_hal_tim.c ****   * @param  pData The source Buffer address.
1289:cube/Drivers/STM32F0xx_HAL_Driver/Src/stm32f0xx_hal_tim.c ****   * @param  Length The length of data to be transferred from memory to TIM peripheral
1290:cube/Drivers/STM32F0xx_HAL_Driver/Src/stm32f0xx_hal_tim.c ****   * @retval HAL status
1291:cube/Drivers/STM32F0xx_HAL_Driver/Src/stm32f0xx_hal_tim.c **** */
1292:cube/Drivers/STM32F0xx_HAL_Driver/Src/stm32f0xx_hal_tim.c **** HAL_StatusTypeDef HAL_TIM_PWM_Start_DMA(TIM_HandleTypeDef *htim, uint32_t Channel, uint32_t *pData,
1293:cube/Drivers/STM32F0xx_HAL_Driver/Src/stm32f0xx_hal_tim.c **** {
 2883              		.loc 1 1293 0
 2884              		.cfi_startproc
 2885              		@ args = 0, pretend = 0, frame = 16
 2886              		@ frame_needed = 1, uses_anonymous_args = 0
 2887 0000 80B5     		push	{r7, lr}
 2888              		.cfi_def_cfa_offset 8
 2889              		.cfi_offset 7, -8
 2890              		.cfi_offset 14, -4
 2891 0002 84B0     		sub	sp, sp, #16
 2892              		.cfi_def_cfa_offset 24
 2893 0004 00AF     		add	r7, sp, #0
 2894              		.cfi_def_cfa_register 7
 2895 0006 F860     		str	r0, [r7, #12]
 2896 0008 B960     		str	r1, [r7, #8]
 2897 000a 7A60     		str	r2, [r7, #4]
 2898 000c 1A00     		movs	r2, r3
 2899 000e BB1C     		adds	r3, r7, #2
 2900 0010 1A80     		strh	r2, [r3]
1294:cube/Drivers/STM32F0xx_HAL_Driver/Src/stm32f0xx_hal_tim.c ****   /* Check the parameters */
1295:cube/Drivers/STM32F0xx_HAL_Driver/Src/stm32f0xx_hal_tim.c ****   assert_param(IS_TIM_CCX_INSTANCE(htim->Instance, Channel));
1296:cube/Drivers/STM32F0xx_HAL_Driver/Src/stm32f0xx_hal_tim.c **** 
1297:cube/Drivers/STM32F0xx_HAL_Driver/Src/stm32f0xx_hal_tim.c ****   if((htim->State == HAL_TIM_STATE_BUSY))
 2901              		.loc 1 1297 0
 2902 0012 FB68     		ldr	r3, [r7, #12]
 2903 0014 3D22     		movs	r2, #61
 2904 0016 9B5C     		ldrb	r3, [r3, r2]
 2905 0018 DBB2     		uxtb	r3, r3
 2906 001a 022B     		cmp	r3, #2
 2907 001c 01D1     		bne	.L191
1298:cube/Drivers/STM32F0xx_HAL_Driver/Src/stm32f0xx_hal_tim.c ****   {
1299:cube/Drivers/STM32F0xx_HAL_Driver/Src/stm32f0xx_hal_tim.c ****      return HAL_BUSY;
 2908              		.loc 1 1299 0
 2909 001e 0223     		movs	r3, #2
 2910 0020 C4E0     		b	.L192
ARM GAS  /tmp/ccnYXliM.s 			page 75


 2911              	.L191:
1300:cube/Drivers/STM32F0xx_HAL_Driver/Src/stm32f0xx_hal_tim.c ****   }
1301:cube/Drivers/STM32F0xx_HAL_Driver/Src/stm32f0xx_hal_tim.c ****   else if((htim->State == HAL_TIM_STATE_READY))
 2912              		.loc 1 1301 0
 2913 0022 FB68     		ldr	r3, [r7, #12]
 2914 0024 3D22     		movs	r2, #61
 2915 0026 9B5C     		ldrb	r3, [r3, r2]
 2916 0028 DBB2     		uxtb	r3, r3
 2917 002a 012B     		cmp	r3, #1
 2918 002c 0CD1     		bne	.L193
1302:cube/Drivers/STM32F0xx_HAL_Driver/Src/stm32f0xx_hal_tim.c ****   {
1303:cube/Drivers/STM32F0xx_HAL_Driver/Src/stm32f0xx_hal_tim.c ****     if(((uint32_t)pData == 0U ) && (Length > 0U))
 2919              		.loc 1 1303 0
 2920 002e 7B68     		ldr	r3, [r7, #4]
 2921 0030 002B     		cmp	r3, #0
 2922 0032 05D1     		bne	.L194
 2923              		.loc 1 1303 0 is_stmt 0 discriminator 1
 2924 0034 BB1C     		adds	r3, r7, #2
 2925 0036 1B88     		ldrh	r3, [r3]
 2926 0038 002B     		cmp	r3, #0
 2927 003a 01D0     		beq	.L194
1304:cube/Drivers/STM32F0xx_HAL_Driver/Src/stm32f0xx_hal_tim.c ****     {
1305:cube/Drivers/STM32F0xx_HAL_Driver/Src/stm32f0xx_hal_tim.c ****       return HAL_ERROR;
 2928              		.loc 1 1305 0 is_stmt 1
 2929 003c 0123     		movs	r3, #1
 2930 003e B5E0     		b	.L192
 2931              	.L194:
1306:cube/Drivers/STM32F0xx_HAL_Driver/Src/stm32f0xx_hal_tim.c ****     }
1307:cube/Drivers/STM32F0xx_HAL_Driver/Src/stm32f0xx_hal_tim.c ****     else
1308:cube/Drivers/STM32F0xx_HAL_Driver/Src/stm32f0xx_hal_tim.c ****     {
1309:cube/Drivers/STM32F0xx_HAL_Driver/Src/stm32f0xx_hal_tim.c ****       htim->State = HAL_TIM_STATE_BUSY;
 2932              		.loc 1 1309 0
 2933 0040 FB68     		ldr	r3, [r7, #12]
 2934 0042 3D22     		movs	r2, #61
 2935 0044 0221     		movs	r1, #2
 2936 0046 9954     		strb	r1, [r3, r2]
 2937              	.L193:
1310:cube/Drivers/STM32F0xx_HAL_Driver/Src/stm32f0xx_hal_tim.c ****     }
1311:cube/Drivers/STM32F0xx_HAL_Driver/Src/stm32f0xx_hal_tim.c ****   }
1312:cube/Drivers/STM32F0xx_HAL_Driver/Src/stm32f0xx_hal_tim.c ****   switch (Channel)
 2938              		.loc 1 1312 0
 2939 0048 BB68     		ldr	r3, [r7, #8]
 2940 004a 042B     		cmp	r3, #4
 2941 004c 25D0     		beq	.L196
 2942 004e 02D8     		bhi	.L197
 2943 0050 002B     		cmp	r3, #0
 2944 0052 05D0     		beq	.L198
1313:cube/Drivers/STM32F0xx_HAL_Driver/Src/stm32f0xx_hal_tim.c ****   {
1314:cube/Drivers/STM32F0xx_HAL_Driver/Src/stm32f0xx_hal_tim.c ****     case TIM_CHANNEL_1:
1315:cube/Drivers/STM32F0xx_HAL_Driver/Src/stm32f0xx_hal_tim.c ****     {
1316:cube/Drivers/STM32F0xx_HAL_Driver/Src/stm32f0xx_hal_tim.c ****       /* Set the DMA Period elapsed callback */
1317:cube/Drivers/STM32F0xx_HAL_Driver/Src/stm32f0xx_hal_tim.c ****       htim->hdma[TIM_DMA_ID_CC1]->XferCpltCallback = TIM_DMADelayPulseCplt;
1318:cube/Drivers/STM32F0xx_HAL_Driver/Src/stm32f0xx_hal_tim.c **** 
1319:cube/Drivers/STM32F0xx_HAL_Driver/Src/stm32f0xx_hal_tim.c ****       /* Set the DMA error callback */
1320:cube/Drivers/STM32F0xx_HAL_Driver/Src/stm32f0xx_hal_tim.c ****       htim->hdma[TIM_DMA_ID_CC1]->XferErrorCallback = TIM_DMAError ;
1321:cube/Drivers/STM32F0xx_HAL_Driver/Src/stm32f0xx_hal_tim.c **** 
1322:cube/Drivers/STM32F0xx_HAL_Driver/Src/stm32f0xx_hal_tim.c ****       /* Enable the DMA channel */
ARM GAS  /tmp/ccnYXliM.s 			page 76


1323:cube/Drivers/STM32F0xx_HAL_Driver/Src/stm32f0xx_hal_tim.c ****       HAL_DMA_Start_IT(htim->hdma[TIM_DMA_ID_CC1], (uint32_t)pData, (uint32_t)&htim->Instance->CCR1
1324:cube/Drivers/STM32F0xx_HAL_Driver/Src/stm32f0xx_hal_tim.c **** 
1325:cube/Drivers/STM32F0xx_HAL_Driver/Src/stm32f0xx_hal_tim.c ****       /* Enable the TIM Capture/Compare 1 DMA request */
1326:cube/Drivers/STM32F0xx_HAL_Driver/Src/stm32f0xx_hal_tim.c ****       __HAL_TIM_ENABLE_DMA(htim, TIM_DMA_CC1);
1327:cube/Drivers/STM32F0xx_HAL_Driver/Src/stm32f0xx_hal_tim.c ****     }
1328:cube/Drivers/STM32F0xx_HAL_Driver/Src/stm32f0xx_hal_tim.c ****     break;
1329:cube/Drivers/STM32F0xx_HAL_Driver/Src/stm32f0xx_hal_tim.c **** 
1330:cube/Drivers/STM32F0xx_HAL_Driver/Src/stm32f0xx_hal_tim.c ****     case TIM_CHANNEL_2:
1331:cube/Drivers/STM32F0xx_HAL_Driver/Src/stm32f0xx_hal_tim.c ****     {
1332:cube/Drivers/STM32F0xx_HAL_Driver/Src/stm32f0xx_hal_tim.c ****       /* Set the DMA Period elapsed callback */
1333:cube/Drivers/STM32F0xx_HAL_Driver/Src/stm32f0xx_hal_tim.c ****       htim->hdma[TIM_DMA_ID_CC2]->XferCpltCallback = TIM_DMADelayPulseCplt;
1334:cube/Drivers/STM32F0xx_HAL_Driver/Src/stm32f0xx_hal_tim.c **** 
1335:cube/Drivers/STM32F0xx_HAL_Driver/Src/stm32f0xx_hal_tim.c ****       /* Set the DMA error callback */
1336:cube/Drivers/STM32F0xx_HAL_Driver/Src/stm32f0xx_hal_tim.c ****       htim->hdma[TIM_DMA_ID_CC2]->XferErrorCallback = TIM_DMAError ;
1337:cube/Drivers/STM32F0xx_HAL_Driver/Src/stm32f0xx_hal_tim.c **** 
1338:cube/Drivers/STM32F0xx_HAL_Driver/Src/stm32f0xx_hal_tim.c ****       /* Enable the DMA channel */
1339:cube/Drivers/STM32F0xx_HAL_Driver/Src/stm32f0xx_hal_tim.c ****       HAL_DMA_Start_IT(htim->hdma[TIM_DMA_ID_CC2], (uint32_t)pData, (uint32_t)&htim->Instance->CCR2
1340:cube/Drivers/STM32F0xx_HAL_Driver/Src/stm32f0xx_hal_tim.c **** 
1341:cube/Drivers/STM32F0xx_HAL_Driver/Src/stm32f0xx_hal_tim.c ****       /* Enable the TIM Capture/Compare 2 DMA request */
1342:cube/Drivers/STM32F0xx_HAL_Driver/Src/stm32f0xx_hal_tim.c ****       __HAL_TIM_ENABLE_DMA(htim, TIM_DMA_CC2);
1343:cube/Drivers/STM32F0xx_HAL_Driver/Src/stm32f0xx_hal_tim.c ****     }
1344:cube/Drivers/STM32F0xx_HAL_Driver/Src/stm32f0xx_hal_tim.c ****     break;
1345:cube/Drivers/STM32F0xx_HAL_Driver/Src/stm32f0xx_hal_tim.c **** 
1346:cube/Drivers/STM32F0xx_HAL_Driver/Src/stm32f0xx_hal_tim.c ****     case TIM_CHANNEL_3:
1347:cube/Drivers/STM32F0xx_HAL_Driver/Src/stm32f0xx_hal_tim.c ****     {
1348:cube/Drivers/STM32F0xx_HAL_Driver/Src/stm32f0xx_hal_tim.c ****       /* Set the DMA Period elapsed callback */
1349:cube/Drivers/STM32F0xx_HAL_Driver/Src/stm32f0xx_hal_tim.c ****       htim->hdma[TIM_DMA_ID_CC3]->XferCpltCallback = TIM_DMADelayPulseCplt;
1350:cube/Drivers/STM32F0xx_HAL_Driver/Src/stm32f0xx_hal_tim.c **** 
1351:cube/Drivers/STM32F0xx_HAL_Driver/Src/stm32f0xx_hal_tim.c ****       /* Set the DMA error callback */
1352:cube/Drivers/STM32F0xx_HAL_Driver/Src/stm32f0xx_hal_tim.c ****       htim->hdma[TIM_DMA_ID_CC3]->XferErrorCallback = TIM_DMAError ;
1353:cube/Drivers/STM32F0xx_HAL_Driver/Src/stm32f0xx_hal_tim.c **** 
1354:cube/Drivers/STM32F0xx_HAL_Driver/Src/stm32f0xx_hal_tim.c ****       /* Enable the DMA channel */
1355:cube/Drivers/STM32F0xx_HAL_Driver/Src/stm32f0xx_hal_tim.c ****       HAL_DMA_Start_IT(htim->hdma[TIM_DMA_ID_CC3], (uint32_t)pData, (uint32_t)&htim->Instance->CCR3
1356:cube/Drivers/STM32F0xx_HAL_Driver/Src/stm32f0xx_hal_tim.c **** 
1357:cube/Drivers/STM32F0xx_HAL_Driver/Src/stm32f0xx_hal_tim.c ****       /* Enable the TIM Output Capture/Compare 3 request */
1358:cube/Drivers/STM32F0xx_HAL_Driver/Src/stm32f0xx_hal_tim.c ****       __HAL_TIM_ENABLE_DMA(htim, TIM_DMA_CC3);
1359:cube/Drivers/STM32F0xx_HAL_Driver/Src/stm32f0xx_hal_tim.c ****     }
1360:cube/Drivers/STM32F0xx_HAL_Driver/Src/stm32f0xx_hal_tim.c ****     break;
1361:cube/Drivers/STM32F0xx_HAL_Driver/Src/stm32f0xx_hal_tim.c **** 
1362:cube/Drivers/STM32F0xx_HAL_Driver/Src/stm32f0xx_hal_tim.c ****     case TIM_CHANNEL_4:
1363:cube/Drivers/STM32F0xx_HAL_Driver/Src/stm32f0xx_hal_tim.c ****     {
1364:cube/Drivers/STM32F0xx_HAL_Driver/Src/stm32f0xx_hal_tim.c ****      /* Set the DMA Period elapsed callback */
1365:cube/Drivers/STM32F0xx_HAL_Driver/Src/stm32f0xx_hal_tim.c ****       htim->hdma[TIM_DMA_ID_CC4]->XferCpltCallback = TIM_DMADelayPulseCplt;
1366:cube/Drivers/STM32F0xx_HAL_Driver/Src/stm32f0xx_hal_tim.c **** 
1367:cube/Drivers/STM32F0xx_HAL_Driver/Src/stm32f0xx_hal_tim.c ****       /* Set the DMA error callback */
1368:cube/Drivers/STM32F0xx_HAL_Driver/Src/stm32f0xx_hal_tim.c ****       htim->hdma[TIM_DMA_ID_CC4]->XferErrorCallback = TIM_DMAError ;
1369:cube/Drivers/STM32F0xx_HAL_Driver/Src/stm32f0xx_hal_tim.c **** 
1370:cube/Drivers/STM32F0xx_HAL_Driver/Src/stm32f0xx_hal_tim.c ****       /* Enable the DMA channel */
1371:cube/Drivers/STM32F0xx_HAL_Driver/Src/stm32f0xx_hal_tim.c ****       HAL_DMA_Start_IT(htim->hdma[TIM_DMA_ID_CC4], (uint32_t)pData, (uint32_t)&htim->Instance->CCR4
1372:cube/Drivers/STM32F0xx_HAL_Driver/Src/stm32f0xx_hal_tim.c **** 
1373:cube/Drivers/STM32F0xx_HAL_Driver/Src/stm32f0xx_hal_tim.c ****       /* Enable the TIM Capture/Compare 4 DMA request */
1374:cube/Drivers/STM32F0xx_HAL_Driver/Src/stm32f0xx_hal_tim.c ****       __HAL_TIM_ENABLE_DMA(htim, TIM_DMA_CC4);
1375:cube/Drivers/STM32F0xx_HAL_Driver/Src/stm32f0xx_hal_tim.c ****     }
1376:cube/Drivers/STM32F0xx_HAL_Driver/Src/stm32f0xx_hal_tim.c ****     break;
1377:cube/Drivers/STM32F0xx_HAL_Driver/Src/stm32f0xx_hal_tim.c **** 
1378:cube/Drivers/STM32F0xx_HAL_Driver/Src/stm32f0xx_hal_tim.c ****     default:
1379:cube/Drivers/STM32F0xx_HAL_Driver/Src/stm32f0xx_hal_tim.c ****     break;
ARM GAS  /tmp/ccnYXliM.s 			page 77


 2945              		.loc 1 1379 0
 2946 0054 78E0     		b	.L201
 2947              	.L197:
1312:cube/Drivers/STM32F0xx_HAL_Driver/Src/stm32f0xx_hal_tim.c ****   {
 2948              		.loc 1 1312 0
 2949 0056 082B     		cmp	r3, #8
 2950 0058 3CD0     		beq	.L199
 2951 005a 0C2B     		cmp	r3, #12
 2952 005c 57D0     		beq	.L200
 2953              		.loc 1 1379 0
 2954 005e 73E0     		b	.L201
 2955              	.L198:
1317:cube/Drivers/STM32F0xx_HAL_Driver/Src/stm32f0xx_hal_tim.c **** 
 2956              		.loc 1 1317 0
 2957 0060 FB68     		ldr	r3, [r7, #12]
 2958 0062 5B6A     		ldr	r3, [r3, #36]
 2959 0064 534A     		ldr	r2, .L206
 2960 0066 9A62     		str	r2, [r3, #40]
1320:cube/Drivers/STM32F0xx_HAL_Driver/Src/stm32f0xx_hal_tim.c **** 
 2961              		.loc 1 1320 0
 2962 0068 FB68     		ldr	r3, [r7, #12]
 2963 006a 5B6A     		ldr	r3, [r3, #36]
 2964 006c 524A     		ldr	r2, .L206+4
 2965 006e 1A63     		str	r2, [r3, #48]
1323:cube/Drivers/STM32F0xx_HAL_Driver/Src/stm32f0xx_hal_tim.c **** 
 2966              		.loc 1 1323 0
