ARM GAS  /tmp/ccwNk3aP.s 			page 1


   1              		.cpu cortex-m0
   2              		.eabi_attribute 20, 1
   3              		.eabi_attribute 21, 1
   4              		.eabi_attribute 23, 3
   5              		.eabi_attribute 24, 1
   6              		.eabi_attribute 25, 1
   7              		.eabi_attribute 26, 1
   8              		.eabi_attribute 30, 6
   9              		.eabi_attribute 34, 0
  10              		.eabi_attribute 18, 4
  11              		.file	"stm32f0xx_hal_flash.c"
  12              		.text
  13              	.Ltext0:
  14              		.cfi_sections	.debug_frame
  15              		.comm	pFlash,32,8
  16              		.section	.text.HAL_FLASH_Program,"ax",%progbits
  17              		.align	1
  18              		.global	HAL_FLASH_Program
  19              		.syntax unified
  20              		.code	16
  21              		.thumb_func
  22              		.fpu softvfp
  24              	HAL_FLASH_Program:
  25              	.LFB37:
  26              		.file 1 "cube/Drivers/STM32F0xx_HAL_Driver/Src/stm32f0xx_hal_flash.c"
   1:cube/Drivers/STM32F0xx_HAL_Driver/Src/stm32f0xx_hal_flash.c **** /**
   2:cube/Drivers/STM32F0xx_HAL_Driver/Src/stm32f0xx_hal_flash.c ****   ******************************************************************************
   3:cube/Drivers/STM32F0xx_HAL_Driver/Src/stm32f0xx_hal_flash.c ****   * @file    stm32f0xx_hal_flash.c
   4:cube/Drivers/STM32F0xx_HAL_Driver/Src/stm32f0xx_hal_flash.c ****   * @author  MCD Application Team
   5:cube/Drivers/STM32F0xx_HAL_Driver/Src/stm32f0xx_hal_flash.c ****   * @brief   FLASH HAL module driver.
   6:cube/Drivers/STM32F0xx_HAL_Driver/Src/stm32f0xx_hal_flash.c ****   *          This file provides firmware functions to manage the following 
   7:cube/Drivers/STM32F0xx_HAL_Driver/Src/stm32f0xx_hal_flash.c ****   *          functionalities of the internal FLASH memory:
   8:cube/Drivers/STM32F0xx_HAL_Driver/Src/stm32f0xx_hal_flash.c ****   *           + Program operations functions
   9:cube/Drivers/STM32F0xx_HAL_Driver/Src/stm32f0xx_hal_flash.c ****   *           + Memory Control functions 
  10:cube/Drivers/STM32F0xx_HAL_Driver/Src/stm32f0xx_hal_flash.c ****   *           + Peripheral State functions
  11:cube/Drivers/STM32F0xx_HAL_Driver/Src/stm32f0xx_hal_flash.c ****   *         
  12:cube/Drivers/STM32F0xx_HAL_Driver/Src/stm32f0xx_hal_flash.c ****   @verbatim
  13:cube/Drivers/STM32F0xx_HAL_Driver/Src/stm32f0xx_hal_flash.c ****   ==============================================================================
  14:cube/Drivers/STM32F0xx_HAL_Driver/Src/stm32f0xx_hal_flash.c ****                         ##### FLASH peripheral features #####
  15:cube/Drivers/STM32F0xx_HAL_Driver/Src/stm32f0xx_hal_flash.c ****   ==============================================================================
  16:cube/Drivers/STM32F0xx_HAL_Driver/Src/stm32f0xx_hal_flash.c ****   [..] The Flash memory interface manages CPU AHB I-Code and D-Code accesses 
  17:cube/Drivers/STM32F0xx_HAL_Driver/Src/stm32f0xx_hal_flash.c ****        to the Flash memory. It implements the erase and program Flash memory operations 
  18:cube/Drivers/STM32F0xx_HAL_Driver/Src/stm32f0xx_hal_flash.c ****        and the read and write protection mechanisms.
  19:cube/Drivers/STM32F0xx_HAL_Driver/Src/stm32f0xx_hal_flash.c **** 
  20:cube/Drivers/STM32F0xx_HAL_Driver/Src/stm32f0xx_hal_flash.c ****   [..] The Flash memory interface accelerates code execution with a system of instruction
  21:cube/Drivers/STM32F0xx_HAL_Driver/Src/stm32f0xx_hal_flash.c ****       prefetch. 
  22:cube/Drivers/STM32F0xx_HAL_Driver/Src/stm32f0xx_hal_flash.c **** 
  23:cube/Drivers/STM32F0xx_HAL_Driver/Src/stm32f0xx_hal_flash.c ****   [..] The FLASH main features are:
  24:cube/Drivers/STM32F0xx_HAL_Driver/Src/stm32f0xx_hal_flash.c ****       (+) Flash memory read operations
  25:cube/Drivers/STM32F0xx_HAL_Driver/Src/stm32f0xx_hal_flash.c ****       (+) Flash memory program/erase operations
  26:cube/Drivers/STM32F0xx_HAL_Driver/Src/stm32f0xx_hal_flash.c ****       (+) Read / write protections
  27:cube/Drivers/STM32F0xx_HAL_Driver/Src/stm32f0xx_hal_flash.c ****       (+) Prefetch on I-Code
  28:cube/Drivers/STM32F0xx_HAL_Driver/Src/stm32f0xx_hal_flash.c ****       (+) Option Bytes programming
  29:cube/Drivers/STM32F0xx_HAL_Driver/Src/stm32f0xx_hal_flash.c **** 
  30:cube/Drivers/STM32F0xx_HAL_Driver/Src/stm32f0xx_hal_flash.c **** 
  31:cube/Drivers/STM32F0xx_HAL_Driver/Src/stm32f0xx_hal_flash.c ****                      ##### How to use this driver #####
  32:cube/Drivers/STM32F0xx_HAL_Driver/Src/stm32f0xx_hal_flash.c ****   ==============================================================================
ARM GAS  /tmp/ccwNk3aP.s 			page 2


  33:cube/Drivers/STM32F0xx_HAL_Driver/Src/stm32f0xx_hal_flash.c ****   [..]                             
  34:cube/Drivers/STM32F0xx_HAL_Driver/Src/stm32f0xx_hal_flash.c ****       This driver provides functions and macros to configure and program the FLASH 
  35:cube/Drivers/STM32F0xx_HAL_Driver/Src/stm32f0xx_hal_flash.c ****       memory of all STM32F0xx devices.
  36:cube/Drivers/STM32F0xx_HAL_Driver/Src/stm32f0xx_hal_flash.c ****     
  37:cube/Drivers/STM32F0xx_HAL_Driver/Src/stm32f0xx_hal_flash.c ****       (#) FLASH Memory I/O Programming functions: this group includes all needed
  38:cube/Drivers/STM32F0xx_HAL_Driver/Src/stm32f0xx_hal_flash.c ****           functions to erase and program the main memory:
  39:cube/Drivers/STM32F0xx_HAL_Driver/Src/stm32f0xx_hal_flash.c ****         (++) Lock and Unlock the FLASH interface
  40:cube/Drivers/STM32F0xx_HAL_Driver/Src/stm32f0xx_hal_flash.c ****         (++) Erase function: Erase page, erase all pages
  41:cube/Drivers/STM32F0xx_HAL_Driver/Src/stm32f0xx_hal_flash.c ****         (++) Program functions: half word, word and doubleword
  42:cube/Drivers/STM32F0xx_HAL_Driver/Src/stm32f0xx_hal_flash.c ****       (#) FLASH Option Bytes Programming functions: this group includes all needed
  43:cube/Drivers/STM32F0xx_HAL_Driver/Src/stm32f0xx_hal_flash.c ****           functions to manage the Option Bytes:
  44:cube/Drivers/STM32F0xx_HAL_Driver/Src/stm32f0xx_hal_flash.c ****         (++) Lock and Unlock the Option Bytes
  45:cube/Drivers/STM32F0xx_HAL_Driver/Src/stm32f0xx_hal_flash.c ****         (++) Set/Reset the write protection
  46:cube/Drivers/STM32F0xx_HAL_Driver/Src/stm32f0xx_hal_flash.c ****         (++) Set the Read protection Level
  47:cube/Drivers/STM32F0xx_HAL_Driver/Src/stm32f0xx_hal_flash.c ****         (++) Program the user Option Bytes
  48:cube/Drivers/STM32F0xx_HAL_Driver/Src/stm32f0xx_hal_flash.c ****         (++) Launch the Option Bytes loader
  49:cube/Drivers/STM32F0xx_HAL_Driver/Src/stm32f0xx_hal_flash.c ****         (++) Erase Option Bytes
  50:cube/Drivers/STM32F0xx_HAL_Driver/Src/stm32f0xx_hal_flash.c ****         (++) Program the data Option Bytes
  51:cube/Drivers/STM32F0xx_HAL_Driver/Src/stm32f0xx_hal_flash.c ****         (++) Get the Write protection.
  52:cube/Drivers/STM32F0xx_HAL_Driver/Src/stm32f0xx_hal_flash.c ****         (++) Get the user option bytes.
  53:cube/Drivers/STM32F0xx_HAL_Driver/Src/stm32f0xx_hal_flash.c ****     
  54:cube/Drivers/STM32F0xx_HAL_Driver/Src/stm32f0xx_hal_flash.c ****       (#) Interrupts and flags management functions : this group 
  55:cube/Drivers/STM32F0xx_HAL_Driver/Src/stm32f0xx_hal_flash.c ****           includes all needed functions to:
  56:cube/Drivers/STM32F0xx_HAL_Driver/Src/stm32f0xx_hal_flash.c ****         (++) Handle FLASH interrupts
  57:cube/Drivers/STM32F0xx_HAL_Driver/Src/stm32f0xx_hal_flash.c ****         (++) Wait for last FLASH operation according to its status
  58:cube/Drivers/STM32F0xx_HAL_Driver/Src/stm32f0xx_hal_flash.c ****         (++) Get error flag status
  59:cube/Drivers/STM32F0xx_HAL_Driver/Src/stm32f0xx_hal_flash.c **** 
  60:cube/Drivers/STM32F0xx_HAL_Driver/Src/stm32f0xx_hal_flash.c ****   [..] In addition to these function, this driver includes a set of macros allowing
  61:cube/Drivers/STM32F0xx_HAL_Driver/Src/stm32f0xx_hal_flash.c ****        to handle the following operations:
  62:cube/Drivers/STM32F0xx_HAL_Driver/Src/stm32f0xx_hal_flash.c ****       
  63:cube/Drivers/STM32F0xx_HAL_Driver/Src/stm32f0xx_hal_flash.c ****       (+) Set/Get the latency
  64:cube/Drivers/STM32F0xx_HAL_Driver/Src/stm32f0xx_hal_flash.c ****       (+) Enable/Disable the prefetch buffer
  65:cube/Drivers/STM32F0xx_HAL_Driver/Src/stm32f0xx_hal_flash.c ****       (+) Enable/Disable the FLASH interrupts
  66:cube/Drivers/STM32F0xx_HAL_Driver/Src/stm32f0xx_hal_flash.c ****       (+) Monitor the FLASH flags status
  67:cube/Drivers/STM32F0xx_HAL_Driver/Src/stm32f0xx_hal_flash.c ****           
  68:cube/Drivers/STM32F0xx_HAL_Driver/Src/stm32f0xx_hal_flash.c ****   @endverbatim
  69:cube/Drivers/STM32F0xx_HAL_Driver/Src/stm32f0xx_hal_flash.c ****   ******************************************************************************
  70:cube/Drivers/STM32F0xx_HAL_Driver/Src/stm32f0xx_hal_flash.c ****   * @attention
  71:cube/Drivers/STM32F0xx_HAL_Driver/Src/stm32f0xx_hal_flash.c ****   *
  72:cube/Drivers/STM32F0xx_HAL_Driver/Src/stm32f0xx_hal_flash.c ****   * <h2><center>&copy; COPYRIGHT(c) 2016 STMicroelectronics</center></h2>
  73:cube/Drivers/STM32F0xx_HAL_Driver/Src/stm32f0xx_hal_flash.c ****   *
  74:cube/Drivers/STM32F0xx_HAL_Driver/Src/stm32f0xx_hal_flash.c ****   * Redistribution and use in source and binary forms, with or without modification,
  75:cube/Drivers/STM32F0xx_HAL_Driver/Src/stm32f0xx_hal_flash.c ****   * are permitted provided that the following conditions are met:
  76:cube/Drivers/STM32F0xx_HAL_Driver/Src/stm32f0xx_hal_flash.c ****   *   1. Redistributions of source code must retain the above copyright notice,
  77:cube/Drivers/STM32F0xx_HAL_Driver/Src/stm32f0xx_hal_flash.c ****   *      this list of conditions and the following disclaimer.
  78:cube/Drivers/STM32F0xx_HAL_Driver/Src/stm32f0xx_hal_flash.c ****   *   2. Redistributions in binary form must reproduce the above copyright notice,
  79:cube/Drivers/STM32F0xx_HAL_Driver/Src/stm32f0xx_hal_flash.c ****   *      this list of conditions and the following disclaimer in the documentation
  80:cube/Drivers/STM32F0xx_HAL_Driver/Src/stm32f0xx_hal_flash.c ****   *      and/or other materials provided with the distribution.
  81:cube/Drivers/STM32F0xx_HAL_Driver/Src/stm32f0xx_hal_flash.c ****   *   3. Neither the name of STMicroelectronics nor the names of its contributors
  82:cube/Drivers/STM32F0xx_HAL_Driver/Src/stm32f0xx_hal_flash.c ****   *      may be used to endorse or promote products derived from this software
  83:cube/Drivers/STM32F0xx_HAL_Driver/Src/stm32f0xx_hal_flash.c ****   *      without specific prior written permission.
  84:cube/Drivers/STM32F0xx_HAL_Driver/Src/stm32f0xx_hal_flash.c ****   *
  85:cube/Drivers/STM32F0xx_HAL_Driver/Src/stm32f0xx_hal_flash.c ****   * THIS SOFTWARE IS PROVIDED BY THE COPYRIGHT HOLDERS AND CONTRIBUTORS "AS IS"
  86:cube/Drivers/STM32F0xx_HAL_Driver/Src/stm32f0xx_hal_flash.c ****   * AND ANY EXPRESS OR IMPLIED WARRANTIES, INCLUDING, BUT NOT LIMITED TO, THE
  87:cube/Drivers/STM32F0xx_HAL_Driver/Src/stm32f0xx_hal_flash.c ****   * IMPLIED WARRANTIES OF MERCHANTABILITY AND FITNESS FOR A PARTICULAR PURPOSE ARE
  88:cube/Drivers/STM32F0xx_HAL_Driver/Src/stm32f0xx_hal_flash.c ****   * DISCLAIMED. IN NO EVENT SHALL THE COPYRIGHT HOLDER OR CONTRIBUTORS BE LIABLE
  89:cube/Drivers/STM32F0xx_HAL_Driver/Src/stm32f0xx_hal_flash.c ****   * FOR ANY DIRECT, INDIRECT, INCIDENTAL, SPECIAL, EXEMPLARY, OR CONSEQUENTIAL
ARM GAS  /tmp/ccwNk3aP.s 			page 3


  90:cube/Drivers/STM32F0xx_HAL_Driver/Src/stm32f0xx_hal_flash.c ****   * DAMAGES (INCLUDING, BUT NOT LIMITED TO, PROCUREMENT OF SUBSTITUTE GOODS OR
  91:cube/Drivers/STM32F0xx_HAL_Driver/Src/stm32f0xx_hal_flash.c ****   * SERVICES; LOSS OF USE, DATA, OR PROFITS; OR BUSINESS INTERRUPTION) HOWEVER
  92:cube/Drivers/STM32F0xx_HAL_Driver/Src/stm32f0xx_hal_flash.c ****   * CAUSED AND ON ANY THEORY OF LIABILITY, WHETHER IN CONTRACT, STRICT LIABILITY,
  93:cube/Drivers/STM32F0xx_HAL_Driver/Src/stm32f0xx_hal_flash.c ****   * OR TORT (INCLUDING NEGLIGENCE OR OTHERWISE) ARISING IN ANY WAY OUT OF THE USE
  94:cube/Drivers/STM32F0xx_HAL_Driver/Src/stm32f0xx_hal_flash.c ****   * OF THIS SOFTWARE, EVEN IF ADVISED OF THE POSSIBILITY OF SUCH DAMAGE.
  95:cube/Drivers/STM32F0xx_HAL_Driver/Src/stm32f0xx_hal_flash.c ****   *
  96:cube/Drivers/STM32F0xx_HAL_Driver/Src/stm32f0xx_hal_flash.c ****   ******************************************************************************  
  97:cube/Drivers/STM32F0xx_HAL_Driver/Src/stm32f0xx_hal_flash.c ****   */
  98:cube/Drivers/STM32F0xx_HAL_Driver/Src/stm32f0xx_hal_flash.c **** 
  99:cube/Drivers/STM32F0xx_HAL_Driver/Src/stm32f0xx_hal_flash.c **** /* Includes ------------------------------------------------------------------*/
 100:cube/Drivers/STM32F0xx_HAL_Driver/Src/stm32f0xx_hal_flash.c **** #include "stm32f0xx_hal.h"
 101:cube/Drivers/STM32F0xx_HAL_Driver/Src/stm32f0xx_hal_flash.c **** 
 102:cube/Drivers/STM32F0xx_HAL_Driver/Src/stm32f0xx_hal_flash.c **** /** @addtogroup STM32F0xx_HAL_Driver
 103:cube/Drivers/STM32F0xx_HAL_Driver/Src/stm32f0xx_hal_flash.c ****   * @{
 104:cube/Drivers/STM32F0xx_HAL_Driver/Src/stm32f0xx_hal_flash.c ****   */
 105:cube/Drivers/STM32F0xx_HAL_Driver/Src/stm32f0xx_hal_flash.c **** 
 106:cube/Drivers/STM32F0xx_HAL_Driver/Src/stm32f0xx_hal_flash.c **** #ifdef HAL_FLASH_MODULE_ENABLED
 107:cube/Drivers/STM32F0xx_HAL_Driver/Src/stm32f0xx_hal_flash.c **** 
 108:cube/Drivers/STM32F0xx_HAL_Driver/Src/stm32f0xx_hal_flash.c **** /** @defgroup FLASH FLASH
 109:cube/Drivers/STM32F0xx_HAL_Driver/Src/stm32f0xx_hal_flash.c ****   * @brief FLASH HAL module driver
 110:cube/Drivers/STM32F0xx_HAL_Driver/Src/stm32f0xx_hal_flash.c ****   * @{
 111:cube/Drivers/STM32F0xx_HAL_Driver/Src/stm32f0xx_hal_flash.c ****   */
 112:cube/Drivers/STM32F0xx_HAL_Driver/Src/stm32f0xx_hal_flash.c **** 
 113:cube/Drivers/STM32F0xx_HAL_Driver/Src/stm32f0xx_hal_flash.c **** /* Private typedef -----------------------------------------------------------*/
 114:cube/Drivers/STM32F0xx_HAL_Driver/Src/stm32f0xx_hal_flash.c **** /* Private define ------------------------------------------------------------*/
 115:cube/Drivers/STM32F0xx_HAL_Driver/Src/stm32f0xx_hal_flash.c **** /** @defgroup FLASH_Private_Constants FLASH Private Constants
 116:cube/Drivers/STM32F0xx_HAL_Driver/Src/stm32f0xx_hal_flash.c ****   * @{
 117:cube/Drivers/STM32F0xx_HAL_Driver/Src/stm32f0xx_hal_flash.c ****   */
 118:cube/Drivers/STM32F0xx_HAL_Driver/Src/stm32f0xx_hal_flash.c **** /**
 119:cube/Drivers/STM32F0xx_HAL_Driver/Src/stm32f0xx_hal_flash.c ****   * @}
 120:cube/Drivers/STM32F0xx_HAL_Driver/Src/stm32f0xx_hal_flash.c ****   */
 121:cube/Drivers/STM32F0xx_HAL_Driver/Src/stm32f0xx_hal_flash.c **** 
 122:cube/Drivers/STM32F0xx_HAL_Driver/Src/stm32f0xx_hal_flash.c **** /* Private macro ---------------------------- ---------------------------------*/
 123:cube/Drivers/STM32F0xx_HAL_Driver/Src/stm32f0xx_hal_flash.c **** /** @defgroup FLASH_Private_Macros FLASH Private Macros
 124:cube/Drivers/STM32F0xx_HAL_Driver/Src/stm32f0xx_hal_flash.c ****   * @{
 125:cube/Drivers/STM32F0xx_HAL_Driver/Src/stm32f0xx_hal_flash.c ****   */
 126:cube/Drivers/STM32F0xx_HAL_Driver/Src/stm32f0xx_hal_flash.c ****  
 127:cube/Drivers/STM32F0xx_HAL_Driver/Src/stm32f0xx_hal_flash.c **** /**
 128:cube/Drivers/STM32F0xx_HAL_Driver/Src/stm32f0xx_hal_flash.c ****   * @}
 129:cube/Drivers/STM32F0xx_HAL_Driver/Src/stm32f0xx_hal_flash.c ****   */
 130:cube/Drivers/STM32F0xx_HAL_Driver/Src/stm32f0xx_hal_flash.c **** 
 131:cube/Drivers/STM32F0xx_HAL_Driver/Src/stm32f0xx_hal_flash.c **** /* Private variables ---------------------------------------------------------*/
 132:cube/Drivers/STM32F0xx_HAL_Driver/Src/stm32f0xx_hal_flash.c **** /** @defgroup FLASH_Private_Variables FLASH Private Variables
 133:cube/Drivers/STM32F0xx_HAL_Driver/Src/stm32f0xx_hal_flash.c ****   * @{
 134:cube/Drivers/STM32F0xx_HAL_Driver/Src/stm32f0xx_hal_flash.c ****   */
 135:cube/Drivers/STM32F0xx_HAL_Driver/Src/stm32f0xx_hal_flash.c **** /* Variables used for Erase pages under interruption*/
 136:cube/Drivers/STM32F0xx_HAL_Driver/Src/stm32f0xx_hal_flash.c **** FLASH_ProcessTypeDef pFlash;
 137:cube/Drivers/STM32F0xx_HAL_Driver/Src/stm32f0xx_hal_flash.c **** /**
 138:cube/Drivers/STM32F0xx_HAL_Driver/Src/stm32f0xx_hal_flash.c ****   * @}
 139:cube/Drivers/STM32F0xx_HAL_Driver/Src/stm32f0xx_hal_flash.c ****   */
 140:cube/Drivers/STM32F0xx_HAL_Driver/Src/stm32f0xx_hal_flash.c **** 
 141:cube/Drivers/STM32F0xx_HAL_Driver/Src/stm32f0xx_hal_flash.c **** /* Private function prototypes -----------------------------------------------*/
 142:cube/Drivers/STM32F0xx_HAL_Driver/Src/stm32f0xx_hal_flash.c **** /** @defgroup FLASH_Private_Functions FLASH Private Functions
 143:cube/Drivers/STM32F0xx_HAL_Driver/Src/stm32f0xx_hal_flash.c ****   * @{
 144:cube/Drivers/STM32F0xx_HAL_Driver/Src/stm32f0xx_hal_flash.c ****   */
 145:cube/Drivers/STM32F0xx_HAL_Driver/Src/stm32f0xx_hal_flash.c **** static  void   FLASH_Program_HalfWord(uint32_t Address, uint16_t Data);
 146:cube/Drivers/STM32F0xx_HAL_Driver/Src/stm32f0xx_hal_flash.c **** static  void   FLASH_SetErrorCode(void);
ARM GAS  /tmp/ccwNk3aP.s 			page 4


 147:cube/Drivers/STM32F0xx_HAL_Driver/Src/stm32f0xx_hal_flash.c **** extern void    FLASH_PageErase(uint32_t PageAddress);
 148:cube/Drivers/STM32F0xx_HAL_Driver/Src/stm32f0xx_hal_flash.c **** /**
 149:cube/Drivers/STM32F0xx_HAL_Driver/Src/stm32f0xx_hal_flash.c ****   * @}
 150:cube/Drivers/STM32F0xx_HAL_Driver/Src/stm32f0xx_hal_flash.c ****   */
 151:cube/Drivers/STM32F0xx_HAL_Driver/Src/stm32f0xx_hal_flash.c **** 
 152:cube/Drivers/STM32F0xx_HAL_Driver/Src/stm32f0xx_hal_flash.c **** /* Exported functions ---------------------------------------------------------*/
 153:cube/Drivers/STM32F0xx_HAL_Driver/Src/stm32f0xx_hal_flash.c **** /** @defgroup FLASH_Exported_Functions FLASH Exported Functions
 154:cube/Drivers/STM32F0xx_HAL_Driver/Src/stm32f0xx_hal_flash.c ****   * @{
 155:cube/Drivers/STM32F0xx_HAL_Driver/Src/stm32f0xx_hal_flash.c ****   */
 156:cube/Drivers/STM32F0xx_HAL_Driver/Src/stm32f0xx_hal_flash.c ****   
 157:cube/Drivers/STM32F0xx_HAL_Driver/Src/stm32f0xx_hal_flash.c **** /** @defgroup FLASH_Exported_Functions_Group1 Programming operation functions 
 158:cube/Drivers/STM32F0xx_HAL_Driver/Src/stm32f0xx_hal_flash.c ****   *  @brief   Programming operation functions 
 159:cube/Drivers/STM32F0xx_HAL_Driver/Src/stm32f0xx_hal_flash.c ****   *
 160:cube/Drivers/STM32F0xx_HAL_Driver/Src/stm32f0xx_hal_flash.c **** @verbatim   
 161:cube/Drivers/STM32F0xx_HAL_Driver/Src/stm32f0xx_hal_flash.c **** @endverbatim
 162:cube/Drivers/STM32F0xx_HAL_Driver/Src/stm32f0xx_hal_flash.c ****   * @{
 163:cube/Drivers/STM32F0xx_HAL_Driver/Src/stm32f0xx_hal_flash.c ****   */
 164:cube/Drivers/STM32F0xx_HAL_Driver/Src/stm32f0xx_hal_flash.c **** 
 165:cube/Drivers/STM32F0xx_HAL_Driver/Src/stm32f0xx_hal_flash.c **** /**
 166:cube/Drivers/STM32F0xx_HAL_Driver/Src/stm32f0xx_hal_flash.c ****   * @brief  Program halfword, word or double word at a specified address
 167:cube/Drivers/STM32F0xx_HAL_Driver/Src/stm32f0xx_hal_flash.c ****   * @note   The function HAL_FLASH_Unlock() should be called before to unlock the FLASH interface
 168:cube/Drivers/STM32F0xx_HAL_Driver/Src/stm32f0xx_hal_flash.c ****   *         The function HAL_FLASH_Lock() should be called after to lock the FLASH interface
 169:cube/Drivers/STM32F0xx_HAL_Driver/Src/stm32f0xx_hal_flash.c ****   *
 170:cube/Drivers/STM32F0xx_HAL_Driver/Src/stm32f0xx_hal_flash.c ****   * @note   If an erase and a program operations are requested simultaneously,    
 171:cube/Drivers/STM32F0xx_HAL_Driver/Src/stm32f0xx_hal_flash.c ****   *         the erase operation is performed before the program one.
 172:cube/Drivers/STM32F0xx_HAL_Driver/Src/stm32f0xx_hal_flash.c ****   *  
 173:cube/Drivers/STM32F0xx_HAL_Driver/Src/stm32f0xx_hal_flash.c ****   * @note   FLASH should be previously erased before new programmation (only exception to this 
 174:cube/Drivers/STM32F0xx_HAL_Driver/Src/stm32f0xx_hal_flash.c ****   *         is when 0x0000 is programmed)
 175:cube/Drivers/STM32F0xx_HAL_Driver/Src/stm32f0xx_hal_flash.c ****   *
 176:cube/Drivers/STM32F0xx_HAL_Driver/Src/stm32f0xx_hal_flash.c ****   * @param  TypeProgram   Indicate the way to program at a specified address.
 177:cube/Drivers/STM32F0xx_HAL_Driver/Src/stm32f0xx_hal_flash.c ****   *                       This parameter can be a value of @ref FLASH_Type_Program
 178:cube/Drivers/STM32F0xx_HAL_Driver/Src/stm32f0xx_hal_flash.c ****   * @param  Address       Specifie the address to be programmed.
 179:cube/Drivers/STM32F0xx_HAL_Driver/Src/stm32f0xx_hal_flash.c ****   * @param  Data          Specifie the data to be programmed
 180:cube/Drivers/STM32F0xx_HAL_Driver/Src/stm32f0xx_hal_flash.c ****   * 
 181:cube/Drivers/STM32F0xx_HAL_Driver/Src/stm32f0xx_hal_flash.c ****   * @retval HAL_StatusTypeDef HAL Status
 182:cube/Drivers/STM32F0xx_HAL_Driver/Src/stm32f0xx_hal_flash.c ****   */
 183:cube/Drivers/STM32F0xx_HAL_Driver/Src/stm32f0xx_hal_flash.c **** HAL_StatusTypeDef HAL_FLASH_Program(uint32_t TypeProgram, uint32_t Address, uint64_t Data)
 184:cube/Drivers/STM32F0xx_HAL_Driver/Src/stm32f0xx_hal_flash.c **** {
  27              		.loc 1 184 0
  28              		.cfi_startproc
  29              		@ args = 0, pretend = 0, frame = 24
  30              		@ frame_needed = 1, uses_anonymous_args = 0
  31 0000 F0B5     		push	{r4, r5, r6, r7, lr}
  32              		.cfi_def_cfa_offset 20
  33              		.cfi_offset 4, -20
  34              		.cfi_offset 5, -16
  35              		.cfi_offset 6, -12
  36              		.cfi_offset 7, -8
  37              		.cfi_offset 14, -4
  38 0002 87B0     		sub	sp, sp, #28
  39              		.cfi_def_cfa_offset 48
  40 0004 00AF     		add	r7, sp, #0
  41              		.cfi_def_cfa_register 7
  42 0006 F860     		str	r0, [r7, #12]
  43 0008 B960     		str	r1, [r7, #8]
  44 000a 3A60     		str	r2, [r7]
  45 000c 7B60     		str	r3, [r7, #4]
ARM GAS  /tmp/ccwNk3aP.s 			page 5


 185:cube/Drivers/STM32F0xx_HAL_Driver/Src/stm32f0xx_hal_flash.c ****   HAL_StatusTypeDef status = HAL_ERROR;
  46              		.loc 1 185 0
  47 000e 1723     		movs	r3, #23
  48 0010 FB18     		adds	r3, r7, r3
  49 0012 0122     		movs	r2, #1
  50 0014 1A70     		strb	r2, [r3]
 186:cube/Drivers/STM32F0xx_HAL_Driver/Src/stm32f0xx_hal_flash.c ****   uint8_t index = 0U;
  51              		.loc 1 186 0
  52 0016 1623     		movs	r3, #22
  53 0018 FB18     		adds	r3, r7, r3
  54 001a 0022     		movs	r2, #0
  55 001c 1A70     		strb	r2, [r3]
 187:cube/Drivers/STM32F0xx_HAL_Driver/Src/stm32f0xx_hal_flash.c ****   uint8_t nbiterations = 0U;
  56              		.loc 1 187 0
  57 001e 1523     		movs	r3, #21
  58 0020 FB18     		adds	r3, r7, r3
  59 0022 0022     		movs	r2, #0
  60 0024 1A70     		strb	r2, [r3]
 188:cube/Drivers/STM32F0xx_HAL_Driver/Src/stm32f0xx_hal_flash.c ****   
 189:cube/Drivers/STM32F0xx_HAL_Driver/Src/stm32f0xx_hal_flash.c ****   /* Process Locked */
 190:cube/Drivers/STM32F0xx_HAL_Driver/Src/stm32f0xx_hal_flash.c ****   __HAL_LOCK(&pFlash);
  61              		.loc 1 190 0
  62 0026 3E4B     		ldr	r3, .L14
  63 0028 1B7E     		ldrb	r3, [r3, #24]
  64 002a 012B     		cmp	r3, #1
  65 002c 01D1     		bne	.L2
  66              		.loc 1 190 0 is_stmt 0 discriminator 1
  67 002e 0223     		movs	r3, #2
  68 0030 72E0     		b	.L3
  69              	.L2:
  70              		.loc 1 190 0 discriminator 2
  71 0032 3B4B     		ldr	r3, .L14
  72 0034 0122     		movs	r2, #1
  73 0036 1A76     		strb	r2, [r3, #24]
 191:cube/Drivers/STM32F0xx_HAL_Driver/Src/stm32f0xx_hal_flash.c **** 
 192:cube/Drivers/STM32F0xx_HAL_Driver/Src/stm32f0xx_hal_flash.c ****   /* Check the parameters */
 193:cube/Drivers/STM32F0xx_HAL_Driver/Src/stm32f0xx_hal_flash.c ****   assert_param(IS_FLASH_TYPEPROGRAM(TypeProgram));
 194:cube/Drivers/STM32F0xx_HAL_Driver/Src/stm32f0xx_hal_flash.c ****   assert_param(IS_FLASH_PROGRAM_ADDRESS(Address));
 195:cube/Drivers/STM32F0xx_HAL_Driver/Src/stm32f0xx_hal_flash.c **** 
 196:cube/Drivers/STM32F0xx_HAL_Driver/Src/stm32f0xx_hal_flash.c ****     /* Wait for last operation to be completed */
 197:cube/Drivers/STM32F0xx_HAL_Driver/Src/stm32f0xx_hal_flash.c ****     status = FLASH_WaitForLastOperation(FLASH_TIMEOUT_VALUE);
  74              		.loc 1 197 0 is_stmt 1 discriminator 2
  75 0038 1723     		movs	r3, #23
  76 003a FE18     		adds	r6, r7, r3
  77 003c 394B     		ldr	r3, .L14+4
  78 003e 1800     		movs	r0, r3
  79 0040 FFF7FEFF 		bl	FLASH_WaitForLastOperation
  80 0044 0300     		movs	r3, r0
  81 0046 3370     		strb	r3, [r6]
 198:cube/Drivers/STM32F0xx_HAL_Driver/Src/stm32f0xx_hal_flash.c ****   
 199:cube/Drivers/STM32F0xx_HAL_Driver/Src/stm32f0xx_hal_flash.c ****   if(status == HAL_OK)
  82              		.loc 1 199 0 discriminator 2
  83 0048 1723     		movs	r3, #23
  84 004a FB18     		adds	r3, r7, r3
  85 004c 1B78     		ldrb	r3, [r3]
  86 004e 002B     		cmp	r3, #0
  87 0050 5CD1     		bne	.L4
ARM GAS  /tmp/ccwNk3aP.s 			page 6


 200:cube/Drivers/STM32F0xx_HAL_Driver/Src/stm32f0xx_hal_flash.c ****   {
 201:cube/Drivers/STM32F0xx_HAL_Driver/Src/stm32f0xx_hal_flash.c ****     if(TypeProgram == FLASH_TYPEPROGRAM_HALFWORD)
  88              		.loc 1 201 0
  89 0052 FB68     		ldr	r3, [r7, #12]
  90 0054 012B     		cmp	r3, #1
  91 0056 04D1     		bne	.L5
 202:cube/Drivers/STM32F0xx_HAL_Driver/Src/stm32f0xx_hal_flash.c ****     {
 203:cube/Drivers/STM32F0xx_HAL_Driver/Src/stm32f0xx_hal_flash.c ****       /* Program halfword (16-bit) at a specified address. */
 204:cube/Drivers/STM32F0xx_HAL_Driver/Src/stm32f0xx_hal_flash.c ****       nbiterations = 1U;
  92              		.loc 1 204 0
  93 0058 1523     		movs	r3, #21
  94 005a FB18     		adds	r3, r7, r3
  95 005c 0122     		movs	r2, #1
  96 005e 1A70     		strb	r2, [r3]
  97 0060 0BE0     		b	.L6
  98              	.L5:
 205:cube/Drivers/STM32F0xx_HAL_Driver/Src/stm32f0xx_hal_flash.c ****     }
 206:cube/Drivers/STM32F0xx_HAL_Driver/Src/stm32f0xx_hal_flash.c ****     else if(TypeProgram == FLASH_TYPEPROGRAM_WORD)
  99              		.loc 1 206 0
 100 0062 FB68     		ldr	r3, [r7, #12]
 101 0064 022B     		cmp	r3, #2
 102 0066 04D1     		bne	.L7
 207:cube/Drivers/STM32F0xx_HAL_Driver/Src/stm32f0xx_hal_flash.c ****     {
 208:cube/Drivers/STM32F0xx_HAL_Driver/Src/stm32f0xx_hal_flash.c ****       /* Program word (32-bit = 2*16-bit) at a specified address. */
 209:cube/Drivers/STM32F0xx_HAL_Driver/Src/stm32f0xx_hal_flash.c ****       nbiterations = 2U;
 103              		.loc 1 209 0
 104 0068 1523     		movs	r3, #21
 105 006a FB18     		adds	r3, r7, r3
 106 006c 0222     		movs	r2, #2
 107 006e 1A70     		strb	r2, [r3]
 108 0070 03E0     		b	.L6
 109              	.L7:
 210:cube/Drivers/STM32F0xx_HAL_Driver/Src/stm32f0xx_hal_flash.c ****     }
 211:cube/Drivers/STM32F0xx_HAL_Driver/Src/stm32f0xx_hal_flash.c ****     else
 212:cube/Drivers/STM32F0xx_HAL_Driver/Src/stm32f0xx_hal_flash.c ****     {
 213:cube/Drivers/STM32F0xx_HAL_Driver/Src/stm32f0xx_hal_flash.c ****       /* Program double word (64-bit = 4*16-bit) at a specified address. */
 214:cube/Drivers/STM32F0xx_HAL_Driver/Src/stm32f0xx_hal_flash.c ****       nbiterations = 4U;
 110              		.loc 1 214 0
 111 0072 1523     		movs	r3, #21
 112 0074 FB18     		adds	r3, r7, r3
 113 0076 0422     		movs	r2, #4
 114 0078 1A70     		strb	r2, [r3]
 115              	.L6:
 215:cube/Drivers/STM32F0xx_HAL_Driver/Src/stm32f0xx_hal_flash.c ****     }
 216:cube/Drivers/STM32F0xx_HAL_Driver/Src/stm32f0xx_hal_flash.c **** 
 217:cube/Drivers/STM32F0xx_HAL_Driver/Src/stm32f0xx_hal_flash.c ****     for (index = 0U; index < nbiterations; index++)
 116              		.loc 1 217 0
 117 007a 1623     		movs	r3, #22
 118 007c FB18     		adds	r3, r7, r3
 119 007e 0022     		movs	r2, #0
 120 0080 1A70     		strb	r2, [r3]
 121 0082 39E0     		b	.L8
 122              	.L12:
 218:cube/Drivers/STM32F0xx_HAL_Driver/Src/stm32f0xx_hal_flash.c ****     {
 219:cube/Drivers/STM32F0xx_HAL_Driver/Src/stm32f0xx_hal_flash.c ****       FLASH_Program_HalfWord((Address + (2U*index)), (uint16_t)(Data >> (16U*index)));
 123              		.loc 1 219 0
 124 0084 1621     		movs	r1, #22
ARM GAS  /tmp/ccwNk3aP.s 			page 7


 125 0086 7B18     		adds	r3, r7, r1
 126 0088 1B78     		ldrb	r3, [r3]
 127 008a 5A00     		lsls	r2, r3, #1
 128 008c BB68     		ldr	r3, [r7, #8]
 129 008e D018     		adds	r0, r2, r3
 130 0090 7B18     		adds	r3, r7, r1
 131 0092 1B78     		ldrb	r3, [r3]
 132 0094 1B01     		lsls	r3, r3, #4
 133 0096 1A00     		movs	r2, r3
 134 0098 203A     		subs	r2, r2, #32
 135 009a 002A     		cmp	r2, #0
 136 009c 03DB     		blt	.L9
 137 009e 7968     		ldr	r1, [r7, #4]
 138 00a0 D140     		lsrs	r1, r1, r2
 139 00a2 0C00     		movs	r4, r1
 140 00a4 08E0     		b	.L10
 141              	.L9:
 142 00a6 2022     		movs	r2, #32
 143 00a8 D21A     		subs	r2, r2, r3
 144 00aa 7968     		ldr	r1, [r7, #4]
 145 00ac 9140     		lsls	r1, r1, r2
 146 00ae 0A00     		movs	r2, r1
 147 00b0 3968     		ldr	r1, [r7]
 148 00b2 D940     		lsrs	r1, r1, r3
 149 00b4 0C00     		movs	r4, r1
 150 00b6 1443     		orrs	r4, r2
 151              	.L10:
 152 00b8 7A68     		ldr	r2, [r7, #4]
 153 00ba DA40     		lsrs	r2, r2, r3
 154 00bc 1500     		movs	r5, r2
 155 00be A3B2     		uxth	r3, r4
 156 00c0 1900     		movs	r1, r3
 157 00c2 FFF7FEFF 		bl	FLASH_Program_HalfWord
 220:cube/Drivers/STM32F0xx_HAL_Driver/Src/stm32f0xx_hal_flash.c **** 
 221:cube/Drivers/STM32F0xx_HAL_Driver/Src/stm32f0xx_hal_flash.c ****         /* Wait for last operation to be completed */
 222:cube/Drivers/STM32F0xx_HAL_Driver/Src/stm32f0xx_hal_flash.c ****         status = FLASH_WaitForLastOperation(FLASH_TIMEOUT_VALUE);
 158              		.loc 1 222 0
 159 00c6 1723     		movs	r3, #23
 160 00c8 FE18     		adds	r6, r7, r3
 161 00ca 164B     		ldr	r3, .L14+4
 162 00cc 1800     		movs	r0, r3
 163 00ce FFF7FEFF 		bl	FLASH_WaitForLastOperation
 164 00d2 0300     		movs	r3, r0
 165 00d4 3370     		strb	r3, [r6]
 223:cube/Drivers/STM32F0xx_HAL_Driver/Src/stm32f0xx_hal_flash.c ****     
 224:cube/Drivers/STM32F0xx_HAL_Driver/Src/stm32f0xx_hal_flash.c ****         /* If the program operation is completed, disable the PG Bit */
 225:cube/Drivers/STM32F0xx_HAL_Driver/Src/stm32f0xx_hal_flash.c ****         CLEAR_BIT(FLASH->CR, FLASH_CR_PG);
 166              		.loc 1 225 0
 167 00d6 144B     		ldr	r3, .L14+8
 168 00d8 1A69     		ldr	r2, [r3, #16]
 169 00da 134B     		ldr	r3, .L14+8
 170 00dc 0121     		movs	r1, #1
 171 00de 8A43     		bics	r2, r1
 172 00e0 1A61     		str	r2, [r3, #16]
 226:cube/Drivers/STM32F0xx_HAL_Driver/Src/stm32f0xx_hal_flash.c ****       /* In case of error, stop programation procedure */
 227:cube/Drivers/STM32F0xx_HAL_Driver/Src/stm32f0xx_hal_flash.c ****       if (status != HAL_OK)
 173              		.loc 1 227 0
ARM GAS  /tmp/ccwNk3aP.s 			page 8


 174 00e2 1723     		movs	r3, #23
 175 00e4 FB18     		adds	r3, r7, r3
 176 00e6 1B78     		ldrb	r3, [r3]
 177 00e8 002B     		cmp	r3, #0
 178 00ea 0ED1     		bne	.L13
 217:cube/Drivers/STM32F0xx_HAL_Driver/Src/stm32f0xx_hal_flash.c ****     {
 179              		.loc 1 217 0 discriminator 2
 180 00ec 1621     		movs	r1, #22
 181 00ee 7B18     		adds	r3, r7, r1
 182 00f0 1A78     		ldrb	r2, [r3]
 183 00f2 7B18     		adds	r3, r7, r1
 184 00f4 0132     		adds	r2, r2, #1
 185 00f6 1A70     		strb	r2, [r3]
 186              	.L8:
 217:cube/Drivers/STM32F0xx_HAL_Driver/Src/stm32f0xx_hal_flash.c ****     {
 187              		.loc 1 217 0 is_stmt 0 discriminator 1
 188 00f8 1623     		movs	r3, #22
 189 00fa FA18     		adds	r2, r7, r3
 190 00fc 1523     		movs	r3, #21
 191 00fe FB18     		adds	r3, r7, r3
 192 0100 1278     		ldrb	r2, [r2]
 193 0102 1B78     		ldrb	r3, [r3]
 194 0104 9A42     		cmp	r2, r3
 195 0106 BDD3     		bcc	.L12
 196 0108 00E0     		b	.L4
 197              	.L13:
 228:cube/Drivers/STM32F0xx_HAL_Driver/Src/stm32f0xx_hal_flash.c ****       {
 229:cube/Drivers/STM32F0xx_HAL_Driver/Src/stm32f0xx_hal_flash.c ****         break;
 198              		.loc 1 229 0 is_stmt 1
 199 010a C046     		nop
 200              	.L4:
 230:cube/Drivers/STM32F0xx_HAL_Driver/Src/stm32f0xx_hal_flash.c ****       }
 231:cube/Drivers/STM32F0xx_HAL_Driver/Src/stm32f0xx_hal_flash.c ****     }
 232:cube/Drivers/STM32F0xx_HAL_Driver/Src/stm32f0xx_hal_flash.c ****   }
 233:cube/Drivers/STM32F0xx_HAL_Driver/Src/stm32f0xx_hal_flash.c **** 
 234:cube/Drivers/STM32F0xx_HAL_Driver/Src/stm32f0xx_hal_flash.c ****   /* Process Unlocked */
 235:cube/Drivers/STM32F0xx_HAL_Driver/Src/stm32f0xx_hal_flash.c ****   __HAL_UNLOCK(&pFlash);
 201              		.loc 1 235 0
 202 010c 044B     		ldr	r3, .L14
 203 010e 0022     		movs	r2, #0
 204 0110 1A76     		strb	r2, [r3, #24]
 236:cube/Drivers/STM32F0xx_HAL_Driver/Src/stm32f0xx_hal_flash.c **** 
 237:cube/Drivers/STM32F0xx_HAL_Driver/Src/stm32f0xx_hal_flash.c ****   return status;
 205              		.loc 1 237 0
 206 0112 1723     		movs	r3, #23
 207 0114 FB18     		adds	r3, r7, r3
 208 0116 1B78     		ldrb	r3, [r3]
 209              	.L3:
 238:cube/Drivers/STM32F0xx_HAL_Driver/Src/stm32f0xx_hal_flash.c **** }
 210              		.loc 1 238 0
 211 0118 1800     		movs	r0, r3
 212 011a BD46     		mov	sp, r7
 213 011c 07B0     		add	sp, sp, #28
 214              		@ sp needed
 215 011e F0BD     		pop	{r4, r5, r6, r7, pc}
 216              	.L15:
 217              		.align	2
ARM GAS  /tmp/ccwNk3aP.s 			page 9


 218              	.L14:
 219 0120 00000000 		.word	pFlash
 220 0124 50C30000 		.word	50000
 221 0128 00200240 		.word	1073881088
 222              		.cfi_endproc
 223              	.LFE37:
 225              		.section	.text.HAL_FLASH_Program_IT,"ax",%progbits
 226              		.align	1
 227              		.global	HAL_FLASH_Program_IT
 228              		.syntax unified
 229              		.code	16
 230              		.thumb_func
 231              		.fpu softvfp
 233              	HAL_FLASH_Program_IT:
 234              	.LFB38:
 239:cube/Drivers/STM32F0xx_HAL_Driver/Src/stm32f0xx_hal_flash.c **** 
 240:cube/Drivers/STM32F0xx_HAL_Driver/Src/stm32f0xx_hal_flash.c **** /**
 241:cube/Drivers/STM32F0xx_HAL_Driver/Src/stm32f0xx_hal_flash.c ****   * @brief  Program halfword, word or double word at a specified address  with interrupt enabled.
 242:cube/Drivers/STM32F0xx_HAL_Driver/Src/stm32f0xx_hal_flash.c ****   * @note   The function HAL_FLASH_Unlock() should be called before to unlock the FLASH interface
 243:cube/Drivers/STM32F0xx_HAL_Driver/Src/stm32f0xx_hal_flash.c ****   *         The function HAL_FLASH_Lock() should be called after to lock the FLASH interface
 244:cube/Drivers/STM32F0xx_HAL_Driver/Src/stm32f0xx_hal_flash.c ****   *
 245:cube/Drivers/STM32F0xx_HAL_Driver/Src/stm32f0xx_hal_flash.c ****   * @note   If an erase and a program operations are requested simultaneously,    
 246:cube/Drivers/STM32F0xx_HAL_Driver/Src/stm32f0xx_hal_flash.c ****   *         the erase operation is performed before the program one.
 247:cube/Drivers/STM32F0xx_HAL_Driver/Src/stm32f0xx_hal_flash.c ****   *
 248:cube/Drivers/STM32F0xx_HAL_Driver/Src/stm32f0xx_hal_flash.c ****   * @param  TypeProgram  Indicate the way to program at a specified address.
 249:cube/Drivers/STM32F0xx_HAL_Driver/Src/stm32f0xx_hal_flash.c ****   *                      This parameter can be a value of @ref FLASH_Type_Program
 250:cube/Drivers/STM32F0xx_HAL_Driver/Src/stm32f0xx_hal_flash.c ****   * @param  Address      Specifie the address to be programmed.
 251:cube/Drivers/STM32F0xx_HAL_Driver/Src/stm32f0xx_hal_flash.c ****   * @param  Data         Specifie the data to be programmed
 252:cube/Drivers/STM32F0xx_HAL_Driver/Src/stm32f0xx_hal_flash.c ****   * 
 253:cube/Drivers/STM32F0xx_HAL_Driver/Src/stm32f0xx_hal_flash.c ****   * @retval HAL_StatusTypeDef HAL Status
 254:cube/Drivers/STM32F0xx_HAL_Driver/Src/stm32f0xx_hal_flash.c ****   */
 255:cube/Drivers/STM32F0xx_HAL_Driver/Src/stm32f0xx_hal_flash.c **** HAL_StatusTypeDef HAL_FLASH_Program_IT(uint32_t TypeProgram, uint32_t Address, uint64_t Data)
 256:cube/Drivers/STM32F0xx_HAL_Driver/Src/stm32f0xx_hal_flash.c **** {
 235              		.loc 1 256 0
 236              		.cfi_startproc
 237              		@ args = 0, pretend = 0, frame = 24
 238              		@ frame_needed = 1, uses_anonymous_args = 0
 239 0000 90B5     		push	{r4, r7, lr}
 240              		.cfi_def_cfa_offset 12
 241              		.cfi_offset 4, -12
 242              		.cfi_offset 7, -8
 243              		.cfi_offset 14, -4
 244 0002 87B0     		sub	sp, sp, #28
 245              		.cfi_def_cfa_offset 40
 246 0004 00AF     		add	r7, sp, #0
 247              		.cfi_def_cfa_register 7
 248 0006 F860     		str	r0, [r7, #12]
 249 0008 B960     		str	r1, [r7, #8]
 250 000a 3A60     		str	r2, [r7]
 251 000c 7B60     		str	r3, [r7, #4]
 257:cube/Drivers/STM32F0xx_HAL_Driver/Src/stm32f0xx_hal_flash.c ****   HAL_StatusTypeDef status = HAL_OK;
 252              		.loc 1 257 0
 253 000e 1723     		movs	r3, #23
 254 0010 FB18     		adds	r3, r7, r3
 255 0012 0022     		movs	r2, #0
 256 0014 1A70     		strb	r2, [r3]
 258:cube/Drivers/STM32F0xx_HAL_Driver/Src/stm32f0xx_hal_flash.c ****   
ARM GAS  /tmp/ccwNk3aP.s 			page 10


 259:cube/Drivers/STM32F0xx_HAL_Driver/Src/stm32f0xx_hal_flash.c ****   /* Process Locked */
 260:cube/Drivers/STM32F0xx_HAL_Driver/Src/stm32f0xx_hal_flash.c ****   __HAL_LOCK(&pFlash);
 257              		.loc 1 260 0
 258 0016 204B     		ldr	r3, .L22
 259 0018 1B7E     		ldrb	r3, [r3, #24]
 260 001a 012B     		cmp	r3, #1
 261 001c 01D1     		bne	.L17
 262              		.loc 1 260 0 is_stmt 0 discriminator 1
 263 001e 0223     		movs	r3, #2
 264 0020 36E0     		b	.L18
 265              	.L17:
 266              		.loc 1 260 0 discriminator 2
 267 0022 1D4B     		ldr	r3, .L22
 268 0024 0122     		movs	r2, #1
 269 0026 1A76     		strb	r2, [r3, #24]
 261:cube/Drivers/STM32F0xx_HAL_Driver/Src/stm32f0xx_hal_flash.c **** 
 262:cube/Drivers/STM32F0xx_HAL_Driver/Src/stm32f0xx_hal_flash.c ****   /* Check the parameters */
 263:cube/Drivers/STM32F0xx_HAL_Driver/Src/stm32f0xx_hal_flash.c ****   assert_param(IS_FLASH_TYPEPROGRAM(TypeProgram));
 264:cube/Drivers/STM32F0xx_HAL_Driver/Src/stm32f0xx_hal_flash.c ****   assert_param(IS_FLASH_PROGRAM_ADDRESS(Address));
 265:cube/Drivers/STM32F0xx_HAL_Driver/Src/stm32f0xx_hal_flash.c **** 
 266:cube/Drivers/STM32F0xx_HAL_Driver/Src/stm32f0xx_hal_flash.c ****   /* Enable End of FLASH Operation and Error source interrupts */
 267:cube/Drivers/STM32F0xx_HAL_Driver/Src/stm32f0xx_hal_flash.c ****   __HAL_FLASH_ENABLE_IT(FLASH_IT_EOP | FLASH_IT_ERR);
 270              		.loc 1 267 0 is_stmt 1 discriminator 2
 271 0028 1C4B     		ldr	r3, .L22+4
 272 002a 1A69     		ldr	r2, [r3, #16]
 273 002c 1B4B     		ldr	r3, .L22+4
 274 002e A021     		movs	r1, #160
 275 0030 4901     		lsls	r1, r1, #5
 276 0032 0A43     		orrs	r2, r1
 277 0034 1A61     		str	r2, [r3, #16]
 268:cube/Drivers/STM32F0xx_HAL_Driver/Src/stm32f0xx_hal_flash.c ****   
 269:cube/Drivers/STM32F0xx_HAL_Driver/Src/stm32f0xx_hal_flash.c ****   pFlash.Address = Address;
 278              		.loc 1 269 0 discriminator 2
 279 0036 184B     		ldr	r3, .L22
 280 0038 BA68     		ldr	r2, [r7, #8]
 281 003a 9A60     		str	r2, [r3, #8]
 270:cube/Drivers/STM32F0xx_HAL_Driver/Src/stm32f0xx_hal_flash.c ****   pFlash.Data = Data;
 282              		.loc 1 270 0 discriminator 2
 283 003c 164A     		ldr	r2, .L22
 284 003e 3B68     		ldr	r3, [r7]
 285 0040 7C68     		ldr	r4, [r7, #4]
 286 0042 1361     		str	r3, [r2, #16]
 287 0044 5461     		str	r4, [r2, #20]
 271:cube/Drivers/STM32F0xx_HAL_Driver/Src/stm32f0xx_hal_flash.c **** 
 272:cube/Drivers/STM32F0xx_HAL_Driver/Src/stm32f0xx_hal_flash.c ****   if(TypeProgram == FLASH_TYPEPROGRAM_HALFWORD)
 288              		.loc 1 272 0 discriminator 2
 289 0046 FB68     		ldr	r3, [r7, #12]
 290 0048 012B     		cmp	r3, #1
 291 004a 06D1     		bne	.L19
 273:cube/Drivers/STM32F0xx_HAL_Driver/Src/stm32f0xx_hal_flash.c ****   {
 274:cube/Drivers/STM32F0xx_HAL_Driver/Src/stm32f0xx_hal_flash.c ****     pFlash.ProcedureOnGoing = FLASH_PROC_PROGRAMHALFWORD;
 292              		.loc 1 274 0
 293 004c 124B     		ldr	r3, .L22
 294 004e 0322     		movs	r2, #3
 295 0050 1A70     		strb	r2, [r3]
 275:cube/Drivers/STM32F0xx_HAL_Driver/Src/stm32f0xx_hal_flash.c ****     /* Program halfword (16-bit) at a specified address. */
 276:cube/Drivers/STM32F0xx_HAL_Driver/Src/stm32f0xx_hal_flash.c ****     pFlash.DataRemaining = 1U;
ARM GAS  /tmp/ccwNk3aP.s 			page 11


 296              		.loc 1 276 0
 297 0052 114B     		ldr	r3, .L22
 298 0054 0122     		movs	r2, #1
 299 0056 5A60     		str	r2, [r3, #4]
 300 0058 0FE0     		b	.L20
 301              	.L19:
 277:cube/Drivers/STM32F0xx_HAL_Driver/Src/stm32f0xx_hal_flash.c ****   }
 278:cube/Drivers/STM32F0xx_HAL_Driver/Src/stm32f0xx_hal_flash.c ****   else if(TypeProgram == FLASH_TYPEPROGRAM_WORD)
 302              		.loc 1 278 0
 303 005a FB68     		ldr	r3, [r7, #12]
 304 005c 022B     		cmp	r3, #2
 305 005e 06D1     		bne	.L21
 279:cube/Drivers/STM32F0xx_HAL_Driver/Src/stm32f0xx_hal_flash.c ****   {
 280:cube/Drivers/STM32F0xx_HAL_Driver/Src/stm32f0xx_hal_flash.c ****     pFlash.ProcedureOnGoing = FLASH_PROC_PROGRAMWORD;
 306              		.loc 1 280 0
 307 0060 0D4B     		ldr	r3, .L22
 308 0062 0422     		movs	r2, #4
 309 0064 1A70     		strb	r2, [r3]
 281:cube/Drivers/STM32F0xx_HAL_Driver/Src/stm32f0xx_hal_flash.c ****     /* Program word (32-bit : 2*16-bit) at a specified address. */
 282:cube/Drivers/STM32F0xx_HAL_Driver/Src/stm32f0xx_hal_flash.c ****     pFlash.DataRemaining = 2U;
 310              		.loc 1 282 0
 311 0066 0C4B     		ldr	r3, .L22
 312 0068 0222     		movs	r2, #2
 313 006a 5A60     		str	r2, [r3, #4]
 314 006c 05E0     		b	.L20
 315              	.L21:
 283:cube/Drivers/STM32F0xx_HAL_Driver/Src/stm32f0xx_hal_flash.c ****   }
 284:cube/Drivers/STM32F0xx_HAL_Driver/Src/stm32f0xx_hal_flash.c ****   else
 285:cube/Drivers/STM32F0xx_HAL_Driver/Src/stm32f0xx_hal_flash.c ****   {
 286:cube/Drivers/STM32F0xx_HAL_Driver/Src/stm32f0xx_hal_flash.c ****     pFlash.ProcedureOnGoing = FLASH_PROC_PROGRAMDOUBLEWORD;
 316              		.loc 1 286 0
 317 006e 0A4B     		ldr	r3, .L22
 318 0070 0522     		movs	r2, #5
 319 0072 1A70     		strb	r2, [r3]
 287:cube/Drivers/STM32F0xx_HAL_Driver/Src/stm32f0xx_hal_flash.c ****     /* Program double word (64-bit : 4*16-bit) at a specified address. */
 288:cube/Drivers/STM32F0xx_HAL_Driver/Src/stm32f0xx_hal_flash.c ****     pFlash.DataRemaining = 4U;
 320              		.loc 1 288 0
 321 0074 084B     		ldr	r3, .L22
 322 0076 0422     		movs	r2, #4
 323 0078 5A60     		str	r2, [r3, #4]
 324              	.L20:
 289:cube/Drivers/STM32F0xx_HAL_Driver/Src/stm32f0xx_hal_flash.c ****   }
 290:cube/Drivers/STM32F0xx_HAL_Driver/Src/stm32f0xx_hal_flash.c **** 
 291:cube/Drivers/STM32F0xx_HAL_Driver/Src/stm32f0xx_hal_flash.c ****   /* Program halfword (16-bit) at a specified address. */
 292:cube/Drivers/STM32F0xx_HAL_Driver/Src/stm32f0xx_hal_flash.c ****   FLASH_Program_HalfWord(Address, (uint16_t)Data);
 325              		.loc 1 292 0
 326 007a 3B68     		ldr	r3, [r7]
 327 007c 7C68     		ldr	r4, [r7, #4]
 328 007e 9AB2     		uxth	r2, r3
 329 0080 BB68     		ldr	r3, [r7, #8]
 330 0082 1100     		movs	r1, r2
 331 0084 1800     		movs	r0, r3
 332 0086 FFF7FEFF 		bl	FLASH_Program_HalfWord
 293:cube/Drivers/STM32F0xx_HAL_Driver/Src/stm32f0xx_hal_flash.c **** 
 294:cube/Drivers/STM32F0xx_HAL_Driver/Src/stm32f0xx_hal_flash.c ****   return status;
 333              		.loc 1 294 0
 334 008a 1723     		movs	r3, #23
ARM GAS  /tmp/ccwNk3aP.s 			page 12


 335 008c FB18     		adds	r3, r7, r3
 336 008e 1B78     		ldrb	r3, [r3]
 337              	.L18:
 295:cube/Drivers/STM32F0xx_HAL_Driver/Src/stm32f0xx_hal_flash.c **** }
 338              		.loc 1 295 0
 339 0090 1800     		movs	r0, r3
 340 0092 BD46     		mov	sp, r7
 341 0094 07B0     		add	sp, sp, #28
 342              		@ sp needed
 343 0096 90BD     		pop	{r4, r7, pc}
 344              	.L23:
 345              		.align	2
 346              	.L22:
 347 0098 00000000 		.word	pFlash
 348 009c 00200240 		.word	1073881088
 349              		.cfi_endproc
 350              	.LFE38:
 352              		.section	.text.HAL_FLASH_IRQHandler,"ax",%progbits
 353              		.align	1
 354              		.global	HAL_FLASH_IRQHandler
 355              		.syntax unified
 356              		.code	16
 357              		.thumb_func
 358              		.fpu softvfp
 360              	HAL_FLASH_IRQHandler:
 361              	.LFB39:
 296:cube/Drivers/STM32F0xx_HAL_Driver/Src/stm32f0xx_hal_flash.c **** 
 297:cube/Drivers/STM32F0xx_HAL_Driver/Src/stm32f0xx_hal_flash.c **** /**
 298:cube/Drivers/STM32F0xx_HAL_Driver/Src/stm32f0xx_hal_flash.c ****   * @brief This function handles FLASH interrupt request.
 299:cube/Drivers/STM32F0xx_HAL_Driver/Src/stm32f0xx_hal_flash.c ****   * @retval None
 300:cube/Drivers/STM32F0xx_HAL_Driver/Src/stm32f0xx_hal_flash.c ****   */
 301:cube/Drivers/STM32F0xx_HAL_Driver/Src/stm32f0xx_hal_flash.c **** void HAL_FLASH_IRQHandler(void)
 302:cube/Drivers/STM32F0xx_HAL_Driver/Src/stm32f0xx_hal_flash.c **** {
 362              		.loc 1 302 0
 363              		.cfi_startproc
 364              		@ args = 0, pretend = 0, frame = 8
 365              		@ frame_needed = 1, uses_anonymous_args = 0
 366 0000 B0B5     		push	{r4, r5, r7, lr}
 367              		.cfi_def_cfa_offset 16
 368              		.cfi_offset 4, -16
 369              		.cfi_offset 5, -12
 370              		.cfi_offset 7, -8
 371              		.cfi_offset 14, -4
 372 0002 82B0     		sub	sp, sp, #8
 373              		.cfi_def_cfa_offset 24
 374 0004 00AF     		add	r7, sp, #0
 375              		.cfi_def_cfa_register 7
 303:cube/Drivers/STM32F0xx_HAL_Driver/Src/stm32f0xx_hal_flash.c ****   uint32_t addresstmp = 0U;
 376              		.loc 1 303 0
 377 0006 0023     		movs	r3, #0
 378 0008 7B60     		str	r3, [r7, #4]
 304:cube/Drivers/STM32F0xx_HAL_Driver/Src/stm32f0xx_hal_flash.c ****   
 305:cube/Drivers/STM32F0xx_HAL_Driver/Src/stm32f0xx_hal_flash.c ****   /* Check FLASH operation error flags */
 306:cube/Drivers/STM32F0xx_HAL_Driver/Src/stm32f0xx_hal_flash.c ****   if(__HAL_FLASH_GET_FLAG(FLASH_FLAG_WRPERR) ||__HAL_FLASH_GET_FLAG(FLASH_FLAG_PGERR))
 379              		.loc 1 306 0
 380 000a 6E4B     		ldr	r3, .L38
 381 000c DB68     		ldr	r3, [r3, #12]
ARM GAS  /tmp/ccwNk3aP.s 			page 13


 382 000e 1022     		movs	r2, #16
 383 0010 1340     		ands	r3, r2
 384 0012 102B     		cmp	r3, #16
 385 0014 05D0     		beq	.L25
 386              		.loc 1 306 0 is_stmt 0 discriminator 1
 387 0016 6B4B     		ldr	r3, .L38
 388 0018 DB68     		ldr	r3, [r3, #12]
 389 001a 0422     		movs	r2, #4
 390 001c 1340     		ands	r3, r2
 391 001e 042B     		cmp	r3, #4
 392 0020 0FD1     		bne	.L26
 393              	.L25:
 307:cube/Drivers/STM32F0xx_HAL_Driver/Src/stm32f0xx_hal_flash.c ****   {
 308:cube/Drivers/STM32F0xx_HAL_Driver/Src/stm32f0xx_hal_flash.c ****     /* Return the faulty address */
 309:cube/Drivers/STM32F0xx_HAL_Driver/Src/stm32f0xx_hal_flash.c ****     addresstmp = pFlash.Address;
 394              		.loc 1 309 0 is_stmt 1
 395 0022 694B     		ldr	r3, .L38+4
 396 0024 9B68     		ldr	r3, [r3, #8]
 397 0026 7B60     		str	r3, [r7, #4]
 310:cube/Drivers/STM32F0xx_HAL_Driver/Src/stm32f0xx_hal_flash.c ****     /* Reset address */
 311:cube/Drivers/STM32F0xx_HAL_Driver/Src/stm32f0xx_hal_flash.c ****     pFlash.Address = 0xFFFFFFFFU;
 398              		.loc 1 311 0
 399 0028 674B     		ldr	r3, .L38+4
 400 002a 0122     		movs	r2, #1
 401 002c 5242     		rsbs	r2, r2, #0
 402 002e 9A60     		str	r2, [r3, #8]
 312:cube/Drivers/STM32F0xx_HAL_Driver/Src/stm32f0xx_hal_flash.c ****   
 313:cube/Drivers/STM32F0xx_HAL_Driver/Src/stm32f0xx_hal_flash.c ****     /* Save the Error code */
 314:cube/Drivers/STM32F0xx_HAL_Driver/Src/stm32f0xx_hal_flash.c ****     FLASH_SetErrorCode();
 403              		.loc 1 314 0
 404 0030 FFF7FEFF 		bl	FLASH_SetErrorCode
 315:cube/Drivers/STM32F0xx_HAL_Driver/Src/stm32f0xx_hal_flash.c ****     
 316:cube/Drivers/STM32F0xx_HAL_Driver/Src/stm32f0xx_hal_flash.c ****     /* FLASH error interrupt user callback */
 317:cube/Drivers/STM32F0xx_HAL_Driver/Src/stm32f0xx_hal_flash.c ****     HAL_FLASH_OperationErrorCallback(addresstmp);
 405              		.loc 1 317 0
 406 0034 7B68     		ldr	r3, [r7, #4]
 407 0036 1800     		movs	r0, r3
 408 0038 FFF7FEFF 		bl	HAL_FLASH_OperationErrorCallback
 318:cube/Drivers/STM32F0xx_HAL_Driver/Src/stm32f0xx_hal_flash.c **** 
 319:cube/Drivers/STM32F0xx_HAL_Driver/Src/stm32f0xx_hal_flash.c ****     /* Stop the procedure ongoing */
 320:cube/Drivers/STM32F0xx_HAL_Driver/Src/stm32f0xx_hal_flash.c ****     pFlash.ProcedureOnGoing = FLASH_PROC_NONE;
 409              		.loc 1 320 0
 410 003c 624B     		ldr	r3, .L38+4
 411 003e 0022     		movs	r2, #0
 412 0040 1A70     		strb	r2, [r3]
 413              	.L26:
 321:cube/Drivers/STM32F0xx_HAL_Driver/Src/stm32f0xx_hal_flash.c ****   }
 322:cube/Drivers/STM32F0xx_HAL_Driver/Src/stm32f0xx_hal_flash.c **** 
 323:cube/Drivers/STM32F0xx_HAL_Driver/Src/stm32f0xx_hal_flash.c ****   /* Check FLASH End of Operation flag  */
 324:cube/Drivers/STM32F0xx_HAL_Driver/Src/stm32f0xx_hal_flash.c ****   if(__HAL_FLASH_GET_FLAG(FLASH_FLAG_EOP))
 414              		.loc 1 324 0
 415 0042 604B     		ldr	r3, .L38
 416 0044 DB68     		ldr	r3, [r3, #12]
 417 0046 2022     		movs	r2, #32
 418 0048 1340     		ands	r3, r2
 419 004a 202B     		cmp	r3, #32
 420 004c 00D0     		beq	.LCB365
ARM GAS  /tmp/ccwNk3aP.s 			page 14


 421 004e A1E0     		b	.L27	@long jump
 422              	.LCB365:
 325:cube/Drivers/STM32F0xx_HAL_Driver/Src/stm32f0xx_hal_flash.c ****   {
 326:cube/Drivers/STM32F0xx_HAL_Driver/Src/stm32f0xx_hal_flash.c ****     /* Clear FLASH End of Operation pending bit */
 327:cube/Drivers/STM32F0xx_HAL_Driver/Src/stm32f0xx_hal_flash.c ****     __HAL_FLASH_CLEAR_FLAG(FLASH_FLAG_EOP);
 423              		.loc 1 327 0
 424 0050 5C4B     		ldr	r3, .L38
 425 0052 2022     		movs	r2, #32
 426 0054 DA60     		str	r2, [r3, #12]
 328:cube/Drivers/STM32F0xx_HAL_Driver/Src/stm32f0xx_hal_flash.c ****     
 329:cube/Drivers/STM32F0xx_HAL_Driver/Src/stm32f0xx_hal_flash.c ****     /* Process can continue only if no error detected */
 330:cube/Drivers/STM32F0xx_HAL_Driver/Src/stm32f0xx_hal_flash.c ****     if(pFlash.ProcedureOnGoing != FLASH_PROC_NONE)
 427              		.loc 1 330 0
 428 0056 5C4B     		ldr	r3, .L38+4
 429 0058 1B78     		ldrb	r3, [r3]
 430 005a DBB2     		uxtb	r3, r3
 431 005c 002B     		cmp	r3, #0
 432 005e 00D1     		bne	.LCB373
 433 0060 98E0     		b	.L27	@long jump
 434              	.LCB373:
 331:cube/Drivers/STM32F0xx_HAL_Driver/Src/stm32f0xx_hal_flash.c ****     {
 332:cube/Drivers/STM32F0xx_HAL_Driver/Src/stm32f0xx_hal_flash.c ****       if(pFlash.ProcedureOnGoing == FLASH_PROC_PAGEERASE)
 435              		.loc 1 332 0
 436 0062 594B     		ldr	r3, .L38+4
 437 0064 1B78     		ldrb	r3, [r3]
 438 0066 DBB2     		uxtb	r3, r3
 439 0068 012B     		cmp	r3, #1
 440 006a 32D1     		bne	.L28
 333:cube/Drivers/STM32F0xx_HAL_Driver/Src/stm32f0xx_hal_flash.c ****       {
 334:cube/Drivers/STM32F0xx_HAL_Driver/Src/stm32f0xx_hal_flash.c ****         /* Nb of pages to erased can be decreased */
 335:cube/Drivers/STM32F0xx_HAL_Driver/Src/stm32f0xx_hal_flash.c ****         pFlash.DataRemaining--;
 441              		.loc 1 335 0
 442 006c 564B     		ldr	r3, .L38+4
 443 006e 5B68     		ldr	r3, [r3, #4]
 444 0070 5A1E     		subs	r2, r3, #1
 445 0072 554B     		ldr	r3, .L38+4
 446 0074 5A60     		str	r2, [r3, #4]
 336:cube/Drivers/STM32F0xx_HAL_Driver/Src/stm32f0xx_hal_flash.c **** 
 337:cube/Drivers/STM32F0xx_HAL_Driver/Src/stm32f0xx_hal_flash.c ****         /* Check if there are still pages to erase */
 338:cube/Drivers/STM32F0xx_HAL_Driver/Src/stm32f0xx_hal_flash.c ****         if(pFlash.DataRemaining != 0U)
 447              		.loc 1 338 0
 448 0076 544B     		ldr	r3, .L38+4
 449 0078 5B68     		ldr	r3, [r3, #4]
 450 007a 002B     		cmp	r3, #0
 451 007c 1BD0     		beq	.L29
 339:cube/Drivers/STM32F0xx_HAL_Driver/Src/stm32f0xx_hal_flash.c ****         {
 340:cube/Drivers/STM32F0xx_HAL_Driver/Src/stm32f0xx_hal_flash.c ****           addresstmp = pFlash.Address;
 452              		.loc 1 340 0
 453 007e 524B     		ldr	r3, .L38+4
 454 0080 9B68     		ldr	r3, [r3, #8]
 455 0082 7B60     		str	r3, [r7, #4]
 341:cube/Drivers/STM32F0xx_HAL_Driver/Src/stm32f0xx_hal_flash.c ****           /*Indicate user which sector has been erased */
 342:cube/Drivers/STM32F0xx_HAL_Driver/Src/stm32f0xx_hal_flash.c ****           HAL_FLASH_EndOfOperationCallback(addresstmp);
 456              		.loc 1 342 0
 457 0084 7B68     		ldr	r3, [r7, #4]
 458 0086 1800     		movs	r0, r3
 459 0088 FFF7FEFF 		bl	HAL_FLASH_EndOfOperationCallback
ARM GAS  /tmp/ccwNk3aP.s 			page 15


 343:cube/Drivers/STM32F0xx_HAL_Driver/Src/stm32f0xx_hal_flash.c **** 
 344:cube/Drivers/STM32F0xx_HAL_Driver/Src/stm32f0xx_hal_flash.c ****           /*Increment sector number*/
 345:cube/Drivers/STM32F0xx_HAL_Driver/Src/stm32f0xx_hal_flash.c ****           addresstmp = pFlash.Address + FLASH_PAGE_SIZE;
 460              		.loc 1 345 0
 461 008c 4E4B     		ldr	r3, .L38+4
 462 008e 9B68     		ldr	r3, [r3, #8]
 463 0090 8022     		movs	r2, #128
 464 0092 1201     		lsls	r2, r2, #4
 465 0094 9446     		mov	ip, r2
 466 0096 6344     		add	r3, r3, ip
 467 0098 7B60     		str	r3, [r7, #4]
 346:cube/Drivers/STM32F0xx_HAL_Driver/Src/stm32f0xx_hal_flash.c ****           pFlash.Address = addresstmp;
 468              		.loc 1 346 0
 469 009a 4B4B     		ldr	r3, .L38+4
 470 009c 7A68     		ldr	r2, [r7, #4]
 471 009e 9A60     		str	r2, [r3, #8]
 347:cube/Drivers/STM32F0xx_HAL_Driver/Src/stm32f0xx_hal_flash.c **** 
 348:cube/Drivers/STM32F0xx_HAL_Driver/Src/stm32f0xx_hal_flash.c ****           /* If the erase operation is completed, disable the PER Bit */
 349:cube/Drivers/STM32F0xx_HAL_Driver/Src/stm32f0xx_hal_flash.c ****           CLEAR_BIT(FLASH->CR, FLASH_CR_PER);
 472              		.loc 1 349 0
 473 00a0 484B     		ldr	r3, .L38
 474 00a2 1A69     		ldr	r2, [r3, #16]
 475 00a4 474B     		ldr	r3, .L38
 476 00a6 0221     		movs	r1, #2
 477 00a8 8A43     		bics	r2, r1
 478 00aa 1A61     		str	r2, [r3, #16]
 350:cube/Drivers/STM32F0xx_HAL_Driver/Src/stm32f0xx_hal_flash.c **** 
 351:cube/Drivers/STM32F0xx_HAL_Driver/Src/stm32f0xx_hal_flash.c ****           FLASH_PageErase(addresstmp);
 479              		.loc 1 351 0
 480 00ac 7B68     		ldr	r3, [r7, #4]
 481 00ae 1800     		movs	r0, r3
 482 00b0 FFF7FEFF 		bl	FLASH_PageErase
 483 00b4 6EE0     		b	.L27
 484              	.L29:
 352:cube/Drivers/STM32F0xx_HAL_Driver/Src/stm32f0xx_hal_flash.c ****         }
 353:cube/Drivers/STM32F0xx_HAL_Driver/Src/stm32f0xx_hal_flash.c ****         else
 354:cube/Drivers/STM32F0xx_HAL_Driver/Src/stm32f0xx_hal_flash.c ****         {
 355:cube/Drivers/STM32F0xx_HAL_Driver/Src/stm32f0xx_hal_flash.c ****           /* No more pages to Erase, user callback can be called. */
 356:cube/Drivers/STM32F0xx_HAL_Driver/Src/stm32f0xx_hal_flash.c ****           /* Reset Sector and stop Erase pages procedure */
 357:cube/Drivers/STM32F0xx_HAL_Driver/Src/stm32f0xx_hal_flash.c ****           pFlash.Address = addresstmp = 0xFFFFFFFFU;
 485              		.loc 1 357 0
 486 00b6 0123     		movs	r3, #1
 487 00b8 5B42     		rsbs	r3, r3, #0
 488 00ba 7B60     		str	r3, [r7, #4]
 489 00bc 424B     		ldr	r3, .L38+4
 490 00be 7A68     		ldr	r2, [r7, #4]
 491 00c0 9A60     		str	r2, [r3, #8]
 358:cube/Drivers/STM32F0xx_HAL_Driver/Src/stm32f0xx_hal_flash.c ****           pFlash.ProcedureOnGoing = FLASH_PROC_NONE;
 492              		.loc 1 358 0
 493 00c2 414B     		ldr	r3, .L38+4
 494 00c4 0022     		movs	r2, #0
 495 00c6 1A70     		strb	r2, [r3]
 359:cube/Drivers/STM32F0xx_HAL_Driver/Src/stm32f0xx_hal_flash.c ****           /* FLASH EOP interrupt user callback */
 360:cube/Drivers/STM32F0xx_HAL_Driver/Src/stm32f0xx_hal_flash.c ****           HAL_FLASH_EndOfOperationCallback(addresstmp);
 496              		.loc 1 360 0
 497 00c8 7B68     		ldr	r3, [r7, #4]
 498 00ca 1800     		movs	r0, r3
ARM GAS  /tmp/ccwNk3aP.s 			page 16


 499 00cc FFF7FEFF 		bl	HAL_FLASH_EndOfOperationCallback
 500 00d0 60E0     		b	.L27
 501              	.L28:
 361:cube/Drivers/STM32F0xx_HAL_Driver/Src/stm32f0xx_hal_flash.c ****         }
 362:cube/Drivers/STM32F0xx_HAL_Driver/Src/stm32f0xx_hal_flash.c ****       }
 363:cube/Drivers/STM32F0xx_HAL_Driver/Src/stm32f0xx_hal_flash.c ****       else if(pFlash.ProcedureOnGoing == FLASH_PROC_MASSERASE)
 502              		.loc 1 363 0
 503 00d2 3D4B     		ldr	r3, .L38+4
 504 00d4 1B78     		ldrb	r3, [r3]
 505 00d6 DBB2     		uxtb	r3, r3
 506 00d8 022B     		cmp	r3, #2
 507 00da 0CD1     		bne	.L31
 364:cube/Drivers/STM32F0xx_HAL_Driver/Src/stm32f0xx_hal_flash.c ****       {
 365:cube/Drivers/STM32F0xx_HAL_Driver/Src/stm32f0xx_hal_flash.c ****         /* Operation is completed, disable the MER Bit */
 366:cube/Drivers/STM32F0xx_HAL_Driver/Src/stm32f0xx_hal_flash.c ****         CLEAR_BIT(FLASH->CR, FLASH_CR_MER);
 508              		.loc 1 366 0
 509 00dc 394B     		ldr	r3, .L38
 510 00de 1A69     		ldr	r2, [r3, #16]
 511 00e0 384B     		ldr	r3, .L38
 512 00e2 0421     		movs	r1, #4
 513 00e4 8A43     		bics	r2, r1
 514 00e6 1A61     		str	r2, [r3, #16]
 367:cube/Drivers/STM32F0xx_HAL_Driver/Src/stm32f0xx_hal_flash.c **** 
 368:cube/Drivers/STM32F0xx_HAL_Driver/Src/stm32f0xx_hal_flash.c ****           /* MassErase ended. Return the selected bank */
 369:cube/Drivers/STM32F0xx_HAL_Driver/Src/stm32f0xx_hal_flash.c ****           /* FLASH EOP interrupt user callback */
 370:cube/Drivers/STM32F0xx_HAL_Driver/Src/stm32f0xx_hal_flash.c ****           HAL_FLASH_EndOfOperationCallback(0);
 515              		.loc 1 370 0
 516 00e8 0020     		movs	r0, #0
 517 00ea FFF7FEFF 		bl	HAL_FLASH_EndOfOperationCallback
 371:cube/Drivers/STM32F0xx_HAL_Driver/Src/stm32f0xx_hal_flash.c **** 
 372:cube/Drivers/STM32F0xx_HAL_Driver/Src/stm32f0xx_hal_flash.c ****           /* Stop Mass Erase procedure*/
 373:cube/Drivers/STM32F0xx_HAL_Driver/Src/stm32f0xx_hal_flash.c ****           pFlash.ProcedureOnGoing = FLASH_PROC_NONE;
 518              		.loc 1 373 0
 519 00ee 364B     		ldr	r3, .L38+4
 520 00f0 0022     		movs	r2, #0
 521 00f2 1A70     		strb	r2, [r3]
 522 00f4 4EE0     		b	.L27
 523              	.L31:
 374:cube/Drivers/STM32F0xx_HAL_Driver/Src/stm32f0xx_hal_flash.c ****         }
 375:cube/Drivers/STM32F0xx_HAL_Driver/Src/stm32f0xx_hal_flash.c ****       else
 376:cube/Drivers/STM32F0xx_HAL_Driver/Src/stm32f0xx_hal_flash.c ****       {
 377:cube/Drivers/STM32F0xx_HAL_Driver/Src/stm32f0xx_hal_flash.c ****         /* Nb of 16-bit data to program can be decreased */
 378:cube/Drivers/STM32F0xx_HAL_Driver/Src/stm32f0xx_hal_flash.c ****         pFlash.DataRemaining--;
 524              		.loc 1 378 0
 525 00f6 344B     		ldr	r3, .L38+4
 526 00f8 5B68     		ldr	r3, [r3, #4]
 527 00fa 5A1E     		subs	r2, r3, #1
 528 00fc 324B     		ldr	r3, .L38+4
 529 00fe 5A60     		str	r2, [r3, #4]
 379:cube/Drivers/STM32F0xx_HAL_Driver/Src/stm32f0xx_hal_flash.c ****         
 380:cube/Drivers/STM32F0xx_HAL_Driver/Src/stm32f0xx_hal_flash.c ****         /* Check if there are still 16-bit data to program */
 381:cube/Drivers/STM32F0xx_HAL_Driver/Src/stm32f0xx_hal_flash.c ****         if(pFlash.DataRemaining != 0U)
 530              		.loc 1 381 0
 531 0100 314B     		ldr	r3, .L38+4
 532 0102 5B68     		ldr	r3, [r3, #4]
 533 0104 002B     		cmp	r3, #0
 534 0106 21D0     		beq	.L32
ARM GAS  /tmp/ccwNk3aP.s 			page 17


 382:cube/Drivers/STM32F0xx_HAL_Driver/Src/stm32f0xx_hal_flash.c ****         {
 383:cube/Drivers/STM32F0xx_HAL_Driver/Src/stm32f0xx_hal_flash.c ****           /* Increment address to 16-bit */
 384:cube/Drivers/STM32F0xx_HAL_Driver/Src/stm32f0xx_hal_flash.c ****           pFlash.Address += 2;
 535              		.loc 1 384 0
 536 0108 2F4B     		ldr	r3, .L38+4
 537 010a 9B68     		ldr	r3, [r3, #8]
 538 010c 9A1C     		adds	r2, r3, #2
 539 010e 2E4B     		ldr	r3, .L38+4
 540 0110 9A60     		str	r2, [r3, #8]
 385:cube/Drivers/STM32F0xx_HAL_Driver/Src/stm32f0xx_hal_flash.c ****           addresstmp = pFlash.Address;
 541              		.loc 1 385 0
 542 0112 2D4B     		ldr	r3, .L38+4
 543 0114 9B68     		ldr	r3, [r3, #8]
 544 0116 7B60     		str	r3, [r7, #4]
 386:cube/Drivers/STM32F0xx_HAL_Driver/Src/stm32f0xx_hal_flash.c ****           
 387:cube/Drivers/STM32F0xx_HAL_Driver/Src/stm32f0xx_hal_flash.c ****           /* Shift to have next 16-bit data */
 388:cube/Drivers/STM32F0xx_HAL_Driver/Src/stm32f0xx_hal_flash.c ****           pFlash.Data = (pFlash.Data >> 16U);
 545              		.loc 1 388 0
 546 0118 2B4B     		ldr	r3, .L38+4
 547 011a 1A69     		ldr	r2, [r3, #16]
 548 011c 5B69     		ldr	r3, [r3, #20]
 549 011e 1904     		lsls	r1, r3, #16
 550 0120 140C     		lsrs	r4, r2, #16
 551 0122 0C43     		orrs	r4, r1
 552 0124 1D0C     		lsrs	r5, r3, #16
 553 0126 284B     		ldr	r3, .L38+4
 554 0128 1C61     		str	r4, [r3, #16]
 555 012a 5D61     		str	r5, [r3, #20]
 389:cube/Drivers/STM32F0xx_HAL_Driver/Src/stm32f0xx_hal_flash.c ****           
 390:cube/Drivers/STM32F0xx_HAL_Driver/Src/stm32f0xx_hal_flash.c ****           /* Operation is completed, disable the PG Bit */
 391:cube/Drivers/STM32F0xx_HAL_Driver/Src/stm32f0xx_hal_flash.c ****           CLEAR_BIT(FLASH->CR, FLASH_CR_PG);
 556              		.loc 1 391 0
 557 012c 254B     		ldr	r3, .L38
 558 012e 1A69     		ldr	r2, [r3, #16]
 559 0130 244B     		ldr	r3, .L38
 560 0132 0121     		movs	r1, #1
 561 0134 8A43     		bics	r2, r1
 562 0136 1A61     		str	r2, [r3, #16]
 392:cube/Drivers/STM32F0xx_HAL_Driver/Src/stm32f0xx_hal_flash.c **** 
 393:cube/Drivers/STM32F0xx_HAL_Driver/Src/stm32f0xx_hal_flash.c ****           /*Program halfword (16-bit) at a specified address.*/
 394:cube/Drivers/STM32F0xx_HAL_Driver/Src/stm32f0xx_hal_flash.c ****           FLASH_Program_HalfWord(addresstmp, (uint16_t)pFlash.Data);
 563              		.loc 1 394 0
 564 0138 234B     		ldr	r3, .L38+4
 565 013a 5C69     		ldr	r4, [r3, #20]
 566 013c 1B69     		ldr	r3, [r3, #16]
 567 013e 9AB2     		uxth	r2, r3
 568 0140 7B68     		ldr	r3, [r7, #4]
 569 0142 1100     		movs	r1, r2
 570 0144 1800     		movs	r0, r3
 571 0146 FFF7FEFF 		bl	FLASH_Program_HalfWord
 572 014a 23E0     		b	.L27
 573              	.L32:
 395:cube/Drivers/STM32F0xx_HAL_Driver/Src/stm32f0xx_hal_flash.c ****         }
 396:cube/Drivers/STM32F0xx_HAL_Driver/Src/stm32f0xx_hal_flash.c ****         else
 397:cube/Drivers/STM32F0xx_HAL_Driver/Src/stm32f0xx_hal_flash.c ****         {
 398:cube/Drivers/STM32F0xx_HAL_Driver/Src/stm32f0xx_hal_flash.c ****           /* Program ended. Return the selected address */
 399:cube/Drivers/STM32F0xx_HAL_Driver/Src/stm32f0xx_hal_flash.c ****           /* FLASH EOP interrupt user callback */
ARM GAS  /tmp/ccwNk3aP.s 			page 18


 400:cube/Drivers/STM32F0xx_HAL_Driver/Src/stm32f0xx_hal_flash.c ****           if (pFlash.ProcedureOnGoing == FLASH_PROC_PROGRAMHALFWORD)
 574              		.loc 1 400 0
 575 014c 1E4B     		ldr	r3, .L38+4
 576 014e 1B78     		ldrb	r3, [r3]
 577 0150 DBB2     		uxtb	r3, r3
 578 0152 032B     		cmp	r3, #3
 579 0154 05D1     		bne	.L33
 401:cube/Drivers/STM32F0xx_HAL_Driver/Src/stm32f0xx_hal_flash.c ****           {
 402:cube/Drivers/STM32F0xx_HAL_Driver/Src/stm32f0xx_hal_flash.c ****             HAL_FLASH_EndOfOperationCallback(pFlash.Address);
 580              		.loc 1 402 0
 581 0156 1C4B     		ldr	r3, .L38+4
 582 0158 9B68     		ldr	r3, [r3, #8]
 583 015a 1800     		movs	r0, r3
 584 015c FFF7FEFF 		bl	HAL_FLASH_EndOfOperationCallback
 585 0160 11E0     		b	.L34
 586              	.L33:
 403:cube/Drivers/STM32F0xx_HAL_Driver/Src/stm32f0xx_hal_flash.c ****           }
 404:cube/Drivers/STM32F0xx_HAL_Driver/Src/stm32f0xx_hal_flash.c ****           else if (pFlash.ProcedureOnGoing == FLASH_PROC_PROGRAMWORD)
 587              		.loc 1 404 0
 588 0162 194B     		ldr	r3, .L38+4
 589 0164 1B78     		ldrb	r3, [r3]
 590 0166 DBB2     		uxtb	r3, r3
 591 0168 042B     		cmp	r3, #4
 592 016a 06D1     		bne	.L35
 405:cube/Drivers/STM32F0xx_HAL_Driver/Src/stm32f0xx_hal_flash.c ****           {
 406:cube/Drivers/STM32F0xx_HAL_Driver/Src/stm32f0xx_hal_flash.c ****             HAL_FLASH_EndOfOperationCallback(pFlash.Address - 2U);
 593              		.loc 1 406 0
 594 016c 164B     		ldr	r3, .L38+4
 595 016e 9B68     		ldr	r3, [r3, #8]
 596 0170 023B     		subs	r3, r3, #2
 597 0172 1800     		movs	r0, r3
 598 0174 FFF7FEFF 		bl	HAL_FLASH_EndOfOperationCallback
 599 0178 05E0     		b	.L34
 600              	.L35:
 407:cube/Drivers/STM32F0xx_HAL_Driver/Src/stm32f0xx_hal_flash.c ****           }
 408:cube/Drivers/STM32F0xx_HAL_Driver/Src/stm32f0xx_hal_flash.c ****           else 
 409:cube/Drivers/STM32F0xx_HAL_Driver/Src/stm32f0xx_hal_flash.c ****           {
 410:cube/Drivers/STM32F0xx_HAL_Driver/Src/stm32f0xx_hal_flash.c ****             HAL_FLASH_EndOfOperationCallback(pFlash.Address - 6U);
 601              		.loc 1 410 0
 602 017a 134B     		ldr	r3, .L38+4
 603 017c 9B68     		ldr	r3, [r3, #8]
 604 017e 063B     		subs	r3, r3, #6
 605 0180 1800     		movs	r0, r3
 606 0182 FFF7FEFF 		bl	HAL_FLASH_EndOfOperationCallback
 607              	.L34:
 411:cube/Drivers/STM32F0xx_HAL_Driver/Src/stm32f0xx_hal_flash.c ****           }
 412:cube/Drivers/STM32F0xx_HAL_Driver/Src/stm32f0xx_hal_flash.c ****         
 413:cube/Drivers/STM32F0xx_HAL_Driver/Src/stm32f0xx_hal_flash.c ****           /* Reset Address and stop Program procedure */
 414:cube/Drivers/STM32F0xx_HAL_Driver/Src/stm32f0xx_hal_flash.c ****           pFlash.Address = 0xFFFFFFFFU;
 608              		.loc 1 414 0
 609 0186 104B     		ldr	r3, .L38+4
 610 0188 0122     		movs	r2, #1
 611 018a 5242     		rsbs	r2, r2, #0
 612 018c 9A60     		str	r2, [r3, #8]
 415:cube/Drivers/STM32F0xx_HAL_Driver/Src/stm32f0xx_hal_flash.c ****           pFlash.ProcedureOnGoing = FLASH_PROC_NONE;
 613              		.loc 1 415 0
 614 018e 0E4B     		ldr	r3, .L38+4
ARM GAS  /tmp/ccwNk3aP.s 			page 19


 615 0190 0022     		movs	r2, #0
 616 0192 1A70     		strb	r2, [r3]
 617              	.L27:
 416:cube/Drivers/STM32F0xx_HAL_Driver/Src/stm32f0xx_hal_flash.c ****         }
 417:cube/Drivers/STM32F0xx_HAL_Driver/Src/stm32f0xx_hal_flash.c ****       }
 418:cube/Drivers/STM32F0xx_HAL_Driver/Src/stm32f0xx_hal_flash.c ****     }
 419:cube/Drivers/STM32F0xx_HAL_Driver/Src/stm32f0xx_hal_flash.c ****   }
 420:cube/Drivers/STM32F0xx_HAL_Driver/Src/stm32f0xx_hal_flash.c ****   
 421:cube/Drivers/STM32F0xx_HAL_Driver/Src/stm32f0xx_hal_flash.c **** 
 422:cube/Drivers/STM32F0xx_HAL_Driver/Src/stm32f0xx_hal_flash.c ****   if(pFlash.ProcedureOnGoing == FLASH_PROC_NONE)
 618              		.loc 1 422 0
 619 0194 0C4B     		ldr	r3, .L38+4
 620 0196 1B78     		ldrb	r3, [r3]
 621 0198 DBB2     		uxtb	r3, r3
 622 019a 002B     		cmp	r3, #0
 623 019c 0ED1     		bne	.L37
 423:cube/Drivers/STM32F0xx_HAL_Driver/Src/stm32f0xx_hal_flash.c ****   {
 424:cube/Drivers/STM32F0xx_HAL_Driver/Src/stm32f0xx_hal_flash.c ****     /* Operation is completed, disable the PG, PER and MER Bits */
 425:cube/Drivers/STM32F0xx_HAL_Driver/Src/stm32f0xx_hal_flash.c ****     CLEAR_BIT(FLASH->CR, (FLASH_CR_PG | FLASH_CR_PER | FLASH_CR_MER));
 624              		.loc 1 425 0
 625 019e 094B     		ldr	r3, .L38
 626 01a0 1A69     		ldr	r2, [r3, #16]
 627 01a2 084B     		ldr	r3, .L38
 628 01a4 0721     		movs	r1, #7
 629 01a6 8A43     		bics	r2, r1
 630 01a8 1A61     		str	r2, [r3, #16]
 426:cube/Drivers/STM32F0xx_HAL_Driver/Src/stm32f0xx_hal_flash.c **** 
 427:cube/Drivers/STM32F0xx_HAL_Driver/Src/stm32f0xx_hal_flash.c ****     /* Disable End of FLASH Operation and Error source interrupts */
 428:cube/Drivers/STM32F0xx_HAL_Driver/Src/stm32f0xx_hal_flash.c ****     __HAL_FLASH_DISABLE_IT(FLASH_IT_EOP | FLASH_IT_ERR);
 631              		.loc 1 428 0
 632 01aa 064B     		ldr	r3, .L38
 633 01ac 1A69     		ldr	r2, [r3, #16]
 634 01ae 054B     		ldr	r3, .L38
 635 01b0 0649     		ldr	r1, .L38+8
 636 01b2 0A40     		ands	r2, r1
 637 01b4 1A61     		str	r2, [r3, #16]
 429:cube/Drivers/STM32F0xx_HAL_Driver/Src/stm32f0xx_hal_flash.c **** 
 430:cube/Drivers/STM32F0xx_HAL_Driver/Src/stm32f0xx_hal_flash.c ****     /* Process Unlocked */
 431:cube/Drivers/STM32F0xx_HAL_Driver/Src/stm32f0xx_hal_flash.c ****     __HAL_UNLOCK(&pFlash);
 638              		.loc 1 431 0
 639 01b6 044B     		ldr	r3, .L38+4
 640 01b8 0022     		movs	r2, #0
 641 01ba 1A76     		strb	r2, [r3, #24]
 642              	.L37:
 432:cube/Drivers/STM32F0xx_HAL_Driver/Src/stm32f0xx_hal_flash.c ****   }
 433:cube/Drivers/STM32F0xx_HAL_Driver/Src/stm32f0xx_hal_flash.c **** }
 643              		.loc 1 433 0
 644 01bc C046     		nop
 645 01be BD46     		mov	sp, r7
 646 01c0 02B0     		add	sp, sp, #8
 647              		@ sp needed
 648 01c2 B0BD     		pop	{r4, r5, r7, pc}
 649              	.L39:
 650              		.align	2
 651              	.L38:
 652 01c4 00200240 		.word	1073881088
 653 01c8 00000000 		.word	pFlash
ARM GAS  /tmp/ccwNk3aP.s 			page 20


 654 01cc FFEBFFFF 		.word	-5121
 655              		.cfi_endproc
 656              	.LFE39:
 658              		.section	.text.HAL_FLASH_EndOfOperationCallback,"ax",%progbits
 659              		.align	1
 660              		.weak	HAL_FLASH_EndOfOperationCallback
 661              		.syntax unified
 662              		.code	16
 663              		.thumb_func
 664              		.fpu softvfp
 666              	HAL_FLASH_EndOfOperationCallback:
 667              	.LFB40:
 434:cube/Drivers/STM32F0xx_HAL_Driver/Src/stm32f0xx_hal_flash.c **** 
 435:cube/Drivers/STM32F0xx_HAL_Driver/Src/stm32f0xx_hal_flash.c **** /**
 436:cube/Drivers/STM32F0xx_HAL_Driver/Src/stm32f0xx_hal_flash.c ****   * @brief  FLASH end of operation interrupt callback
 437:cube/Drivers/STM32F0xx_HAL_Driver/Src/stm32f0xx_hal_flash.c ****   * @param  ReturnValue The value saved in this parameter depends on the ongoing procedure
 438:cube/Drivers/STM32F0xx_HAL_Driver/Src/stm32f0xx_hal_flash.c ****   *                 - Mass Erase: No return value expected
 439:cube/Drivers/STM32F0xx_HAL_Driver/Src/stm32f0xx_hal_flash.c ****   *                 - Pages Erase: Address of the page which has been erased 
 440:cube/Drivers/STM32F0xx_HAL_Driver/Src/stm32f0xx_hal_flash.c ****   *                    (if 0xFFFFFFFF, it means that all the selected pages have been erased)
 441:cube/Drivers/STM32F0xx_HAL_Driver/Src/stm32f0xx_hal_flash.c ****   *                 - Program: Address which was selected for data program
 442:cube/Drivers/STM32F0xx_HAL_Driver/Src/stm32f0xx_hal_flash.c ****   * @retval none
 443:cube/Drivers/STM32F0xx_HAL_Driver/Src/stm32f0xx_hal_flash.c ****   */
 444:cube/Drivers/STM32F0xx_HAL_Driver/Src/stm32f0xx_hal_flash.c **** __weak void HAL_FLASH_EndOfOperationCallback(uint32_t ReturnValue)
 445:cube/Drivers/STM32F0xx_HAL_Driver/Src/stm32f0xx_hal_flash.c **** {
 668              		.loc 1 445 0
 669              		.cfi_startproc
 670              		@ args = 0, pretend = 0, frame = 8
 671              		@ frame_needed = 1, uses_anonymous_args = 0
 672 0000 80B5     		push	{r7, lr}
 673              		.cfi_def_cfa_offset 8
 674              		.cfi_offset 7, -8
 675              		.cfi_offset 14, -4
 676 0002 82B0     		sub	sp, sp, #8
 677              		.cfi_def_cfa_offset 16
 678 0004 00AF     		add	r7, sp, #0
 679              		.cfi_def_cfa_register 7
 680 0006 7860     		str	r0, [r7, #4]
 446:cube/Drivers/STM32F0xx_HAL_Driver/Src/stm32f0xx_hal_flash.c ****   /* Prevent unused argument(s) compilation warning */
 447:cube/Drivers/STM32F0xx_HAL_Driver/Src/stm32f0xx_hal_flash.c ****   UNUSED(ReturnValue);
 448:cube/Drivers/STM32F0xx_HAL_Driver/Src/stm32f0xx_hal_flash.c **** 
 449:cube/Drivers/STM32F0xx_HAL_Driver/Src/stm32f0xx_hal_flash.c ****   /* NOTE : This function Should not be modified, when the callback is needed,
 450:cube/Drivers/STM32F0xx_HAL_Driver/Src/stm32f0xx_hal_flash.c ****             the HAL_FLASH_EndOfOperationCallback could be implemented in the user file
 451:cube/Drivers/STM32F0xx_HAL_Driver/Src/stm32f0xx_hal_flash.c ****    */ 
 452:cube/Drivers/STM32F0xx_HAL_Driver/Src/stm32f0xx_hal_flash.c **** }
 681              		.loc 1 452 0
 682 0008 C046     		nop
 683 000a BD46     		mov	sp, r7
 684 000c 02B0     		add	sp, sp, #8
 685              		@ sp needed
 686 000e 80BD     		pop	{r7, pc}
 687              		.cfi_endproc
 688              	.LFE40:
 690              		.section	.text.HAL_FLASH_OperationErrorCallback,"ax",%progbits
 691              		.align	1
 692              		.weak	HAL_FLASH_OperationErrorCallback
 693              		.syntax unified
 694              		.code	16
ARM GAS  /tmp/ccwNk3aP.s 			page 21


 695              		.thumb_func
 696              		.fpu softvfp
 698              	HAL_FLASH_OperationErrorCallback:
 699              	.LFB41:
 453:cube/Drivers/STM32F0xx_HAL_Driver/Src/stm32f0xx_hal_flash.c **** 
 454:cube/Drivers/STM32F0xx_HAL_Driver/Src/stm32f0xx_hal_flash.c **** /**
 455:cube/Drivers/STM32F0xx_HAL_Driver/Src/stm32f0xx_hal_flash.c ****   * @brief  FLASH operation error interrupt callback
 456:cube/Drivers/STM32F0xx_HAL_Driver/Src/stm32f0xx_hal_flash.c ****   * @param  ReturnValue The value saved in this parameter depends on the ongoing procedure
 457:cube/Drivers/STM32F0xx_HAL_Driver/Src/stm32f0xx_hal_flash.c ****   *                 - Mass Erase: No return value expected
 458:cube/Drivers/STM32F0xx_HAL_Driver/Src/stm32f0xx_hal_flash.c ****   *                 - Pages Erase: Address of the page which returned an error
 459:cube/Drivers/STM32F0xx_HAL_Driver/Src/stm32f0xx_hal_flash.c ****   *                 - Program: Address which was selected for data program
 460:cube/Drivers/STM32F0xx_HAL_Driver/Src/stm32f0xx_hal_flash.c ****   * @retval none
 461:cube/Drivers/STM32F0xx_HAL_Driver/Src/stm32f0xx_hal_flash.c ****   */
 462:cube/Drivers/STM32F0xx_HAL_Driver/Src/stm32f0xx_hal_flash.c **** __weak void HAL_FLASH_OperationErrorCallback(uint32_t ReturnValue)
 463:cube/Drivers/STM32F0xx_HAL_Driver/Src/stm32f0xx_hal_flash.c **** {
 700              		.loc 1 463 0
 701              		.cfi_startproc
 702              		@ args = 0, pretend = 0, frame = 8
 703              		@ frame_needed = 1, uses_anonymous_args = 0
 704 0000 80B5     		push	{r7, lr}
 705              		.cfi_def_cfa_offset 8
 706              		.cfi_offset 7, -8
 707              		.cfi_offset 14, -4
 708 0002 82B0     		sub	sp, sp, #8
 709              		.cfi_def_cfa_offset 16
 710 0004 00AF     		add	r7, sp, #0
 711              		.cfi_def_cfa_register 7
 712 0006 7860     		str	r0, [r7, #4]
 464:cube/Drivers/STM32F0xx_HAL_Driver/Src/stm32f0xx_hal_flash.c ****   /* Prevent unused argument(s) compilation warning */
 465:cube/Drivers/STM32F0xx_HAL_Driver/Src/stm32f0xx_hal_flash.c ****   UNUSED(ReturnValue);
 466:cube/Drivers/STM32F0xx_HAL_Driver/Src/stm32f0xx_hal_flash.c **** 
 467:cube/Drivers/STM32F0xx_HAL_Driver/Src/stm32f0xx_hal_flash.c ****   /* NOTE : This function Should not be modified, when the callback is needed,
 468:cube/Drivers/STM32F0xx_HAL_Driver/Src/stm32f0xx_hal_flash.c ****             the HAL_FLASH_OperationErrorCallback could be implemented in the user file
 469:cube/Drivers/STM32F0xx_HAL_Driver/Src/stm32f0xx_hal_flash.c ****    */ 
 470:cube/Drivers/STM32F0xx_HAL_Driver/Src/stm32f0xx_hal_flash.c **** }
 713              		.loc 1 470 0
 714 0008 C046     		nop
 715 000a BD46     		mov	sp, r7
 716 000c 02B0     		add	sp, sp, #8
 717              		@ sp needed
 718 000e 80BD     		pop	{r7, pc}
 719              		.cfi_endproc
 720              	.LFE41:
 722              		.section	.text.HAL_FLASH_Unlock,"ax",%progbits
 723              		.align	1
 724              		.global	HAL_FLASH_Unlock
 725              		.syntax unified
 726              		.code	16
 727              		.thumb_func
 728              		.fpu softvfp
 730              	HAL_FLASH_Unlock:
 731              	.LFB42:
 471:cube/Drivers/STM32F0xx_HAL_Driver/Src/stm32f0xx_hal_flash.c **** 
 472:cube/Drivers/STM32F0xx_HAL_Driver/Src/stm32f0xx_hal_flash.c **** /**
 473:cube/Drivers/STM32F0xx_HAL_Driver/Src/stm32f0xx_hal_flash.c ****   * @}
 474:cube/Drivers/STM32F0xx_HAL_Driver/Src/stm32f0xx_hal_flash.c ****   */
 475:cube/Drivers/STM32F0xx_HAL_Driver/Src/stm32f0xx_hal_flash.c **** 
ARM GAS  /tmp/ccwNk3aP.s 			page 22


 476:cube/Drivers/STM32F0xx_HAL_Driver/Src/stm32f0xx_hal_flash.c **** /** @defgroup FLASH_Exported_Functions_Group2 Peripheral Control functions 
 477:cube/Drivers/STM32F0xx_HAL_Driver/Src/stm32f0xx_hal_flash.c ****  *  @brief   management functions 
 478:cube/Drivers/STM32F0xx_HAL_Driver/Src/stm32f0xx_hal_flash.c ****  *
 479:cube/Drivers/STM32F0xx_HAL_Driver/Src/stm32f0xx_hal_flash.c **** @verbatim   
 480:cube/Drivers/STM32F0xx_HAL_Driver/Src/stm32f0xx_hal_flash.c ****  ===============================================================================
 481:cube/Drivers/STM32F0xx_HAL_Driver/Src/stm32f0xx_hal_flash.c ****                       ##### Peripheral Control functions #####
 482:cube/Drivers/STM32F0xx_HAL_Driver/Src/stm32f0xx_hal_flash.c ****  ===============================================================================  
 483:cube/Drivers/STM32F0xx_HAL_Driver/Src/stm32f0xx_hal_flash.c ****     [..]
 484:cube/Drivers/STM32F0xx_HAL_Driver/Src/stm32f0xx_hal_flash.c ****     This subsection provides a set of functions allowing to control the FLASH 
 485:cube/Drivers/STM32F0xx_HAL_Driver/Src/stm32f0xx_hal_flash.c ****     memory operations.
 486:cube/Drivers/STM32F0xx_HAL_Driver/Src/stm32f0xx_hal_flash.c **** 
 487:cube/Drivers/STM32F0xx_HAL_Driver/Src/stm32f0xx_hal_flash.c **** @endverbatim
 488:cube/Drivers/STM32F0xx_HAL_Driver/Src/stm32f0xx_hal_flash.c ****   * @{
 489:cube/Drivers/STM32F0xx_HAL_Driver/Src/stm32f0xx_hal_flash.c ****   */
 490:cube/Drivers/STM32F0xx_HAL_Driver/Src/stm32f0xx_hal_flash.c **** 
 491:cube/Drivers/STM32F0xx_HAL_Driver/Src/stm32f0xx_hal_flash.c **** /**
 492:cube/Drivers/STM32F0xx_HAL_Driver/Src/stm32f0xx_hal_flash.c ****   * @brief  Unlock the FLASH control register access
 493:cube/Drivers/STM32F0xx_HAL_Driver/Src/stm32f0xx_hal_flash.c ****   * @retval HAL Status
 494:cube/Drivers/STM32F0xx_HAL_Driver/Src/stm32f0xx_hal_flash.c ****   */
 495:cube/Drivers/STM32F0xx_HAL_Driver/Src/stm32f0xx_hal_flash.c **** HAL_StatusTypeDef HAL_FLASH_Unlock(void)
 496:cube/Drivers/STM32F0xx_HAL_Driver/Src/stm32f0xx_hal_flash.c **** {
 732              		.loc 1 496 0
 733              		.cfi_startproc
 734              		@ args = 0, pretend = 0, frame = 0
 735              		@ frame_needed = 1, uses_anonymous_args = 0
 736 0000 80B5     		push	{r7, lr}
 737              		.cfi_def_cfa_offset 8
 738              		.cfi_offset 7, -8
 739              		.cfi_offset 14, -4
 740 0002 00AF     		add	r7, sp, #0
 741              		.cfi_def_cfa_register 7
 497:cube/Drivers/STM32F0xx_HAL_Driver/Src/stm32f0xx_hal_flash.c ****   if (HAL_IS_BIT_SET(FLASH->CR, FLASH_CR_LOCK))
 742              		.loc 1 497 0
 743 0004 084B     		ldr	r3, .L46
 744 0006 1B69     		ldr	r3, [r3, #16]
 745 0008 8022     		movs	r2, #128
 746 000a 1340     		ands	r3, r2
 747 000c 07D0     		beq	.L43
 498:cube/Drivers/STM32F0xx_HAL_Driver/Src/stm32f0xx_hal_flash.c ****   {
 499:cube/Drivers/STM32F0xx_HAL_Driver/Src/stm32f0xx_hal_flash.c ****     /* Authorize the FLASH Registers access */
 500:cube/Drivers/STM32F0xx_HAL_Driver/Src/stm32f0xx_hal_flash.c ****     WRITE_REG(FLASH->KEYR, FLASH_KEY1);
 748              		.loc 1 500 0
 749 000e 064B     		ldr	r3, .L46
 750 0010 064A     		ldr	r2, .L46+4
 751 0012 5A60     		str	r2, [r3, #4]
 501:cube/Drivers/STM32F0xx_HAL_Driver/Src/stm32f0xx_hal_flash.c ****     WRITE_REG(FLASH->KEYR, FLASH_KEY2);
 752              		.loc 1 501 0
 753 0014 044B     		ldr	r3, .L46
 754 0016 064A     		ldr	r2, .L46+8
 755 0018 5A60     		str	r2, [r3, #4]
 502:cube/Drivers/STM32F0xx_HAL_Driver/Src/stm32f0xx_hal_flash.c ****   }
 503:cube/Drivers/STM32F0xx_HAL_Driver/Src/stm32f0xx_hal_flash.c ****   else
 504:cube/Drivers/STM32F0xx_HAL_Driver/Src/stm32f0xx_hal_flash.c ****   {
 505:cube/Drivers/STM32F0xx_HAL_Driver/Src/stm32f0xx_hal_flash.c ****     return HAL_ERROR;
 506:cube/Drivers/STM32F0xx_HAL_Driver/Src/stm32f0xx_hal_flash.c ****   }
 507:cube/Drivers/STM32F0xx_HAL_Driver/Src/stm32f0xx_hal_flash.c **** 
 508:cube/Drivers/STM32F0xx_HAL_Driver/Src/stm32f0xx_hal_flash.c ****   return HAL_OK; 
ARM GAS  /tmp/ccwNk3aP.s 			page 23


 756              		.loc 1 508 0
 757 001a 0023     		movs	r3, #0
 758 001c 00E0     		b	.L45
 759              	.L43:
 505:cube/Drivers/STM32F0xx_HAL_Driver/Src/stm32f0xx_hal_flash.c ****   }
 760              		.loc 1 505 0
 761 001e 0123     		movs	r3, #1
 762              	.L45:
 509:cube/Drivers/STM32F0xx_HAL_Driver/Src/stm32f0xx_hal_flash.c **** }
 763              		.loc 1 509 0
 764 0020 1800     		movs	r0, r3
 765 0022 BD46     		mov	sp, r7
 766              		@ sp needed
 767 0024 80BD     		pop	{r7, pc}
 768              	.L47:
 769 0026 C046     		.align	2
 770              	.L46:
 771 0028 00200240 		.word	1073881088
 772 002c 23016745 		.word	1164378403
 773 0030 AB89EFCD 		.word	-839939669
 774              		.cfi_endproc
 775              	.LFE42:
 777              		.section	.text.HAL_FLASH_Lock,"ax",%progbits
 778              		.align	1
 779              		.global	HAL_FLASH_Lock
 780              		.syntax unified
 781              		.code	16
 782              		.thumb_func
 783              		.fpu softvfp
 785              	HAL_FLASH_Lock:
 786              	.LFB43:
 510:cube/Drivers/STM32F0xx_HAL_Driver/Src/stm32f0xx_hal_flash.c **** 
 511:cube/Drivers/STM32F0xx_HAL_Driver/Src/stm32f0xx_hal_flash.c **** /**
 512:cube/Drivers/STM32F0xx_HAL_Driver/Src/stm32f0xx_hal_flash.c ****   * @brief  Locks the FLASH control register access
 513:cube/Drivers/STM32F0xx_HAL_Driver/Src/stm32f0xx_hal_flash.c ****   * @retval HAL Status
 514:cube/Drivers/STM32F0xx_HAL_Driver/Src/stm32f0xx_hal_flash.c ****   */
 515:cube/Drivers/STM32F0xx_HAL_Driver/Src/stm32f0xx_hal_flash.c **** HAL_StatusTypeDef HAL_FLASH_Lock(void)
 516:cube/Drivers/STM32F0xx_HAL_Driver/Src/stm32f0xx_hal_flash.c **** {
 787              		.loc 1 516 0
 788              		.cfi_startproc
 789              		@ args = 0, pretend = 0, frame = 0
 790              		@ frame_needed = 1, uses_anonymous_args = 0
 791 0000 80B5     		push	{r7, lr}
 792              		.cfi_def_cfa_offset 8
 793              		.cfi_offset 7, -8
 794              		.cfi_offset 14, -4
 795 0002 00AF     		add	r7, sp, #0
 796              		.cfi_def_cfa_register 7
 517:cube/Drivers/STM32F0xx_HAL_Driver/Src/stm32f0xx_hal_flash.c ****   /* Set the LOCK Bit to lock the FLASH Registers access */
 518:cube/Drivers/STM32F0xx_HAL_Driver/Src/stm32f0xx_hal_flash.c ****   SET_BIT(FLASH->CR, FLASH_CR_LOCK);
 797              		.loc 1 518 0
 798 0004 044B     		ldr	r3, .L50
 799 0006 1A69     		ldr	r2, [r3, #16]
 800 0008 034B     		ldr	r3, .L50
 801 000a 8021     		movs	r1, #128
 802 000c 0A43     		orrs	r2, r1
 803 000e 1A61     		str	r2, [r3, #16]
ARM GAS  /tmp/ccwNk3aP.s 			page 24


 519:cube/Drivers/STM32F0xx_HAL_Driver/Src/stm32f0xx_hal_flash.c ****   
 520:cube/Drivers/STM32F0xx_HAL_Driver/Src/stm32f0xx_hal_flash.c ****   return HAL_OK;  
 804              		.loc 1 520 0
 805 0010 0023     		movs	r3, #0
 521:cube/Drivers/STM32F0xx_HAL_Driver/Src/stm32f0xx_hal_flash.c **** }
 806              		.loc 1 521 0
 807 0012 1800     		movs	r0, r3
 808 0014 BD46     		mov	sp, r7
 809              		@ sp needed
 810 0016 80BD     		pop	{r7, pc}
 811              	.L51:
 812              		.align	2
 813              	.L50:
 814 0018 00200240 		.word	1073881088
 815              		.cfi_endproc
 816              	.LFE43:
 818              		.section	.text.HAL_FLASH_OB_Unlock,"ax",%progbits
 819              		.align	1
 820              		.global	HAL_FLASH_OB_Unlock
 821              		.syntax unified
 822              		.code	16
 823              		.thumb_func
 824              		.fpu softvfp
 826              	HAL_FLASH_OB_Unlock:
 827              	.LFB44:
 522:cube/Drivers/STM32F0xx_HAL_Driver/Src/stm32f0xx_hal_flash.c **** 
 523:cube/Drivers/STM32F0xx_HAL_Driver/Src/stm32f0xx_hal_flash.c **** /**
 524:cube/Drivers/STM32F0xx_HAL_Driver/Src/stm32f0xx_hal_flash.c ****   * @brief  Unlock the FLASH Option Control Registers access.
 525:cube/Drivers/STM32F0xx_HAL_Driver/Src/stm32f0xx_hal_flash.c ****   * @retval HAL Status
 526:cube/Drivers/STM32F0xx_HAL_Driver/Src/stm32f0xx_hal_flash.c ****   */
 527:cube/Drivers/STM32F0xx_HAL_Driver/Src/stm32f0xx_hal_flash.c **** HAL_StatusTypeDef HAL_FLASH_OB_Unlock(void)
 528:cube/Drivers/STM32F0xx_HAL_Driver/Src/stm32f0xx_hal_flash.c **** {
 828              		.loc 1 528 0
 829              		.cfi_startproc
 830              		@ args = 0, pretend = 0, frame = 0
 831              		@ frame_needed = 1, uses_anonymous_args = 0
 832 0000 80B5     		push	{r7, lr}
 833              		.cfi_def_cfa_offset 8
 834              		.cfi_offset 7, -8
 835              		.cfi_offset 14, -4
 836 0002 00AF     		add	r7, sp, #0
 837              		.cfi_def_cfa_register 7
 529:cube/Drivers/STM32F0xx_HAL_Driver/Src/stm32f0xx_hal_flash.c ****   if (HAL_IS_BIT_CLR(FLASH->CR, FLASH_CR_OPTWRE))
 838              		.loc 1 529 0
 839 0004 084B     		ldr	r3, .L56
 840 0006 1A69     		ldr	r2, [r3, #16]
 841 0008 8023     		movs	r3, #128
 842 000a 9B00     		lsls	r3, r3, #2
 843 000c 1340     		ands	r3, r2
 844 000e 07D1     		bne	.L53
 530:cube/Drivers/STM32F0xx_HAL_Driver/Src/stm32f0xx_hal_flash.c ****   {
 531:cube/Drivers/STM32F0xx_HAL_Driver/Src/stm32f0xx_hal_flash.c ****     /* Authorizes the Option Byte register programming */
 532:cube/Drivers/STM32F0xx_HAL_Driver/Src/stm32f0xx_hal_flash.c ****     WRITE_REG(FLASH->OPTKEYR, FLASH_OPTKEY1);
 845              		.loc 1 532 0
 846 0010 054B     		ldr	r3, .L56
 847 0012 064A     		ldr	r2, .L56+4
 848 0014 9A60     		str	r2, [r3, #8]
ARM GAS  /tmp/ccwNk3aP.s 			page 25


 533:cube/Drivers/STM32F0xx_HAL_Driver/Src/stm32f0xx_hal_flash.c ****     WRITE_REG(FLASH->OPTKEYR, FLASH_OPTKEY2);
 849              		.loc 1 533 0
 850 0016 044B     		ldr	r3, .L56
 851 0018 054A     		ldr	r2, .L56+8
 852 001a 9A60     		str	r2, [r3, #8]
 534:cube/Drivers/STM32F0xx_HAL_Driver/Src/stm32f0xx_hal_flash.c ****   }
 535:cube/Drivers/STM32F0xx_HAL_Driver/Src/stm32f0xx_hal_flash.c ****   else
 536:cube/Drivers/STM32F0xx_HAL_Driver/Src/stm32f0xx_hal_flash.c ****   {
 537:cube/Drivers/STM32F0xx_HAL_Driver/Src/stm32f0xx_hal_flash.c ****     return HAL_ERROR;
 538:cube/Drivers/STM32F0xx_HAL_Driver/Src/stm32f0xx_hal_flash.c ****   }  
 539:cube/Drivers/STM32F0xx_HAL_Driver/Src/stm32f0xx_hal_flash.c ****   
 540:cube/Drivers/STM32F0xx_HAL_Driver/Src/stm32f0xx_hal_flash.c ****   return HAL_OK;  
 853              		.loc 1 540 0
 854 001c 0023     		movs	r3, #0
 855 001e 00E0     		b	.L55
 856              	.L53:
 537:cube/Drivers/STM32F0xx_HAL_Driver/Src/stm32f0xx_hal_flash.c ****   }  
 857              		.loc 1 537 0
 858 0020 0123     		movs	r3, #1
 859              	.L55:
 541:cube/Drivers/STM32F0xx_HAL_Driver/Src/stm32f0xx_hal_flash.c **** }
 860              		.loc 1 541 0
 861 0022 1800     		movs	r0, r3
 862 0024 BD46     		mov	sp, r7
 863              		@ sp needed
 864 0026 80BD     		pop	{r7, pc}
 865              	.L57:
 866              		.align	2
 867              	.L56:
 868 0028 00200240 		.word	1073881088
 869 002c 23016745 		.word	1164378403
 870 0030 AB89EFCD 		.word	-839939669
 871              		.cfi_endproc
 872              	.LFE44:
 874              		.section	.text.HAL_FLASH_OB_Lock,"ax",%progbits
 875              		.align	1
 876              		.global	HAL_FLASH_OB_Lock
 877              		.syntax unified
 878              		.code	16
 879              		.thumb_func
 880              		.fpu softvfp
 882              	HAL_FLASH_OB_Lock:
 883              	.LFB45:
 542:cube/Drivers/STM32F0xx_HAL_Driver/Src/stm32f0xx_hal_flash.c **** 
 543:cube/Drivers/STM32F0xx_HAL_Driver/Src/stm32f0xx_hal_flash.c **** /**
 544:cube/Drivers/STM32F0xx_HAL_Driver/Src/stm32f0xx_hal_flash.c ****   * @brief  Lock the FLASH Option Control Registers access.
 545:cube/Drivers/STM32F0xx_HAL_Driver/Src/stm32f0xx_hal_flash.c ****   * @retval HAL Status 
 546:cube/Drivers/STM32F0xx_HAL_Driver/Src/stm32f0xx_hal_flash.c ****   */
 547:cube/Drivers/STM32F0xx_HAL_Driver/Src/stm32f0xx_hal_flash.c **** HAL_StatusTypeDef HAL_FLASH_OB_Lock(void)
 548:cube/Drivers/STM32F0xx_HAL_Driver/Src/stm32f0xx_hal_flash.c **** {
 884              		.loc 1 548 0
 885              		.cfi_startproc
 886              		@ args = 0, pretend = 0, frame = 0
 887              		@ frame_needed = 1, uses_anonymous_args = 0
 888 0000 80B5     		push	{r7, lr}
 889              		.cfi_def_cfa_offset 8
 890              		.cfi_offset 7, -8
ARM GAS  /tmp/ccwNk3aP.s 			page 26


 891              		.cfi_offset 14, -4
 892 0002 00AF     		add	r7, sp, #0
 893              		.cfi_def_cfa_register 7
 549:cube/Drivers/STM32F0xx_HAL_Driver/Src/stm32f0xx_hal_flash.c ****   /* Clear the OPTWRE Bit to lock the FLASH Option Byte Registers access */
 550:cube/Drivers/STM32F0xx_HAL_Driver/Src/stm32f0xx_hal_flash.c ****   CLEAR_BIT(FLASH->CR, FLASH_CR_OPTWRE);
 894              		.loc 1 550 0
 895 0004 044B     		ldr	r3, .L60
 896 0006 1A69     		ldr	r2, [r3, #16]
 897 0008 034B     		ldr	r3, .L60
 898 000a 0449     		ldr	r1, .L60+4
 899 000c 0A40     		ands	r2, r1
 900 000e 1A61     		str	r2, [r3, #16]
 551:cube/Drivers/STM32F0xx_HAL_Driver/Src/stm32f0xx_hal_flash.c ****   
 552:cube/Drivers/STM32F0xx_HAL_Driver/Src/stm32f0xx_hal_flash.c ****   return HAL_OK;  
 901              		.loc 1 552 0
 902 0010 0023     		movs	r3, #0
 553:cube/Drivers/STM32F0xx_HAL_Driver/Src/stm32f0xx_hal_flash.c **** }
 903              		.loc 1 553 0
 904 0012 1800     		movs	r0, r3
 905 0014 BD46     		mov	sp, r7
 906              		@ sp needed
 907 0016 80BD     		pop	{r7, pc}
 908              	.L61:
 909              		.align	2
 910              	.L60:
 911 0018 00200240 		.word	1073881088
 912 001c FFFDFFFF 		.word	-513
 913              		.cfi_endproc
 914              	.LFE45:
 916              		.section	.text.HAL_FLASH_OB_Launch,"ax",%progbits
 917              		.align	1
 918              		.global	HAL_FLASH_OB_Launch
 919              		.syntax unified
 920              		.code	16
 921              		.thumb_func
 922              		.fpu softvfp
 924              	HAL_FLASH_OB_Launch:
 925              	.LFB46:
 554:cube/Drivers/STM32F0xx_HAL_Driver/Src/stm32f0xx_hal_flash.c ****   
 555:cube/Drivers/STM32F0xx_HAL_Driver/Src/stm32f0xx_hal_flash.c **** /**
 556:cube/Drivers/STM32F0xx_HAL_Driver/Src/stm32f0xx_hal_flash.c ****   * @brief  Launch the option byte loading.
 557:cube/Drivers/STM32F0xx_HAL_Driver/Src/stm32f0xx_hal_flash.c ****   * @note   This function will reset automatically the MCU.
 558:cube/Drivers/STM32F0xx_HAL_Driver/Src/stm32f0xx_hal_flash.c ****   * @retval HAL Status
 559:cube/Drivers/STM32F0xx_HAL_Driver/Src/stm32f0xx_hal_flash.c ****   */
 560:cube/Drivers/STM32F0xx_HAL_Driver/Src/stm32f0xx_hal_flash.c **** HAL_StatusTypeDef HAL_FLASH_OB_Launch(void)
 561:cube/Drivers/STM32F0xx_HAL_Driver/Src/stm32f0xx_hal_flash.c **** {
 926              		.loc 1 561 0
 927              		.cfi_startproc
 928              		@ args = 0, pretend = 0, frame = 0
 929              		@ frame_needed = 1, uses_anonymous_args = 0
 930 0000 80B5     		push	{r7, lr}
 931              		.cfi_def_cfa_offset 8
 932              		.cfi_offset 7, -8
 933              		.cfi_offset 14, -4
 934 0002 00AF     		add	r7, sp, #0
 935              		.cfi_def_cfa_register 7
 562:cube/Drivers/STM32F0xx_HAL_Driver/Src/stm32f0xx_hal_flash.c ****   /* Set the OBL_Launch bit to launch the option byte loading */
ARM GAS  /tmp/ccwNk3aP.s 			page 27


 563:cube/Drivers/STM32F0xx_HAL_Driver/Src/stm32f0xx_hal_flash.c ****   SET_BIT(FLASH->CR, FLASH_CR_OBL_LAUNCH);
 936              		.loc 1 563 0
 937 0004 074B     		ldr	r3, .L64
 938 0006 1A69     		ldr	r2, [r3, #16]
 939 0008 064B     		ldr	r3, .L64
 940 000a 8021     		movs	r1, #128
 941 000c 8901     		lsls	r1, r1, #6
 942 000e 0A43     		orrs	r2, r1
 943 0010 1A61     		str	r2, [r3, #16]
 564:cube/Drivers/STM32F0xx_HAL_Driver/Src/stm32f0xx_hal_flash.c ****   
 565:cube/Drivers/STM32F0xx_HAL_Driver/Src/stm32f0xx_hal_flash.c ****   /* Wait for last operation to be completed */
 566:cube/Drivers/STM32F0xx_HAL_Driver/Src/stm32f0xx_hal_flash.c ****   return(FLASH_WaitForLastOperation(FLASH_TIMEOUT_VALUE));
 944              		.loc 1 566 0
 945 0012 054B     		ldr	r3, .L64+4
 946 0014 1800     		movs	r0, r3
 947 0016 FFF7FEFF 		bl	FLASH_WaitForLastOperation
 948 001a 0300     		movs	r3, r0
 567:cube/Drivers/STM32F0xx_HAL_Driver/Src/stm32f0xx_hal_flash.c **** }
 949              		.loc 1 567 0
 950 001c 1800     		movs	r0, r3
 951 001e BD46     		mov	sp, r7
 952              		@ sp needed
 953 0020 80BD     		pop	{r7, pc}
 954              	.L65:
 955 0022 C046     		.align	2
 956              	.L64:
 957 0024 00200240 		.word	1073881088
 958 0028 50C30000 		.word	50000
 959              		.cfi_endproc
 960              	.LFE46:
 962              		.section	.text.HAL_FLASH_GetError,"ax",%progbits
 963              		.align	1
 964              		.global	HAL_FLASH_GetError
 965              		.syntax unified
 966              		.code	16
 967              		.thumb_func
 968              		.fpu softvfp
 970              	HAL_FLASH_GetError:
 971              	.LFB47:
 568:cube/Drivers/STM32F0xx_HAL_Driver/Src/stm32f0xx_hal_flash.c **** 
 569:cube/Drivers/STM32F0xx_HAL_Driver/Src/stm32f0xx_hal_flash.c **** /**
 570:cube/Drivers/STM32F0xx_HAL_Driver/Src/stm32f0xx_hal_flash.c ****   * @}
 571:cube/Drivers/STM32F0xx_HAL_Driver/Src/stm32f0xx_hal_flash.c ****   */  
 572:cube/Drivers/STM32F0xx_HAL_Driver/Src/stm32f0xx_hal_flash.c **** 
 573:cube/Drivers/STM32F0xx_HAL_Driver/Src/stm32f0xx_hal_flash.c **** /** @defgroup FLASH_Exported_Functions_Group3 Peripheral errors functions 
 574:cube/Drivers/STM32F0xx_HAL_Driver/Src/stm32f0xx_hal_flash.c ****  *  @brief    Peripheral errors functions 
 575:cube/Drivers/STM32F0xx_HAL_Driver/Src/stm32f0xx_hal_flash.c ****  *
 576:cube/Drivers/STM32F0xx_HAL_Driver/Src/stm32f0xx_hal_flash.c **** @verbatim   
 577:cube/Drivers/STM32F0xx_HAL_Driver/Src/stm32f0xx_hal_flash.c ****  ===============================================================================
 578:cube/Drivers/STM32F0xx_HAL_Driver/Src/stm32f0xx_hal_flash.c ****                       ##### Peripheral Errors functions #####
 579:cube/Drivers/STM32F0xx_HAL_Driver/Src/stm32f0xx_hal_flash.c ****  ===============================================================================  
 580:cube/Drivers/STM32F0xx_HAL_Driver/Src/stm32f0xx_hal_flash.c ****     [..]
 581:cube/Drivers/STM32F0xx_HAL_Driver/Src/stm32f0xx_hal_flash.c ****     This subsection permit to get in run-time errors of  the FLASH peripheral.
 582:cube/Drivers/STM32F0xx_HAL_Driver/Src/stm32f0xx_hal_flash.c **** 
 583:cube/Drivers/STM32F0xx_HAL_Driver/Src/stm32f0xx_hal_flash.c **** @endverbatim
 584:cube/Drivers/STM32F0xx_HAL_Driver/Src/stm32f0xx_hal_flash.c ****   * @{
 585:cube/Drivers/STM32F0xx_HAL_Driver/Src/stm32f0xx_hal_flash.c ****   */
ARM GAS  /tmp/ccwNk3aP.s 			page 28


 586:cube/Drivers/STM32F0xx_HAL_Driver/Src/stm32f0xx_hal_flash.c **** 
 587:cube/Drivers/STM32F0xx_HAL_Driver/Src/stm32f0xx_hal_flash.c **** /**
 588:cube/Drivers/STM32F0xx_HAL_Driver/Src/stm32f0xx_hal_flash.c ****   * @brief  Get the specific FLASH error flag.
 589:cube/Drivers/STM32F0xx_HAL_Driver/Src/stm32f0xx_hal_flash.c ****   * @retval FLASH_ErrorCode The returned value can be:
 590:cube/Drivers/STM32F0xx_HAL_Driver/Src/stm32f0xx_hal_flash.c ****   *            @ref FLASH_Error_Codes
 591:cube/Drivers/STM32F0xx_HAL_Driver/Src/stm32f0xx_hal_flash.c ****   */
 592:cube/Drivers/STM32F0xx_HAL_Driver/Src/stm32f0xx_hal_flash.c **** uint32_t HAL_FLASH_GetError(void)
 593:cube/Drivers/STM32F0xx_HAL_Driver/Src/stm32f0xx_hal_flash.c **** {
 972              		.loc 1 593 0
 973              		.cfi_startproc
 974              		@ args = 0, pretend = 0, frame = 0
 975              		@ frame_needed = 1, uses_anonymous_args = 0
 976 0000 80B5     		push	{r7, lr}
 977              		.cfi_def_cfa_offset 8
 978              		.cfi_offset 7, -8
 979              		.cfi_offset 14, -4
 980 0002 00AF     		add	r7, sp, #0
 981              		.cfi_def_cfa_register 7
 594:cube/Drivers/STM32F0xx_HAL_Driver/Src/stm32f0xx_hal_flash.c ****    return pFlash.ErrorCode;
 982              		.loc 1 594 0
 983 0004 024B     		ldr	r3, .L68
 984 0006 DB69     		ldr	r3, [r3, #28]
 595:cube/Drivers/STM32F0xx_HAL_Driver/Src/stm32f0xx_hal_flash.c **** }
 985              		.loc 1 595 0
 986 0008 1800     		movs	r0, r3
 987 000a BD46     		mov	sp, r7
 988              		@ sp needed
 989 000c 80BD     		pop	{r7, pc}
 990              	.L69:
 991 000e C046     		.align	2
 992              	.L68:
 993 0010 00000000 		.word	pFlash
 994              		.cfi_endproc
 995              	.LFE47:
 997              		.section	.text.FLASH_Program_HalfWord,"ax",%progbits
 998              		.align	1
 999              		.syntax unified
 1000              		.code	16
 1001              		.thumb_func
 1002              		.fpu softvfp
 1004              	FLASH_Program_HalfWord:
 1005              	.LFB48:
 596:cube/Drivers/STM32F0xx_HAL_Driver/Src/stm32f0xx_hal_flash.c **** 
 597:cube/Drivers/STM32F0xx_HAL_Driver/Src/stm32f0xx_hal_flash.c **** /**
 598:cube/Drivers/STM32F0xx_HAL_Driver/Src/stm32f0xx_hal_flash.c ****   * @}
 599:cube/Drivers/STM32F0xx_HAL_Driver/Src/stm32f0xx_hal_flash.c ****   */
 600:cube/Drivers/STM32F0xx_HAL_Driver/Src/stm32f0xx_hal_flash.c **** 
 601:cube/Drivers/STM32F0xx_HAL_Driver/Src/stm32f0xx_hal_flash.c **** /**
 602:cube/Drivers/STM32F0xx_HAL_Driver/Src/stm32f0xx_hal_flash.c ****   * @}
 603:cube/Drivers/STM32F0xx_HAL_Driver/Src/stm32f0xx_hal_flash.c ****   */
 604:cube/Drivers/STM32F0xx_HAL_Driver/Src/stm32f0xx_hal_flash.c **** 
 605:cube/Drivers/STM32F0xx_HAL_Driver/Src/stm32f0xx_hal_flash.c **** /** @addtogroup FLASH_Private_Functions
 606:cube/Drivers/STM32F0xx_HAL_Driver/Src/stm32f0xx_hal_flash.c ****  * @{
 607:cube/Drivers/STM32F0xx_HAL_Driver/Src/stm32f0xx_hal_flash.c ****  */
 608:cube/Drivers/STM32F0xx_HAL_Driver/Src/stm32f0xx_hal_flash.c **** 
 609:cube/Drivers/STM32F0xx_HAL_Driver/Src/stm32f0xx_hal_flash.c **** /**
 610:cube/Drivers/STM32F0xx_HAL_Driver/Src/stm32f0xx_hal_flash.c ****   * @brief  Program a half-word (16-bit) at a specified address.
ARM GAS  /tmp/ccwNk3aP.s 			page 29


 611:cube/Drivers/STM32F0xx_HAL_Driver/Src/stm32f0xx_hal_flash.c ****   * @param  Address specify the address to be programmed.
 612:cube/Drivers/STM32F0xx_HAL_Driver/Src/stm32f0xx_hal_flash.c ****   * @param  Data    specify the data to be programmed.
 613:cube/Drivers/STM32F0xx_HAL_Driver/Src/stm32f0xx_hal_flash.c ****   * @retval None
 614:cube/Drivers/STM32F0xx_HAL_Driver/Src/stm32f0xx_hal_flash.c ****   */
 615:cube/Drivers/STM32F0xx_HAL_Driver/Src/stm32f0xx_hal_flash.c **** static void FLASH_Program_HalfWord(uint32_t Address, uint16_t Data)
 616:cube/Drivers/STM32F0xx_HAL_Driver/Src/stm32f0xx_hal_flash.c **** {
 1006              		.loc 1 616 0
 1007              		.cfi_startproc
 1008              		@ args = 0, pretend = 0, frame = 8
 1009              		@ frame_needed = 1, uses_anonymous_args = 0
 1010 0000 80B5     		push	{r7, lr}
 1011              		.cfi_def_cfa_offset 8
 1012              		.cfi_offset 7, -8
 1013              		.cfi_offset 14, -4
 1014 0002 82B0     		sub	sp, sp, #8
 1015              		.cfi_def_cfa_offset 16
 1016 0004 00AF     		add	r7, sp, #0
 1017              		.cfi_def_cfa_register 7
 1018 0006 7860     		str	r0, [r7, #4]
 1019 0008 0A00     		movs	r2, r1
 1020 000a BB1C     		adds	r3, r7, #2
 1021 000c 1A80     		strh	r2, [r3]
 617:cube/Drivers/STM32F0xx_HAL_Driver/Src/stm32f0xx_hal_flash.c ****   /* Clean the error context */
 618:cube/Drivers/STM32F0xx_HAL_Driver/Src/stm32f0xx_hal_flash.c ****   pFlash.ErrorCode = HAL_FLASH_ERROR_NONE;
 1022              		.loc 1 618 0
 1023 000e 084B     		ldr	r3, .L71
 1024 0010 0022     		movs	r2, #0
 1025 0012 DA61     		str	r2, [r3, #28]
 619:cube/Drivers/STM32F0xx_HAL_Driver/Src/stm32f0xx_hal_flash.c ****   
 620:cube/Drivers/STM32F0xx_HAL_Driver/Src/stm32f0xx_hal_flash.c ****     /* Proceed to program the new data */
 621:cube/Drivers/STM32F0xx_HAL_Driver/Src/stm32f0xx_hal_flash.c ****     SET_BIT(FLASH->CR, FLASH_CR_PG);
 1026              		.loc 1 621 0
 1027 0014 074B     		ldr	r3, .L71+4
 1028 0016 1A69     		ldr	r2, [r3, #16]
 1029 0018 064B     		ldr	r3, .L71+4
 1030 001a 0121     		movs	r1, #1
 1031 001c 0A43     		orrs	r2, r1
 1032 001e 1A61     		str	r2, [r3, #16]
 622:cube/Drivers/STM32F0xx_HAL_Driver/Src/stm32f0xx_hal_flash.c **** 
 623:cube/Drivers/STM32F0xx_HAL_Driver/Src/stm32f0xx_hal_flash.c ****   /* Write data in the address */
 624:cube/Drivers/STM32F0xx_HAL_Driver/Src/stm32f0xx_hal_flash.c ****   *(__IO uint16_t*)Address = Data;
 1033              		.loc 1 624 0
 1034 0020 7B68     		ldr	r3, [r7, #4]
 1035 0022 BA1C     		adds	r2, r7, #2
 1036 0024 1288     		ldrh	r2, [r2]
 1037 0026 1A80     		strh	r2, [r3]
 625:cube/Drivers/STM32F0xx_HAL_Driver/Src/stm32f0xx_hal_flash.c **** }
 1038              		.loc 1 625 0
 1039 0028 C046     		nop
 1040 002a BD46     		mov	sp, r7
 1041 002c 02B0     		add	sp, sp, #8
 1042              		@ sp needed
 1043 002e 80BD     		pop	{r7, pc}
 1044              	.L72:
 1045              		.align	2
 1046              	.L71:
 1047 0030 00000000 		.word	pFlash
ARM GAS  /tmp/ccwNk3aP.s 			page 30


 1048 0034 00200240 		.word	1073881088
 1049              		.cfi_endproc
 1050              	.LFE48:
 1052              		.section	.text.FLASH_WaitForLastOperation,"ax",%progbits
 1053              		.align	1
 1054              		.global	FLASH_WaitForLastOperation
 1055              		.syntax unified
 1056              		.code	16
 1057              		.thumb_func
 1058              		.fpu softvfp
 1060              	FLASH_WaitForLastOperation:
 1061              	.LFB49:
 626:cube/Drivers/STM32F0xx_HAL_Driver/Src/stm32f0xx_hal_flash.c **** 
 627:cube/Drivers/STM32F0xx_HAL_Driver/Src/stm32f0xx_hal_flash.c **** /**
 628:cube/Drivers/STM32F0xx_HAL_Driver/Src/stm32f0xx_hal_flash.c ****   * @brief  Wait for a FLASH operation to complete.
 629:cube/Drivers/STM32F0xx_HAL_Driver/Src/stm32f0xx_hal_flash.c ****   * @param  Timeout  maximum flash operation timeout
 630:cube/Drivers/STM32F0xx_HAL_Driver/Src/stm32f0xx_hal_flash.c ****   * @retval HAL Status
 631:cube/Drivers/STM32F0xx_HAL_Driver/Src/stm32f0xx_hal_flash.c ****   */
 632:cube/Drivers/STM32F0xx_HAL_Driver/Src/stm32f0xx_hal_flash.c **** HAL_StatusTypeDef FLASH_WaitForLastOperation(uint32_t Timeout)
 633:cube/Drivers/STM32F0xx_HAL_Driver/Src/stm32f0xx_hal_flash.c **** {
 1062              		.loc 1 633 0
 1063              		.cfi_startproc
 1064              		@ args = 0, pretend = 0, frame = 16
 1065              		@ frame_needed = 1, uses_anonymous_args = 0
 1066 0000 80B5     		push	{r7, lr}
 1067              		.cfi_def_cfa_offset 8
 1068              		.cfi_offset 7, -8
 1069              		.cfi_offset 14, -4
 1070 0002 84B0     		sub	sp, sp, #16
 1071              		.cfi_def_cfa_offset 24
 1072 0004 00AF     		add	r7, sp, #0
 1073              		.cfi_def_cfa_register 7
 1074 0006 7860     		str	r0, [r7, #4]
 634:cube/Drivers/STM32F0xx_HAL_Driver/Src/stm32f0xx_hal_flash.c ****   /* Wait for the FLASH operation to complete by polling on BUSY flag to be reset.
 635:cube/Drivers/STM32F0xx_HAL_Driver/Src/stm32f0xx_hal_flash.c ****      Even if the FLASH operation fails, the BUSY flag will be reset and an error
 636:cube/Drivers/STM32F0xx_HAL_Driver/Src/stm32f0xx_hal_flash.c ****      flag will be set */
 637:cube/Drivers/STM32F0xx_HAL_Driver/Src/stm32f0xx_hal_flash.c ****      
 638:cube/Drivers/STM32F0xx_HAL_Driver/Src/stm32f0xx_hal_flash.c ****   uint32_t tickstart = HAL_GetTick();
 1075              		.loc 1 638 0
 1076 0008 FFF7FEFF 		bl	HAL_GetTick
 1077 000c 0300     		movs	r3, r0
 1078 000e FB60     		str	r3, [r7, #12]
 639:cube/Drivers/STM32F0xx_HAL_Driver/Src/stm32f0xx_hal_flash.c ****      
 640:cube/Drivers/STM32F0xx_HAL_Driver/Src/stm32f0xx_hal_flash.c ****   while(__HAL_FLASH_GET_FLAG(FLASH_FLAG_BSY)) 
 1079              		.loc 1 640 0
 1080 0010 0FE0     		b	.L74
 1081              	.L77:
 641:cube/Drivers/STM32F0xx_HAL_Driver/Src/stm32f0xx_hal_flash.c ****   { 
 642:cube/Drivers/STM32F0xx_HAL_Driver/Src/stm32f0xx_hal_flash.c ****     if (Timeout != HAL_MAX_DELAY)
 1082              		.loc 1 642 0
 1083 0012 7B68     		ldr	r3, [r7, #4]
 1084 0014 0133     		adds	r3, r3, #1
 1085 0016 0CD0     		beq	.L74
 643:cube/Drivers/STM32F0xx_HAL_Driver/Src/stm32f0xx_hal_flash.c ****     {
 644:cube/Drivers/STM32F0xx_HAL_Driver/Src/stm32f0xx_hal_flash.c ****       if((Timeout == 0U) || ((HAL_GetTick()-tickstart) > Timeout))
 1086              		.loc 1 644 0
 1087 0018 7B68     		ldr	r3, [r7, #4]
ARM GAS  /tmp/ccwNk3aP.s 			page 31


 1088 001a 002B     		cmp	r3, #0
 1089 001c 07D0     		beq	.L75
 1090              		.loc 1 644 0 is_stmt 0 discriminator 1
 1091 001e FFF7FEFF 		bl	HAL_GetTick
 1092 0022 0200     		movs	r2, r0
 1093 0024 FB68     		ldr	r3, [r7, #12]
 1094 0026 D31A     		subs	r3, r2, r3
 1095 0028 7A68     		ldr	r2, [r7, #4]
 1096 002a 9A42     		cmp	r2, r3
 1097 002c 01D2     		bcs	.L74
 1098              	.L75:
 645:cube/Drivers/STM32F0xx_HAL_Driver/Src/stm32f0xx_hal_flash.c ****       {
 646:cube/Drivers/STM32F0xx_HAL_Driver/Src/stm32f0xx_hal_flash.c ****         return HAL_TIMEOUT;
 1099              		.loc 1 646 0 is_stmt 1
 1100 002e 0323     		movs	r3, #3
 1101 0030 1FE0     		b	.L76
 1102              	.L74:
 640:cube/Drivers/STM32F0xx_HAL_Driver/Src/stm32f0xx_hal_flash.c ****   { 
 1103              		.loc 1 640 0
 1104 0032 124B     		ldr	r3, .L81
 1105 0034 DB68     		ldr	r3, [r3, #12]
 1106 0036 0122     		movs	r2, #1
 1107 0038 1340     		ands	r3, r2
 1108 003a 012B     		cmp	r3, #1
 1109 003c E9D0     		beq	.L77
 647:cube/Drivers/STM32F0xx_HAL_Driver/Src/stm32f0xx_hal_flash.c ****       }
 648:cube/Drivers/STM32F0xx_HAL_Driver/Src/stm32f0xx_hal_flash.c ****     }
 649:cube/Drivers/STM32F0xx_HAL_Driver/Src/stm32f0xx_hal_flash.c ****   }
 650:cube/Drivers/STM32F0xx_HAL_Driver/Src/stm32f0xx_hal_flash.c ****   
 651:cube/Drivers/STM32F0xx_HAL_Driver/Src/stm32f0xx_hal_flash.c ****   /* Check FLASH End of Operation flag  */
 652:cube/Drivers/STM32F0xx_HAL_Driver/Src/stm32f0xx_hal_flash.c ****   if (__HAL_FLASH_GET_FLAG(FLASH_FLAG_EOP))
 1110              		.loc 1 652 0
 1111 003e 0F4B     		ldr	r3, .L81
 1112 0040 DB68     		ldr	r3, [r3, #12]
 1113 0042 2022     		movs	r2, #32
 1114 0044 1340     		ands	r3, r2
 1115 0046 202B     		cmp	r3, #32
 1116 0048 02D1     		bne	.L78
 653:cube/Drivers/STM32F0xx_HAL_Driver/Src/stm32f0xx_hal_flash.c ****   {
 654:cube/Drivers/STM32F0xx_HAL_Driver/Src/stm32f0xx_hal_flash.c ****     /* Clear FLASH End of Operation pending bit */
 655:cube/Drivers/STM32F0xx_HAL_Driver/Src/stm32f0xx_hal_flash.c ****     __HAL_FLASH_CLEAR_FLAG(FLASH_FLAG_EOP);
 1117              		.loc 1 655 0
 1118 004a 0C4B     		ldr	r3, .L81
 1119 004c 2022     		movs	r2, #32
 1120 004e DA60     		str	r2, [r3, #12]
 1121              	.L78:
 656:cube/Drivers/STM32F0xx_HAL_Driver/Src/stm32f0xx_hal_flash.c ****   }
 657:cube/Drivers/STM32F0xx_HAL_Driver/Src/stm32f0xx_hal_flash.c ****   
 658:cube/Drivers/STM32F0xx_HAL_Driver/Src/stm32f0xx_hal_flash.c ****   if(__HAL_FLASH_GET_FLAG(FLASH_FLAG_WRPERR)  || 
 1122              		.loc 1 658 0
 1123 0050 0A4B     		ldr	r3, .L81
 1124 0052 DB68     		ldr	r3, [r3, #12]
 1125 0054 1022     		movs	r2, #16
 1126 0056 1340     		ands	r3, r2
 1127 0058 102B     		cmp	r3, #16
 1128 005a 05D0     		beq	.L79
 659:cube/Drivers/STM32F0xx_HAL_Driver/Src/stm32f0xx_hal_flash.c ****      __HAL_FLASH_GET_FLAG(FLASH_FLAG_PGERR))
ARM GAS  /tmp/ccwNk3aP.s 			page 32


 1129              		.loc 1 659 0 discriminator 1
 1130 005c 074B     		ldr	r3, .L81
 1131 005e DB68     		ldr	r3, [r3, #12]
 1132 0060 0422     		movs	r2, #4
 1133 0062 1340     		ands	r3, r2
 658:cube/Drivers/STM32F0xx_HAL_Driver/Src/stm32f0xx_hal_flash.c ****      __HAL_FLASH_GET_FLAG(FLASH_FLAG_PGERR))
 1134              		.loc 1 658 0 discriminator 1
 1135 0064 042B     		cmp	r3, #4
 1136 0066 03D1     		bne	.L80
 1137              	.L79:
 660:cube/Drivers/STM32F0xx_HAL_Driver/Src/stm32f0xx_hal_flash.c ****   {
 661:cube/Drivers/STM32F0xx_HAL_Driver/Src/stm32f0xx_hal_flash.c ****     /*Save the error code*/
 662:cube/Drivers/STM32F0xx_HAL_Driver/Src/stm32f0xx_hal_flash.c ****     FLASH_SetErrorCode();
 1138              		.loc 1 662 0
 1139 0068 FFF7FEFF 		bl	FLASH_SetErrorCode
 663:cube/Drivers/STM32F0xx_HAL_Driver/Src/stm32f0xx_hal_flash.c ****     return HAL_ERROR;
 1140              		.loc 1 663 0
 1141 006c 0123     		movs	r3, #1
 1142 006e 00E0     		b	.L76
 1143              	.L80:
 664:cube/Drivers/STM32F0xx_HAL_Driver/Src/stm32f0xx_hal_flash.c ****   }
 665:cube/Drivers/STM32F0xx_HAL_Driver/Src/stm32f0xx_hal_flash.c **** 
 666:cube/Drivers/STM32F0xx_HAL_Driver/Src/stm32f0xx_hal_flash.c ****   /* There is no error flag set */
 667:cube/Drivers/STM32F0xx_HAL_Driver/Src/stm32f0xx_hal_flash.c ****   return HAL_OK;
 1144              		.loc 1 667 0
 1145 0070 0023     		movs	r3, #0
 1146              	.L76:
 668:cube/Drivers/STM32F0xx_HAL_Driver/Src/stm32f0xx_hal_flash.c **** }
 1147              		.loc 1 668 0
 1148 0072 1800     		movs	r0, r3
 1149 0074 BD46     		mov	sp, r7
 1150 0076 04B0     		add	sp, sp, #16
 1151              		@ sp needed
 1152 0078 80BD     		pop	{r7, pc}
 1153              	.L82:
 1154 007a C046     		.align	2
 1155              	.L81:
 1156 007c 00200240 		.word	1073881088
 1157              		.cfi_endproc
 1158              	.LFE49:
 1160              		.section	.text.FLASH_SetErrorCode,"ax",%progbits
 1161              		.align	1
 1162              		.syntax unified
 1163              		.code	16
 1164              		.thumb_func
 1165              		.fpu softvfp
 1167              	FLASH_SetErrorCode:
 1168              	.LFB50:
 669:cube/Drivers/STM32F0xx_HAL_Driver/Src/stm32f0xx_hal_flash.c **** 
 670:cube/Drivers/STM32F0xx_HAL_Driver/Src/stm32f0xx_hal_flash.c **** 
 671:cube/Drivers/STM32F0xx_HAL_Driver/Src/stm32f0xx_hal_flash.c **** /**
 672:cube/Drivers/STM32F0xx_HAL_Driver/Src/stm32f0xx_hal_flash.c ****   * @brief  Set the specific FLASH error flag.
 673:cube/Drivers/STM32F0xx_HAL_Driver/Src/stm32f0xx_hal_flash.c ****   * @retval None
 674:cube/Drivers/STM32F0xx_HAL_Driver/Src/stm32f0xx_hal_flash.c ****   */
 675:cube/Drivers/STM32F0xx_HAL_Driver/Src/stm32f0xx_hal_flash.c **** static void FLASH_SetErrorCode(void)
 676:cube/Drivers/STM32F0xx_HAL_Driver/Src/stm32f0xx_hal_flash.c **** {
 1169              		.loc 1 676 0
ARM GAS  /tmp/ccwNk3aP.s 			page 33


 1170              		.cfi_startproc
 1171              		@ args = 0, pretend = 0, frame = 8
 1172              		@ frame_needed = 1, uses_anonymous_args = 0
 1173 0000 80B5     		push	{r7, lr}
 1174              		.cfi_def_cfa_offset 8
 1175              		.cfi_offset 7, -8
 1176              		.cfi_offset 14, -4
 1177 0002 82B0     		sub	sp, sp, #8
 1178              		.cfi_def_cfa_offset 16
 1179 0004 00AF     		add	r7, sp, #0
 1180              		.cfi_def_cfa_register 7
 677:cube/Drivers/STM32F0xx_HAL_Driver/Src/stm32f0xx_hal_flash.c ****   uint32_t flags = 0U;
 1181              		.loc 1 677 0
 1182 0006 0023     		movs	r3, #0
 1183 0008 7B60     		str	r3, [r7, #4]
 678:cube/Drivers/STM32F0xx_HAL_Driver/Src/stm32f0xx_hal_flash.c ****   
 679:cube/Drivers/STM32F0xx_HAL_Driver/Src/stm32f0xx_hal_flash.c ****   if(__HAL_FLASH_GET_FLAG(FLASH_FLAG_WRPERR))
 1184              		.loc 1 679 0
 1185 000a 134B     		ldr	r3, .L86
 1186 000c DB68     		ldr	r3, [r3, #12]
 1187 000e 1022     		movs	r2, #16
 1188 0010 1340     		ands	r3, r2
 1189 0012 102B     		cmp	r3, #16
 1190 0014 09D1     		bne	.L84
 680:cube/Drivers/STM32F0xx_HAL_Driver/Src/stm32f0xx_hal_flash.c ****   {
 681:cube/Drivers/STM32F0xx_HAL_Driver/Src/stm32f0xx_hal_flash.c ****     pFlash.ErrorCode |= HAL_FLASH_ERROR_WRP;
 1191              		.loc 1 681 0
 1192 0016 114B     		ldr	r3, .L86+4
 1193 0018 DB69     		ldr	r3, [r3, #28]
 1194 001a 0222     		movs	r2, #2
 1195 001c 1A43     		orrs	r2, r3
 1196 001e 0F4B     		ldr	r3, .L86+4
 1197 0020 DA61     		str	r2, [r3, #28]
 682:cube/Drivers/STM32F0xx_HAL_Driver/Src/stm32f0xx_hal_flash.c ****     flags |= FLASH_FLAG_WRPERR;
 1198              		.loc 1 682 0
 1199 0022 7B68     		ldr	r3, [r7, #4]
 1200 0024 1022     		movs	r2, #16
 1201 0026 1343     		orrs	r3, r2
 1202 0028 7B60     		str	r3, [r7, #4]
 1203              	.L84:
 683:cube/Drivers/STM32F0xx_HAL_Driver/Src/stm32f0xx_hal_flash.c ****   }
 684:cube/Drivers/STM32F0xx_HAL_Driver/Src/stm32f0xx_hal_flash.c ****   if(__HAL_FLASH_GET_FLAG(FLASH_FLAG_PGERR))
 1204              		.loc 1 684 0
 1205 002a 0B4B     		ldr	r3, .L86
 1206 002c DB68     		ldr	r3, [r3, #12]
 1207 002e 0422     		movs	r2, #4
 1208 0030 1340     		ands	r3, r2
 1209 0032 042B     		cmp	r3, #4
 1210 0034 09D1     		bne	.L85
 685:cube/Drivers/STM32F0xx_HAL_Driver/Src/stm32f0xx_hal_flash.c ****   {
 686:cube/Drivers/STM32F0xx_HAL_Driver/Src/stm32f0xx_hal_flash.c ****     pFlash.ErrorCode |= HAL_FLASH_ERROR_PROG;
 1211              		.loc 1 686 0
 1212 0036 094B     		ldr	r3, .L86+4
 1213 0038 DB69     		ldr	r3, [r3, #28]
 1214 003a 0122     		movs	r2, #1
 1215 003c 1A43     		orrs	r2, r3
 1216 003e 074B     		ldr	r3, .L86+4
ARM GAS  /tmp/ccwNk3aP.s 			page 34


 1217 0040 DA61     		str	r2, [r3, #28]
 687:cube/Drivers/STM32F0xx_HAL_Driver/Src/stm32f0xx_hal_flash.c ****     flags |= FLASH_FLAG_PGERR;
 1218              		.loc 1 687 0
 1219 0042 7B68     		ldr	r3, [r7, #4]
 1220 0044 0422     		movs	r2, #4
 1221 0046 1343     		orrs	r3, r2
 1222 0048 7B60     		str	r3, [r7, #4]
 1223              	.L85:
 688:cube/Drivers/STM32F0xx_HAL_Driver/Src/stm32f0xx_hal_flash.c ****   }
 689:cube/Drivers/STM32F0xx_HAL_Driver/Src/stm32f0xx_hal_flash.c ****   /* Clear FLASH error pending bits */
 690:cube/Drivers/STM32F0xx_HAL_Driver/Src/stm32f0xx_hal_flash.c ****   __HAL_FLASH_CLEAR_FLAG(flags);
 1224              		.loc 1 690 0
 1225 004a 034B     		ldr	r3, .L86
 1226 004c 7A68     		ldr	r2, [r7, #4]
 1227 004e DA60     		str	r2, [r3, #12]
 691:cube/Drivers/STM32F0xx_HAL_Driver/Src/stm32f0xx_hal_flash.c **** }  
 1228              		.loc 1 691 0
 1229 0050 C046     		nop
 1230 0052 BD46     		mov	sp, r7
 1231 0054 02B0     		add	sp, sp, #8
 1232              		@ sp needed
 1233 0056 80BD     		pop	{r7, pc}
 1234              	.L87:
 1235              		.align	2
 1236              	.L86:
 1237 0058 00200240 		.word	1073881088
 1238 005c 00000000 		.word	pFlash
 1239              		.cfi_endproc
 1240              	.LFE50:
 1242              		.text
 1243              	.Letext0:
 1244              		.file 2 "/home/lhaug/Applications/gcc-arm-none-eabi-7-2018-q2-update/arm-none-eabi/include/machine
 1245              		.file 3 "/home/lhaug/Applications/gcc-arm-none-eabi-7-2018-q2-update/arm-none-eabi/include/sys/_st
 1246              		.file 4 "cube/Drivers/CMSIS/Device/ST/STM32F0xx/Include/system_stm32f0xx.h"
 1247              		.file 5 "cube/Drivers/CMSIS/Device/ST/STM32F0xx/Include/stm32f072xb.h"
 1248              		.file 6 "/home/lhaug/Applications/gcc-arm-none-eabi-7-2018-q2-update/arm-none-eabi/include/sys/loc
 1249              		.file 7 "/home/lhaug/Applications/gcc-arm-none-eabi-7-2018-q2-update/arm-none-eabi/include/sys/_ty
 1250              		.file 8 "/home/lhaug/Applications/gcc-arm-none-eabi-7-2018-q2-update/lib/gcc/arm-none-eabi/7.3.1/i
 1251              		.file 9 "/home/lhaug/Applications/gcc-arm-none-eabi-7-2018-q2-update/arm-none-eabi/include/sys/ree
 1252              		.file 10 "cube/Drivers/CMSIS/Device/ST/STM32F0xx/Include/stm32f0xx.h"
 1253              		.file 11 "cube/Drivers/STM32F0xx_HAL_Driver/Inc/stm32f0xx_hal_def.h"
 1254              		.file 12 "cube/Drivers/STM32F0xx_HAL_Driver/Inc/stm32f0xx_hal_flash.h"
ARM GAS  /tmp/ccwNk3aP.s 			page 35

