ARM GAS  /tmp/ccOHs00v.s 			page 1


   1              		.cpu cortex-m0
   2              		.eabi_attribute 20, 1
   3              		.eabi_attribute 21, 1
   4              		.eabi_attribute 23, 3
   5              		.eabi_attribute 24, 1
   6              		.eabi_attribute 25, 1
   7              		.eabi_attribute 26, 1
   8              		.eabi_attribute 30, 6
   9              		.eabi_attribute 34, 0
  10              		.eabi_attribute 18, 4
  11              		.file	"stm32f0xx_hal_adc_ex.c"
  12              		.text
  13              	.Ltext0:
  14              		.cfi_sections	.debug_frame
  15              		.section	.text.HAL_ADCEx_Calibration_Start,"ax",%progbits
  16              		.align	1
  17              		.global	HAL_ADCEx_Calibration_Start
  18              		.syntax unified
  19              		.code	16
  20              		.thumb_func
  21              		.fpu softvfp
  23              	HAL_ADCEx_Calibration_Start:
  24              	.LFB37:
  25              		.file 1 "cube/Drivers/STM32F0xx_HAL_Driver/Src/stm32f0xx_hal_adc_ex.c"
   1:cube/Drivers/STM32F0xx_HAL_Driver/Src/stm32f0xx_hal_adc_ex.c **** /**
   2:cube/Drivers/STM32F0xx_HAL_Driver/Src/stm32f0xx_hal_adc_ex.c ****   ******************************************************************************
   3:cube/Drivers/STM32F0xx_HAL_Driver/Src/stm32f0xx_hal_adc_ex.c ****   * @file    stm32f0xx_hal_adc_ex.c
   4:cube/Drivers/STM32F0xx_HAL_Driver/Src/stm32f0xx_hal_adc_ex.c ****   * @author  MCD Application Team
   5:cube/Drivers/STM32F0xx_HAL_Driver/Src/stm32f0xx_hal_adc_ex.c ****   * @brief   This file provides firmware functions to manage the following 
   6:cube/Drivers/STM32F0xx_HAL_Driver/Src/stm32f0xx_hal_adc_ex.c ****   *          functionalities of the Analog to Digital Convertor (ADC)
   7:cube/Drivers/STM32F0xx_HAL_Driver/Src/stm32f0xx_hal_adc_ex.c ****   *          peripheral:
   8:cube/Drivers/STM32F0xx_HAL_Driver/Src/stm32f0xx_hal_adc_ex.c ****   *           + Operation functions
   9:cube/Drivers/STM32F0xx_HAL_Driver/Src/stm32f0xx_hal_adc_ex.c ****   *             ++ Calibration (ADC automatic self-calibration)
  10:cube/Drivers/STM32F0xx_HAL_Driver/Src/stm32f0xx_hal_adc_ex.c ****   *          Other functions (generic functions) are available in file 
  11:cube/Drivers/STM32F0xx_HAL_Driver/Src/stm32f0xx_hal_adc_ex.c ****   *          "stm32f0xx_hal_adc.c".
  12:cube/Drivers/STM32F0xx_HAL_Driver/Src/stm32f0xx_hal_adc_ex.c ****   *
  13:cube/Drivers/STM32F0xx_HAL_Driver/Src/stm32f0xx_hal_adc_ex.c ****   @verbatim
  14:cube/Drivers/STM32F0xx_HAL_Driver/Src/stm32f0xx_hal_adc_ex.c ****   [..] 
  15:cube/Drivers/STM32F0xx_HAL_Driver/Src/stm32f0xx_hal_adc_ex.c ****   (@) Sections "ADC peripheral features" and "How to use this driver" are
  16:cube/Drivers/STM32F0xx_HAL_Driver/Src/stm32f0xx_hal_adc_ex.c ****       available in file of generic functions "stm32l1xx_hal_adc.c".
  17:cube/Drivers/STM32F0xx_HAL_Driver/Src/stm32f0xx_hal_adc_ex.c ****   [..]
  18:cube/Drivers/STM32F0xx_HAL_Driver/Src/stm32f0xx_hal_adc_ex.c ****   @endverbatim
  19:cube/Drivers/STM32F0xx_HAL_Driver/Src/stm32f0xx_hal_adc_ex.c ****   ******************************************************************************
  20:cube/Drivers/STM32F0xx_HAL_Driver/Src/stm32f0xx_hal_adc_ex.c ****   * @attention
  21:cube/Drivers/STM32F0xx_HAL_Driver/Src/stm32f0xx_hal_adc_ex.c ****   *
  22:cube/Drivers/STM32F0xx_HAL_Driver/Src/stm32f0xx_hal_adc_ex.c ****   * <h2><center>&copy; COPYRIGHT(c) 2016 STMicroelectronics</center></h2>
  23:cube/Drivers/STM32F0xx_HAL_Driver/Src/stm32f0xx_hal_adc_ex.c ****   *
  24:cube/Drivers/STM32F0xx_HAL_Driver/Src/stm32f0xx_hal_adc_ex.c ****   * Redistribution and use in source and binary forms, with or without modification,
  25:cube/Drivers/STM32F0xx_HAL_Driver/Src/stm32f0xx_hal_adc_ex.c ****   * are permitted provided that the following conditions are met:
  26:cube/Drivers/STM32F0xx_HAL_Driver/Src/stm32f0xx_hal_adc_ex.c ****   *   1. Redistributions of source code must retain the above copyright notice,
  27:cube/Drivers/STM32F0xx_HAL_Driver/Src/stm32f0xx_hal_adc_ex.c ****   *      this list of conditions and the following disclaimer.
  28:cube/Drivers/STM32F0xx_HAL_Driver/Src/stm32f0xx_hal_adc_ex.c ****   *   2. Redistributions in binary form must reproduce the above copyright notice,
  29:cube/Drivers/STM32F0xx_HAL_Driver/Src/stm32f0xx_hal_adc_ex.c ****   *      this list of conditions and the following disclaimer in the documentation
  30:cube/Drivers/STM32F0xx_HAL_Driver/Src/stm32f0xx_hal_adc_ex.c ****   *      and/or other materials provided with the distribution.
  31:cube/Drivers/STM32F0xx_HAL_Driver/Src/stm32f0xx_hal_adc_ex.c ****   *   3. Neither the name of STMicroelectronics nor the names of its contributors
  32:cube/Drivers/STM32F0xx_HAL_Driver/Src/stm32f0xx_hal_adc_ex.c ****   *      may be used to endorse or promote products derived from this software
  33:cube/Drivers/STM32F0xx_HAL_Driver/Src/stm32f0xx_hal_adc_ex.c ****   *      without specific prior written permission.
ARM GAS  /tmp/ccOHs00v.s 			page 2


  34:cube/Drivers/STM32F0xx_HAL_Driver/Src/stm32f0xx_hal_adc_ex.c ****   *
  35:cube/Drivers/STM32F0xx_HAL_Driver/Src/stm32f0xx_hal_adc_ex.c ****   * THIS SOFTWARE IS PROVIDED BY THE COPYRIGHT HOLDERS AND CONTRIBUTORS "AS IS"
  36:cube/Drivers/STM32F0xx_HAL_Driver/Src/stm32f0xx_hal_adc_ex.c ****   * AND ANY EXPRESS OR IMPLIED WARRANTIES, INCLUDING, BUT NOT LIMITED TO, THE
  37:cube/Drivers/STM32F0xx_HAL_Driver/Src/stm32f0xx_hal_adc_ex.c ****   * IMPLIED WARRANTIES OF MERCHANTABILITY AND FITNESS FOR A PARTICULAR PURPOSE ARE
  38:cube/Drivers/STM32F0xx_HAL_Driver/Src/stm32f0xx_hal_adc_ex.c ****   * DISCLAIMED. IN NO EVENT SHALL THE COPYRIGHT HOLDER OR CONTRIBUTORS BE LIABLE
  39:cube/Drivers/STM32F0xx_HAL_Driver/Src/stm32f0xx_hal_adc_ex.c ****   * FOR ANY DIRECT, INDIRECT, INCIDENTAL, SPECIAL, EXEMPLARY, OR CONSEQUENTIAL
  40:cube/Drivers/STM32F0xx_HAL_Driver/Src/stm32f0xx_hal_adc_ex.c ****   * DAMAGES (INCLUDING, BUT NOT LIMITED TO, PROCUREMENT OF SUBSTITUTE GOODS OR
  41:cube/Drivers/STM32F0xx_HAL_Driver/Src/stm32f0xx_hal_adc_ex.c ****   * SERVICES; LOSS OF USE, DATA, OR PROFITS; OR BUSINESS INTERRUPTION) HOWEVER
  42:cube/Drivers/STM32F0xx_HAL_Driver/Src/stm32f0xx_hal_adc_ex.c ****   * CAUSED AND ON ANY THEORY OF LIABILITY, WHETHER IN CONTRACT, STRICT LIABILITY,
  43:cube/Drivers/STM32F0xx_HAL_Driver/Src/stm32f0xx_hal_adc_ex.c ****   * OR TORT (INCLUDING NEGLIGENCE OR OTHERWISE) ARISING IN ANY WAY OUT OF THE USE
  44:cube/Drivers/STM32F0xx_HAL_Driver/Src/stm32f0xx_hal_adc_ex.c ****   * OF THIS SOFTWARE, EVEN IF ADVISED OF THE POSSIBILITY OF SUCH DAMAGE.
  45:cube/Drivers/STM32F0xx_HAL_Driver/Src/stm32f0xx_hal_adc_ex.c ****   *
  46:cube/Drivers/STM32F0xx_HAL_Driver/Src/stm32f0xx_hal_adc_ex.c ****   ******************************************************************************  
  47:cube/Drivers/STM32F0xx_HAL_Driver/Src/stm32f0xx_hal_adc_ex.c ****   */
  48:cube/Drivers/STM32F0xx_HAL_Driver/Src/stm32f0xx_hal_adc_ex.c **** 
  49:cube/Drivers/STM32F0xx_HAL_Driver/Src/stm32f0xx_hal_adc_ex.c **** /* Includes ------------------------------------------------------------------*/
  50:cube/Drivers/STM32F0xx_HAL_Driver/Src/stm32f0xx_hal_adc_ex.c **** #include "stm32f0xx_hal.h"
  51:cube/Drivers/STM32F0xx_HAL_Driver/Src/stm32f0xx_hal_adc_ex.c **** 
  52:cube/Drivers/STM32F0xx_HAL_Driver/Src/stm32f0xx_hal_adc_ex.c **** /** @addtogroup STM32F0xx_HAL_Driver
  53:cube/Drivers/STM32F0xx_HAL_Driver/Src/stm32f0xx_hal_adc_ex.c ****   * @{
  54:cube/Drivers/STM32F0xx_HAL_Driver/Src/stm32f0xx_hal_adc_ex.c ****   */
  55:cube/Drivers/STM32F0xx_HAL_Driver/Src/stm32f0xx_hal_adc_ex.c **** 
  56:cube/Drivers/STM32F0xx_HAL_Driver/Src/stm32f0xx_hal_adc_ex.c **** /** @defgroup ADCEx ADCEx
  57:cube/Drivers/STM32F0xx_HAL_Driver/Src/stm32f0xx_hal_adc_ex.c ****   * @brief ADC HAL module driver
  58:cube/Drivers/STM32F0xx_HAL_Driver/Src/stm32f0xx_hal_adc_ex.c ****   * @{
  59:cube/Drivers/STM32F0xx_HAL_Driver/Src/stm32f0xx_hal_adc_ex.c ****   */
  60:cube/Drivers/STM32F0xx_HAL_Driver/Src/stm32f0xx_hal_adc_ex.c **** 
  61:cube/Drivers/STM32F0xx_HAL_Driver/Src/stm32f0xx_hal_adc_ex.c **** #ifdef HAL_ADC_MODULE_ENABLED
  62:cube/Drivers/STM32F0xx_HAL_Driver/Src/stm32f0xx_hal_adc_ex.c **** 
  63:cube/Drivers/STM32F0xx_HAL_Driver/Src/stm32f0xx_hal_adc_ex.c **** /* Private typedef -----------------------------------------------------------*/
  64:cube/Drivers/STM32F0xx_HAL_Driver/Src/stm32f0xx_hal_adc_ex.c **** /* Private define ------------------------------------------------------------*/
  65:cube/Drivers/STM32F0xx_HAL_Driver/Src/stm32f0xx_hal_adc_ex.c **** /** @defgroup ADCEx_Private_Constants ADCEx Private Constants
  66:cube/Drivers/STM32F0xx_HAL_Driver/Src/stm32f0xx_hal_adc_ex.c ****   * @{
  67:cube/Drivers/STM32F0xx_HAL_Driver/Src/stm32f0xx_hal_adc_ex.c ****   */ 
  68:cube/Drivers/STM32F0xx_HAL_Driver/Src/stm32f0xx_hal_adc_ex.c ****  
  69:cube/Drivers/STM32F0xx_HAL_Driver/Src/stm32f0xx_hal_adc_ex.c **** /* Fixed timeout values for ADC calibration, enable settling time, disable  */
  70:cube/Drivers/STM32F0xx_HAL_Driver/Src/stm32f0xx_hal_adc_ex.c ****   /* settling time.                                                           */
  71:cube/Drivers/STM32F0xx_HAL_Driver/Src/stm32f0xx_hal_adc_ex.c ****   /* Values defined to be higher than worst cases: low clock frequency,       */
  72:cube/Drivers/STM32F0xx_HAL_Driver/Src/stm32f0xx_hal_adc_ex.c ****   /* maximum prescaler.                                                       */
  73:cube/Drivers/STM32F0xx_HAL_Driver/Src/stm32f0xx_hal_adc_ex.c ****   /* Ex of profile low frequency : Clock source at 0.1 MHz, ADC clock         */
  74:cube/Drivers/STM32F0xx_HAL_Driver/Src/stm32f0xx_hal_adc_ex.c ****   /* prescaler 4.                                                             */
  75:cube/Drivers/STM32F0xx_HAL_Driver/Src/stm32f0xx_hal_adc_ex.c ****   /* Unit: ms                                                                 */
  76:cube/Drivers/STM32F0xx_HAL_Driver/Src/stm32f0xx_hal_adc_ex.c ****   #define ADC_DISABLE_TIMEOUT           2
  77:cube/Drivers/STM32F0xx_HAL_Driver/Src/stm32f0xx_hal_adc_ex.c ****   #define ADC_CALIBRATION_TIMEOUT       2U      
  78:cube/Drivers/STM32F0xx_HAL_Driver/Src/stm32f0xx_hal_adc_ex.c **** /**
  79:cube/Drivers/STM32F0xx_HAL_Driver/Src/stm32f0xx_hal_adc_ex.c ****   * @}
  80:cube/Drivers/STM32F0xx_HAL_Driver/Src/stm32f0xx_hal_adc_ex.c ****   */
  81:cube/Drivers/STM32F0xx_HAL_Driver/Src/stm32f0xx_hal_adc_ex.c **** 
  82:cube/Drivers/STM32F0xx_HAL_Driver/Src/stm32f0xx_hal_adc_ex.c **** /* Private macros -------------------------------------------------------------*/
  83:cube/Drivers/STM32F0xx_HAL_Driver/Src/stm32f0xx_hal_adc_ex.c **** /* Private variables ---------------------------------------------------------*/
  84:cube/Drivers/STM32F0xx_HAL_Driver/Src/stm32f0xx_hal_adc_ex.c **** /* Private function prototypes -----------------------------------------------*/
  85:cube/Drivers/STM32F0xx_HAL_Driver/Src/stm32f0xx_hal_adc_ex.c **** /* Private functions ---------------------------------------------------------*/
  86:cube/Drivers/STM32F0xx_HAL_Driver/Src/stm32f0xx_hal_adc_ex.c **** 
  87:cube/Drivers/STM32F0xx_HAL_Driver/Src/stm32f0xx_hal_adc_ex.c **** /** @defgroup ADCEx_Exported_Functions ADCEx Exported Functions
  88:cube/Drivers/STM32F0xx_HAL_Driver/Src/stm32f0xx_hal_adc_ex.c ****   * @{
  89:cube/Drivers/STM32F0xx_HAL_Driver/Src/stm32f0xx_hal_adc_ex.c ****   */
  90:cube/Drivers/STM32F0xx_HAL_Driver/Src/stm32f0xx_hal_adc_ex.c **** 
ARM GAS  /tmp/ccOHs00v.s 			page 3


  91:cube/Drivers/STM32F0xx_HAL_Driver/Src/stm32f0xx_hal_adc_ex.c **** /** @defgroup ADCEx_Exported_Functions_Group1 Extended Initialization/de-initialization functions 
  92:cube/Drivers/STM32F0xx_HAL_Driver/Src/stm32f0xx_hal_adc_ex.c ****  *  @brief    Extended Initialization and Configuration functions
  93:cube/Drivers/STM32F0xx_HAL_Driver/Src/stm32f0xx_hal_adc_ex.c ****  *
  94:cube/Drivers/STM32F0xx_HAL_Driver/Src/stm32f0xx_hal_adc_ex.c **** @verbatim
  95:cube/Drivers/STM32F0xx_HAL_Driver/Src/stm32f0xx_hal_adc_ex.c ****  ===============================================================================
  96:cube/Drivers/STM32F0xx_HAL_Driver/Src/stm32f0xx_hal_adc_ex.c ****                       ##### IO operation functions #####
  97:cube/Drivers/STM32F0xx_HAL_Driver/Src/stm32f0xx_hal_adc_ex.c ****  ===============================================================================
  98:cube/Drivers/STM32F0xx_HAL_Driver/Src/stm32f0xx_hal_adc_ex.c ****     [..]  This section provides functions allowing to:
  99:cube/Drivers/STM32F0xx_HAL_Driver/Src/stm32f0xx_hal_adc_ex.c ****       (+) Perform the ADC calibration. 
 100:cube/Drivers/STM32F0xx_HAL_Driver/Src/stm32f0xx_hal_adc_ex.c **** @endverbatim
 101:cube/Drivers/STM32F0xx_HAL_Driver/Src/stm32f0xx_hal_adc_ex.c ****   * @{
 102:cube/Drivers/STM32F0xx_HAL_Driver/Src/stm32f0xx_hal_adc_ex.c ****   */
 103:cube/Drivers/STM32F0xx_HAL_Driver/Src/stm32f0xx_hal_adc_ex.c **** 
 104:cube/Drivers/STM32F0xx_HAL_Driver/Src/stm32f0xx_hal_adc_ex.c **** /**
 105:cube/Drivers/STM32F0xx_HAL_Driver/Src/stm32f0xx_hal_adc_ex.c ****   * @brief  Perform an ADC automatic self-calibration
 106:cube/Drivers/STM32F0xx_HAL_Driver/Src/stm32f0xx_hal_adc_ex.c ****   *         Calibration prerequisite: ADC must be disabled (execute this
 107:cube/Drivers/STM32F0xx_HAL_Driver/Src/stm32f0xx_hal_adc_ex.c ****   *         function before HAL_ADC_Start() or after HAL_ADC_Stop() ).
 108:cube/Drivers/STM32F0xx_HAL_Driver/Src/stm32f0xx_hal_adc_ex.c ****   * @note   Calibration factor can be read after calibration, using function
 109:cube/Drivers/STM32F0xx_HAL_Driver/Src/stm32f0xx_hal_adc_ex.c ****   *         HAL_ADC_GetValue() (value on 7 bits: from DR[6;0]).
 110:cube/Drivers/STM32F0xx_HAL_Driver/Src/stm32f0xx_hal_adc_ex.c ****   * @param  hadc ADC handle
 111:cube/Drivers/STM32F0xx_HAL_Driver/Src/stm32f0xx_hal_adc_ex.c ****   * @retval HAL status
 112:cube/Drivers/STM32F0xx_HAL_Driver/Src/stm32f0xx_hal_adc_ex.c ****   */
 113:cube/Drivers/STM32F0xx_HAL_Driver/Src/stm32f0xx_hal_adc_ex.c **** HAL_StatusTypeDef HAL_ADCEx_Calibration_Start(ADC_HandleTypeDef* hadc)
 114:cube/Drivers/STM32F0xx_HAL_Driver/Src/stm32f0xx_hal_adc_ex.c **** {
  26              		.loc 1 114 0
  27              		.cfi_startproc
  28              		@ args = 0, pretend = 0, frame = 24
  29              		@ frame_needed = 1, uses_anonymous_args = 0
  30 0000 80B5     		push	{r7, lr}
  31              		.cfi_def_cfa_offset 8
  32              		.cfi_offset 7, -8
  33              		.cfi_offset 14, -4
  34 0002 86B0     		sub	sp, sp, #24
  35              		.cfi_def_cfa_offset 32
  36 0004 00AF     		add	r7, sp, #0
  37              		.cfi_def_cfa_register 7
  38 0006 7860     		str	r0, [r7, #4]
 115:cube/Drivers/STM32F0xx_HAL_Driver/Src/stm32f0xx_hal_adc_ex.c ****   HAL_StatusTypeDef tmp_hal_status = HAL_OK;
  39              		.loc 1 115 0
  40 0008 1723     		movs	r3, #23
  41 000a FB18     		adds	r3, r7, r3
  42 000c 0022     		movs	r2, #0
  43 000e 1A70     		strb	r2, [r3]
 116:cube/Drivers/STM32F0xx_HAL_Driver/Src/stm32f0xx_hal_adc_ex.c ****   uint32_t tickstart = 0U;
  44              		.loc 1 116 0
  45 0010 0023     		movs	r3, #0
  46 0012 3B61     		str	r3, [r7, #16]
 117:cube/Drivers/STM32F0xx_HAL_Driver/Src/stm32f0xx_hal_adc_ex.c ****   uint32_t backup_setting_adc_dma_transfer = 0; /* Note: Variable not declared as volatile because 
  47              		.loc 1 117 0
  48 0014 0023     		movs	r3, #0
  49 0016 FB60     		str	r3, [r7, #12]
 118:cube/Drivers/STM32F0xx_HAL_Driver/Src/stm32f0xx_hal_adc_ex.c ****   
 119:cube/Drivers/STM32F0xx_HAL_Driver/Src/stm32f0xx_hal_adc_ex.c ****   /* Check the parameters */
 120:cube/Drivers/STM32F0xx_HAL_Driver/Src/stm32f0xx_hal_adc_ex.c ****   assert_param(IS_ADC_ALL_INSTANCE(hadc->Instance));
 121:cube/Drivers/STM32F0xx_HAL_Driver/Src/stm32f0xx_hal_adc_ex.c **** 
 122:cube/Drivers/STM32F0xx_HAL_Driver/Src/stm32f0xx_hal_adc_ex.c ****   /* Process locked */
 123:cube/Drivers/STM32F0xx_HAL_Driver/Src/stm32f0xx_hal_adc_ex.c ****   __HAL_LOCK(hadc);
ARM GAS  /tmp/ccOHs00v.s 			page 4


  50              		.loc 1 123 0
  51 0018 7B68     		ldr	r3, [r7, #4]
  52 001a 4022     		movs	r2, #64
  53 001c 9B5C     		ldrb	r3, [r3, r2]
  54 001e 012B     		cmp	r3, #1
  55 0020 01D1     		bne	.L2
  56              		.loc 1 123 0 is_stmt 0 discriminator 1
  57 0022 0223     		movs	r3, #2
  58 0024 80E0     		b	.L3
  59              	.L2:
  60              		.loc 1 123 0 discriminator 2
  61 0026 7B68     		ldr	r3, [r7, #4]
  62 0028 4022     		movs	r2, #64
  63 002a 0121     		movs	r1, #1
  64 002c 9954     		strb	r1, [r3, r2]
 124:cube/Drivers/STM32F0xx_HAL_Driver/Src/stm32f0xx_hal_adc_ex.c ****   
 125:cube/Drivers/STM32F0xx_HAL_Driver/Src/stm32f0xx_hal_adc_ex.c ****   /* Calibration prerequisite: ADC must be disabled. */
 126:cube/Drivers/STM32F0xx_HAL_Driver/Src/stm32f0xx_hal_adc_ex.c ****   if (ADC_IS_ENABLE(hadc) == RESET)
  65              		.loc 1 126 0 is_stmt 1 discriminator 2
  66 002e 7B68     		ldr	r3, [r7, #4]
  67 0030 1B68     		ldr	r3, [r3]
  68 0032 9B68     		ldr	r3, [r3, #8]
  69 0034 0322     		movs	r2, #3
  70 0036 1340     		ands	r3, r2
  71 0038 012B     		cmp	r3, #1
  72 003a 12D1     		bne	.L4
  73              		.loc 1 126 0 is_stmt 0 discriminator 1
  74 003c 7B68     		ldr	r3, [r7, #4]
  75 003e 1B68     		ldr	r3, [r3]
  76 0040 1B68     		ldr	r3, [r3]
  77 0042 0122     		movs	r2, #1
  78 0044 1340     		ands	r3, r2
  79 0046 012B     		cmp	r3, #1
  80 0048 09D0     		beq	.L5
  81              		.loc 1 126 0 discriminator 4
  82 004a 7B68     		ldr	r3, [r7, #4]
  83 004c 1B68     		ldr	r3, [r3]
  84 004e DA68     		ldr	r2, [r3, #12]
  85 0050 8023     		movs	r3, #128
  86 0052 1B02     		lsls	r3, r3, #8
  87 0054 1A40     		ands	r2, r3
  88 0056 8023     		movs	r3, #128
  89 0058 1B02     		lsls	r3, r3, #8
  90 005a 9A42     		cmp	r2, r3
  91 005c 01D1     		bne	.L4
  92              	.L5:
  93              		.loc 1 126 0 discriminator 5
  94 005e 0123     		movs	r3, #1
  95 0060 00E0     		b	.L6
  96              	.L4:
  97              		.loc 1 126 0 discriminator 6
  98 0062 0023     		movs	r3, #0
  99              	.L6:
 100              		.loc 1 126 0 discriminator 8
 101 0064 002B     		cmp	r3, #0
 102 0066 4ED1     		bne	.L7
 127:cube/Drivers/STM32F0xx_HAL_Driver/Src/stm32f0xx_hal_adc_ex.c ****   {
ARM GAS  /tmp/ccOHs00v.s 			page 5


 128:cube/Drivers/STM32F0xx_HAL_Driver/Src/stm32f0xx_hal_adc_ex.c ****     /* Set ADC state */
 129:cube/Drivers/STM32F0xx_HAL_Driver/Src/stm32f0xx_hal_adc_ex.c ****     ADC_STATE_CLR_SET(hadc->State, 
 103              		.loc 1 129 0 is_stmt 1
 104 0068 7B68     		ldr	r3, [r7, #4]
 105 006a 5B6C     		ldr	r3, [r3, #68]
 106 006c 304A     		ldr	r2, .L11
 107 006e 1340     		ands	r3, r2
 108 0070 0222     		movs	r2, #2
 109 0072 1A43     		orrs	r2, r3
 110 0074 7B68     		ldr	r3, [r7, #4]
 111 0076 5A64     		str	r2, [r3, #68]
 130:cube/Drivers/STM32F0xx_HAL_Driver/Src/stm32f0xx_hal_adc_ex.c ****                       HAL_ADC_STATE_REG_BUSY,
 131:cube/Drivers/STM32F0xx_HAL_Driver/Src/stm32f0xx_hal_adc_ex.c ****                       HAL_ADC_STATE_BUSY_INTERNAL);
 132:cube/Drivers/STM32F0xx_HAL_Driver/Src/stm32f0xx_hal_adc_ex.c ****     
 133:cube/Drivers/STM32F0xx_HAL_Driver/Src/stm32f0xx_hal_adc_ex.c ****     /* Disable ADC DMA transfer request during calibration */
 134:cube/Drivers/STM32F0xx_HAL_Driver/Src/stm32f0xx_hal_adc_ex.c ****     /* Note: Specificity of this STM32 serie: Calibration factor is           */
 135:cube/Drivers/STM32F0xx_HAL_Driver/Src/stm32f0xx_hal_adc_ex.c ****     /*       available in data register and also transfered by DMA.           */
 136:cube/Drivers/STM32F0xx_HAL_Driver/Src/stm32f0xx_hal_adc_ex.c ****     /*       To not insert ADC calibration factor among ADC conversion data   */
 137:cube/Drivers/STM32F0xx_HAL_Driver/Src/stm32f0xx_hal_adc_ex.c ****     /*       in array variable, DMA transfer must be disabled during          */
 138:cube/Drivers/STM32F0xx_HAL_Driver/Src/stm32f0xx_hal_adc_ex.c ****     /*       calibration.                                                     */
 139:cube/Drivers/STM32F0xx_HAL_Driver/Src/stm32f0xx_hal_adc_ex.c ****     backup_setting_adc_dma_transfer = READ_BIT(hadc->Instance->CFGR1, ADC_CFGR1_DMAEN | ADC_CFGR1_D
 112              		.loc 1 139 0
 113 0078 7B68     		ldr	r3, [r7, #4]
 114 007a 1B68     		ldr	r3, [r3]
 115 007c DB68     		ldr	r3, [r3, #12]
 116 007e 0322     		movs	r2, #3
 117 0080 1340     		ands	r3, r2
 118 0082 FB60     		str	r3, [r7, #12]
 140:cube/Drivers/STM32F0xx_HAL_Driver/Src/stm32f0xx_hal_adc_ex.c ****     CLEAR_BIT(hadc->Instance->CFGR1, ADC_CFGR1_DMAEN | ADC_CFGR1_DMACFG);
 119              		.loc 1 140 0
 120 0084 7B68     		ldr	r3, [r7, #4]
 121 0086 1B68     		ldr	r3, [r3]
 122 0088 DA68     		ldr	r2, [r3, #12]
 123 008a 7B68     		ldr	r3, [r7, #4]
 124 008c 1B68     		ldr	r3, [r3]
 125 008e 0321     		movs	r1, #3
 126 0090 8A43     		bics	r2, r1
 127 0092 DA60     		str	r2, [r3, #12]
 141:cube/Drivers/STM32F0xx_HAL_Driver/Src/stm32f0xx_hal_adc_ex.c **** 
 142:cube/Drivers/STM32F0xx_HAL_Driver/Src/stm32f0xx_hal_adc_ex.c ****     /* Start ADC calibration */
 143:cube/Drivers/STM32F0xx_HAL_Driver/Src/stm32f0xx_hal_adc_ex.c ****     hadc->Instance->CR |= ADC_CR_ADCAL;
 128              		.loc 1 143 0
 129 0094 7B68     		ldr	r3, [r7, #4]
 130 0096 1B68     		ldr	r3, [r3]
 131 0098 9A68     		ldr	r2, [r3, #8]
 132 009a 7B68     		ldr	r3, [r7, #4]
 133 009c 1B68     		ldr	r3, [r3]
 134 009e 8021     		movs	r1, #128
 135 00a0 0906     		lsls	r1, r1, #24
 136 00a2 0A43     		orrs	r2, r1
 137 00a4 9A60     		str	r2, [r3, #8]
 144:cube/Drivers/STM32F0xx_HAL_Driver/Src/stm32f0xx_hal_adc_ex.c **** 
 145:cube/Drivers/STM32F0xx_HAL_Driver/Src/stm32f0xx_hal_adc_ex.c ****     tickstart = HAL_GetTick();  
 138              		.loc 1 145 0
 139 00a6 FFF7FEFF 		bl	HAL_GetTick
 140 00aa 0300     		movs	r3, r0
 141 00ac 3B61     		str	r3, [r7, #16]
ARM GAS  /tmp/ccOHs00v.s 			page 6


 146:cube/Drivers/STM32F0xx_HAL_Driver/Src/stm32f0xx_hal_adc_ex.c **** 
 147:cube/Drivers/STM32F0xx_HAL_Driver/Src/stm32f0xx_hal_adc_ex.c ****     /* Wait for calibration completion */
 148:cube/Drivers/STM32F0xx_HAL_Driver/Src/stm32f0xx_hal_adc_ex.c ****     while(HAL_IS_BIT_SET(hadc->Instance->CR, ADC_CR_ADCAL))
 142              		.loc 1 148 0
 143 00ae 14E0     		b	.L8
 144              	.L9:
 149:cube/Drivers/STM32F0xx_HAL_Driver/Src/stm32f0xx_hal_adc_ex.c ****     {
 150:cube/Drivers/STM32F0xx_HAL_Driver/Src/stm32f0xx_hal_adc_ex.c ****       if((HAL_GetTick() - tickstart) > ADC_CALIBRATION_TIMEOUT)
 145              		.loc 1 150 0
 146 00b0 FFF7FEFF 		bl	HAL_GetTick
 147 00b4 0200     		movs	r2, r0
 148 00b6 3B69     		ldr	r3, [r7, #16]
 149 00b8 D31A     		subs	r3, r2, r3
 150 00ba 022B     		cmp	r3, #2
 151 00bc 0DD9     		bls	.L8
 151:cube/Drivers/STM32F0xx_HAL_Driver/Src/stm32f0xx_hal_adc_ex.c ****       {
 152:cube/Drivers/STM32F0xx_HAL_Driver/Src/stm32f0xx_hal_adc_ex.c ****         /* Update ADC state machine to error */
 153:cube/Drivers/STM32F0xx_HAL_Driver/Src/stm32f0xx_hal_adc_ex.c ****         ADC_STATE_CLR_SET(hadc->State,
 152              		.loc 1 153 0
 153 00be 7B68     		ldr	r3, [r7, #4]
 154 00c0 5B6C     		ldr	r3, [r3, #68]
 155 00c2 1222     		movs	r2, #18
 156 00c4 9343     		bics	r3, r2
 157 00c6 1022     		movs	r2, #16
 158 00c8 1A43     		orrs	r2, r3
 159 00ca 7B68     		ldr	r3, [r7, #4]
 160 00cc 5A64     		str	r2, [r3, #68]
 154:cube/Drivers/STM32F0xx_HAL_Driver/Src/stm32f0xx_hal_adc_ex.c ****                           HAL_ADC_STATE_BUSY_INTERNAL,
 155:cube/Drivers/STM32F0xx_HAL_Driver/Src/stm32f0xx_hal_adc_ex.c ****                           HAL_ADC_STATE_ERROR_INTERNAL);
 156:cube/Drivers/STM32F0xx_HAL_Driver/Src/stm32f0xx_hal_adc_ex.c ****         
 157:cube/Drivers/STM32F0xx_HAL_Driver/Src/stm32f0xx_hal_adc_ex.c ****         /* Process unlocked */
 158:cube/Drivers/STM32F0xx_HAL_Driver/Src/stm32f0xx_hal_adc_ex.c ****         __HAL_UNLOCK(hadc);
 161              		.loc 1 158 0
 162 00ce 7B68     		ldr	r3, [r7, #4]
 163 00d0 4022     		movs	r2, #64
 164 00d2 0021     		movs	r1, #0
 165 00d4 9954     		strb	r1, [r3, r2]
 159:cube/Drivers/STM32F0xx_HAL_Driver/Src/stm32f0xx_hal_adc_ex.c ****         
 160:cube/Drivers/STM32F0xx_HAL_Driver/Src/stm32f0xx_hal_adc_ex.c ****         return HAL_ERROR;
 166              		.loc 1 160 0
 167 00d6 0123     		movs	r3, #1
 168 00d8 26E0     		b	.L3
 169              	.L8:
 148:cube/Drivers/STM32F0xx_HAL_Driver/Src/stm32f0xx_hal_adc_ex.c ****     {
 170              		.loc 1 148 0
 171 00da 7B68     		ldr	r3, [r7, #4]
 172 00dc 1B68     		ldr	r3, [r3]
 173 00de 9B68     		ldr	r3, [r3, #8]
 174 00e0 002B     		cmp	r3, #0
 175 00e2 E5DB     		blt	.L9
 161:cube/Drivers/STM32F0xx_HAL_Driver/Src/stm32f0xx_hal_adc_ex.c ****       }
 162:cube/Drivers/STM32F0xx_HAL_Driver/Src/stm32f0xx_hal_adc_ex.c ****     }
 163:cube/Drivers/STM32F0xx_HAL_Driver/Src/stm32f0xx_hal_adc_ex.c ****     
 164:cube/Drivers/STM32F0xx_HAL_Driver/Src/stm32f0xx_hal_adc_ex.c ****     /* Restore ADC DMA transfer request after calibration */
 165:cube/Drivers/STM32F0xx_HAL_Driver/Src/stm32f0xx_hal_adc_ex.c ****     SET_BIT(hadc->Instance->CFGR1, backup_setting_adc_dma_transfer);
 176              		.loc 1 165 0
 177 00e4 7B68     		ldr	r3, [r7, #4]
ARM GAS  /tmp/ccOHs00v.s 			page 7


 178 00e6 1B68     		ldr	r3, [r3]
 179 00e8 D968     		ldr	r1, [r3, #12]
 180 00ea 7B68     		ldr	r3, [r7, #4]
 181 00ec 1B68     		ldr	r3, [r3]
 182 00ee FA68     		ldr	r2, [r7, #12]
 183 00f0 0A43     		orrs	r2, r1
 184 00f2 DA60     		str	r2, [r3, #12]
 166:cube/Drivers/STM32F0xx_HAL_Driver/Src/stm32f0xx_hal_adc_ex.c **** 
 167:cube/Drivers/STM32F0xx_HAL_Driver/Src/stm32f0xx_hal_adc_ex.c ****     /* Set ADC state */
 168:cube/Drivers/STM32F0xx_HAL_Driver/Src/stm32f0xx_hal_adc_ex.c ****     ADC_STATE_CLR_SET(hadc->State,
 185              		.loc 1 168 0
 186 00f4 7B68     		ldr	r3, [r7, #4]
 187 00f6 5B6C     		ldr	r3, [r3, #68]
 188 00f8 0322     		movs	r2, #3
 189 00fa 9343     		bics	r3, r2
 190 00fc 0122     		movs	r2, #1
 191 00fe 1A43     		orrs	r2, r3
 192 0100 7B68     		ldr	r3, [r7, #4]
 193 0102 5A64     		str	r2, [r3, #68]
 194 0104 09E0     		b	.L10
 195              	.L7:
 169:cube/Drivers/STM32F0xx_HAL_Driver/Src/stm32f0xx_hal_adc_ex.c ****                       HAL_ADC_STATE_BUSY_INTERNAL,
 170:cube/Drivers/STM32F0xx_HAL_Driver/Src/stm32f0xx_hal_adc_ex.c ****                       HAL_ADC_STATE_READY);
 171:cube/Drivers/STM32F0xx_HAL_Driver/Src/stm32f0xx_hal_adc_ex.c ****   }
 172:cube/Drivers/STM32F0xx_HAL_Driver/Src/stm32f0xx_hal_adc_ex.c ****   else
 173:cube/Drivers/STM32F0xx_HAL_Driver/Src/stm32f0xx_hal_adc_ex.c ****   {
 174:cube/Drivers/STM32F0xx_HAL_Driver/Src/stm32f0xx_hal_adc_ex.c ****     /* Update ADC state machine to error */
 175:cube/Drivers/STM32F0xx_HAL_Driver/Src/stm32f0xx_hal_adc_ex.c ****     SET_BIT(hadc->State, HAL_ADC_STATE_ERROR_CONFIG);
 196              		.loc 1 175 0
 197 0106 7B68     		ldr	r3, [r7, #4]
 198 0108 5B6C     		ldr	r3, [r3, #68]
 199 010a 2022     		movs	r2, #32
 200 010c 1A43     		orrs	r2, r3
 201 010e 7B68     		ldr	r3, [r7, #4]
 202 0110 5A64     		str	r2, [r3, #68]
 176:cube/Drivers/STM32F0xx_HAL_Driver/Src/stm32f0xx_hal_adc_ex.c ****     
 177:cube/Drivers/STM32F0xx_HAL_Driver/Src/stm32f0xx_hal_adc_ex.c ****     tmp_hal_status = HAL_ERROR;
 203              		.loc 1 177 0
 204 0112 1723     		movs	r3, #23
 205 0114 FB18     		adds	r3, r7, r3
 206 0116 0122     		movs	r2, #1
 207 0118 1A70     		strb	r2, [r3]
 208              	.L10:
 178:cube/Drivers/STM32F0xx_HAL_Driver/Src/stm32f0xx_hal_adc_ex.c ****   }
 179:cube/Drivers/STM32F0xx_HAL_Driver/Src/stm32f0xx_hal_adc_ex.c ****   
 180:cube/Drivers/STM32F0xx_HAL_Driver/Src/stm32f0xx_hal_adc_ex.c ****   /* Process unlocked */
 181:cube/Drivers/STM32F0xx_HAL_Driver/Src/stm32f0xx_hal_adc_ex.c ****   __HAL_UNLOCK(hadc);
 209              		.loc 1 181 0
 210 011a 7B68     		ldr	r3, [r7, #4]
 211 011c 4022     		movs	r2, #64
 212 011e 0021     		movs	r1, #0
 213 0120 9954     		strb	r1, [r3, r2]
 182:cube/Drivers/STM32F0xx_HAL_Driver/Src/stm32f0xx_hal_adc_ex.c ****   
 183:cube/Drivers/STM32F0xx_HAL_Driver/Src/stm32f0xx_hal_adc_ex.c ****   /* Return function status */
 184:cube/Drivers/STM32F0xx_HAL_Driver/Src/stm32f0xx_hal_adc_ex.c ****   return tmp_hal_status;
 214              		.loc 1 184 0
 215 0122 1723     		movs	r3, #23
ARM GAS  /tmp/ccOHs00v.s 			page 8


 216 0124 FB18     		adds	r3, r7, r3
 217 0126 1B78     		ldrb	r3, [r3]
 218              	.L3:
 185:cube/Drivers/STM32F0xx_HAL_Driver/Src/stm32f0xx_hal_adc_ex.c **** }
 219              		.loc 1 185 0
 220 0128 1800     		movs	r0, r3
 221 012a BD46     		mov	sp, r7
 222 012c 06B0     		add	sp, sp, #24
 223              		@ sp needed
 224 012e 80BD     		pop	{r7, pc}
 225              	.L12:
 226              		.align	2
 227              	.L11:
 228 0130 FDFEFFFF 		.word	-259
 229              		.cfi_endproc
 230              	.LFE37:
 232              		.text
 233              	.Letext0:
 234              		.file 2 "/home/lhaug/Applications/gcc-arm-none-eabi-7-2018-q2-update/arm-none-eabi/include/machine
 235              		.file 3 "/home/lhaug/Applications/gcc-arm-none-eabi-7-2018-q2-update/arm-none-eabi/include/sys/_st
 236              		.file 4 "cube/Drivers/CMSIS/Device/ST/STM32F0xx/Include/system_stm32f0xx.h"
 237              		.file 5 "cube/Drivers/CMSIS/Device/ST/STM32F0xx/Include/stm32f072xb.h"
 238              		.file 6 "/home/lhaug/Applications/gcc-arm-none-eabi-7-2018-q2-update/arm-none-eabi/include/sys/loc
 239              		.file 7 "/home/lhaug/Applications/gcc-arm-none-eabi-7-2018-q2-update/arm-none-eabi/include/sys/_ty
 240              		.file 8 "/home/lhaug/Applications/gcc-arm-none-eabi-7-2018-q2-update/lib/gcc/arm-none-eabi/7.3.1/i
 241              		.file 9 "/home/lhaug/Applications/gcc-arm-none-eabi-7-2018-q2-update/arm-none-eabi/include/sys/ree
 242              		.file 10 "cube/Drivers/CMSIS/Device/ST/STM32F0xx/Include/stm32f0xx.h"
 243              		.file 11 "cube/Drivers/STM32F0xx_HAL_Driver/Inc/stm32f0xx_hal_def.h"
 244              		.file 12 "cube/Drivers/STM32F0xx_HAL_Driver/Inc/stm32f0xx_hal_dma.h"
 245              		.file 13 "cube/Drivers/STM32F0xx_HAL_Driver/Inc/stm32f0xx_hal_adc.h"
ARM GAS  /tmp/ccOHs00v.s 			page 9

