ARM GAS  /tmp/ccBrkpHW.s 			page 1


   1              		.cpu cortex-m0
   2              		.eabi_attribute 20, 1
   3              		.eabi_attribute 21, 1
   4              		.eabi_attribute 23, 3
   5              		.eabi_attribute 24, 1
   6              		.eabi_attribute 25, 1
   7              		.eabi_attribute 26, 1
   8              		.eabi_attribute 30, 1
   9              		.eabi_attribute 34, 0
  10              		.eabi_attribute 18, 4
  11              		.file	"temp_sensors.c"
  12              		.text
  13              	.Ltext0:
  14              		.cfi_sections	.debug_frame
  15              		.section	.text.temp_sensors_init,"ax",%progbits
  16              		.align	1
  17              		.global	temp_sensors_init
  18              		.syntax unified
  19              		.code	16
  20              		.thumb_func
  21              		.fpu softvfp
  23              	temp_sensors_init:
  24              	.LFB37:
  25              		.file 1 "src/temp_sensors.c"
   1:src/temp_sensors.c **** #include "adc.h"
   2:src/temp_sensors.c **** #include "dma.h"
   3:src/temp_sensors.c **** 
   4:src/temp_sensors.c **** #include "temp_sensors.h"
   5:src/temp_sensors.c **** 
   6:src/temp_sensors.c **** u_int32_t temperature[ADC_CHANNELS] = { 0 };
   7:src/temp_sensors.c **** 
   8:src/temp_sensors.c **** u_int32_t adc_buffer[ADC_BUFFER_SIZE] = { 0 };
   9:src/temp_sensors.c **** 
  10:src/temp_sensors.c **** void temp_sensors_init() {
  26              		.loc 1 10 0
  27              		.cfi_startproc
  28              		@ args = 0, pretend = 0, frame = 0
  29              		@ frame_needed = 0, uses_anonymous_args = 0
  30 0000 10B5     		push	{r4, lr}
  31              		.cfi_def_cfa_offset 8
  32              		.cfi_offset 4, -8
  33              		.cfi_offset 14, -4
  11:src/temp_sensors.c ****     MX_DMA_Init();
  34              		.loc 1 11 0
  35 0002 FFF7FEFF 		bl	MX_DMA_Init
  36              	.LVL0:
  12:src/temp_sensors.c ****     MX_ADC_Init();
  37              		.loc 1 12 0
  38 0006 FFF7FEFF 		bl	MX_ADC_Init
  39              	.LVL1:
  13:src/temp_sensors.c **** 
  14:src/temp_sensors.c ****     HAL_ADC_Start_DMA(&hadc, adc_buffer, ADC_BUFFER_SIZE);
  40              		.loc 1 14 0
  41 000a 8022     		movs	r2, #128
  42 000c 5200     		lsls	r2, r2, #1
  43 000e 0249     		ldr	r1, .L2
  44 0010 0248     		ldr	r0, .L2+4
ARM GAS  /tmp/ccBrkpHW.s 			page 2


  45 0012 FFF7FEFF 		bl	HAL_ADC_Start_DMA
  46              	.LVL2:
  15:src/temp_sensors.c **** }
  47              		.loc 1 15 0
  48              		@ sp needed
  49 0016 10BD     		pop	{r4, pc}
  50              	.L3:
  51              		.align	2
  52              	.L2:
  53 0018 00000000 		.word	adc_buffer
  54 001c 00000000 		.word	hadc
  55              		.cfi_endproc
  56              	.LFE37:
  58              		.section	.text.HAL_ADC_ConvCpltCallback,"ax",%progbits
  59              		.align	1
  60              		.global	HAL_ADC_ConvCpltCallback
  61              		.syntax unified
  62              		.code	16
  63              		.thumb_func
  64              		.fpu softvfp
  66              	HAL_ADC_ConvCpltCallback:
  67              	.LFB38:
  16:src/temp_sensors.c **** 
  17:src/temp_sensors.c **** void HAL_ADC_ConvCpltCallback(ADC_HandleTypeDef* hadc) {
  68              		.loc 1 17 0
  69              		.cfi_startproc
  70              		@ args = 0, pretend = 0, frame = 8
  71              		@ frame_needed = 0, uses_anonymous_args = 0
  72              	.LVL3:
  73 0000 10B5     		push	{r4, lr}
  74              		.cfi_def_cfa_offset 8
  75              		.cfi_offset 4, -8
  76              		.cfi_offset 14, -4
  77 0002 82B0     		sub	sp, sp, #8
  78              		.cfi_def_cfa_offset 16
  18:src/temp_sensors.c ****     u_int32_t val[ADC_CHANNELS] = { 0 };
  79              		.loc 1 18 0
  80 0004 0023     		movs	r3, #0
  81 0006 0193     		str	r3, [sp, #4]
  82              	.LVL4:
  83              	.LBB2:
  19:src/temp_sensors.c **** 
  20:src/temp_sensors.c ****     for (int i = 0; i < ADC_BUFFER_SIZE / ADC_CHANNELS; i++) {
  84              		.loc 1 20 0
  85 0008 0021     		movs	r1, #0
  86 000a 10E0     		b	.L5
  87              	.LVL5:
  88              	.L6:
  89              	.LBB3:
  21:src/temp_sensors.c ****         for (int j = 0; j < ADC_CHANNELS; j++) {
  22:src/temp_sensors.c ****             val[j] += adc_buffer[ADC_CHANNELS * i + j];
  90              		.loc 1 22 0 discriminator 3
  91 000c CA18     		adds	r2, r1, r3
  92 000e 9200     		lsls	r2, r2, #2
  93 0010 1648     		ldr	r0, .L14
  94 0012 1058     		ldr	r0, [r2, r0]
  95 0014 9A00     		lsls	r2, r3, #2
ARM GAS  /tmp/ccBrkpHW.s 			page 3


  96 0016 02AC     		add	r4, sp, #8
  97 0018 A446     		mov	ip, r4
  98 001a 6244     		add	r2, r2, ip
  99 001c 043A     		subs	r2, r2, #4
 100 001e 1468     		ldr	r4, [r2]
 101 0020 A446     		mov	ip, r4
 102 0022 6044     		add	r0, r0, ip
 103 0024 1060     		str	r0, [r2]
  21:src/temp_sensors.c ****         for (int j = 0; j < ADC_CHANNELS; j++) {
 104              		.loc 1 21 0 discriminator 3
 105 0026 0133     		adds	r3, r3, #1
 106              	.LVL6:
 107              	.L7:
  21:src/temp_sensors.c ****         for (int j = 0; j < ADC_CHANNELS; j++) {
 108              		.loc 1 21 0 is_stmt 0 discriminator 1
 109 0028 002B     		cmp	r3, #0
 110 002a EFDD     		ble	.L6
 111              	.LBE3:
  20:src/temp_sensors.c ****         for (int j = 0; j < ADC_CHANNELS; j++) {
 112              		.loc 1 20 0 is_stmt 1 discriminator 2
 113 002c 0131     		adds	r1, r1, #1
 114              	.LVL7:
 115              	.L5:
  20:src/temp_sensors.c ****         for (int j = 0; j < ADC_CHANNELS; j++) {
 116              		.loc 1 20 0 is_stmt 0 discriminator 1
 117 002e FF29     		cmp	r1, #255
 118 0030 01DC     		bgt	.L13
 119              	.LBB4:
  21:src/temp_sensors.c ****         for (int j = 0; j < ADC_CHANNELS; j++) {
 120              		.loc 1 21 0 is_stmt 1
 121 0032 0023     		movs	r3, #0
 122 0034 F8E7     		b	.L7
 123              	.L13:
 124              	.LBE4:
 125              	.LBE2:
 126              	.LBB5:
  23:src/temp_sensors.c ****         }
  24:src/temp_sensors.c ****     }
  25:src/temp_sensors.c **** 
  26:src/temp_sensors.c ****     for (int i = 0; i < ADC_CHANNELS; i++) {
 127              		.loc 1 26 0
 128 0036 0022     		movs	r2, #0
 129 0038 08E0     		b	.L8
 130              	.LVL8:
 131              	.L9:
  27:src/temp_sensors.c ****         val[i] /= ADC_BUFFER_SIZE / ADC_CHANNELS;
 132              		.loc 1 27 0 discriminator 3
 133 003a 9300     		lsls	r3, r2, #2
 134 003c 02A9     		add	r1, sp, #8
 135 003e 8C46     		mov	ip, r1
 136 0040 6344     		add	r3, r3, ip
 137 0042 043B     		subs	r3, r3, #4
 138 0044 1968     		ldr	r1, [r3]
 139 0046 090A     		lsrs	r1, r1, #8
 140 0048 1960     		str	r1, [r3]
  26:src/temp_sensors.c ****         val[i] /= ADC_BUFFER_SIZE / ADC_CHANNELS;
 141              		.loc 1 26 0 discriminator 3
ARM GAS  /tmp/ccBrkpHW.s 			page 4


 142 004a 0132     		adds	r2, r2, #1
 143              	.LVL9:
 144              	.L8:
  26:src/temp_sensors.c ****         val[i] /= ADC_BUFFER_SIZE / ADC_CHANNELS;
 145              		.loc 1 26 0 is_stmt 0 discriminator 1
 146 004c 002A     		cmp	r2, #0
 147 004e F4DD     		ble	.L9
 148              	.LBE5:
 149              	.LBB6:
  28:src/temp_sensors.c ****     }
  29:src/temp_sensors.c **** 
  30:src/temp_sensors.c ****     for (int i = 0; i < ADC_CHANNELS; i++) {
 150              		.loc 1 30 0 is_stmt 1
 151 0050 0023     		movs	r3, #0
 152 0052 07E0     		b	.L10
 153              	.LVL10:
 154              	.L11:
  31:src/temp_sensors.c ****         temperature[i] = val[i];
 155              		.loc 1 31 0 discriminator 3
 156 0054 9900     		lsls	r1, r3, #2
 157 0056 02AA     		add	r2, sp, #8
 158 0058 5218     		adds	r2, r2, r1
 159 005a 043A     		subs	r2, r2, #4
 160 005c 1068     		ldr	r0, [r2]
 161 005e 044A     		ldr	r2, .L14+4
 162 0060 8850     		str	r0, [r1, r2]
  30:src/temp_sensors.c ****         temperature[i] = val[i];
 163              		.loc 1 30 0 discriminator 3
 164 0062 0133     		adds	r3, r3, #1
 165              	.LVL11:
 166              	.L10:
  30:src/temp_sensors.c ****         temperature[i] = val[i];
 167              		.loc 1 30 0 is_stmt 0 discriminator 1
 168 0064 002B     		cmp	r3, #0
 169 0066 F5DD     		ble	.L11
 170              	.LBE6:
  32:src/temp_sensors.c ****     }
  33:src/temp_sensors.c **** }
 171              		.loc 1 33 0 is_stmt 1
 172 0068 02B0     		add	sp, sp, #8
 173              		@ sp needed
 174 006a 10BD     		pop	{r4, pc}
 175              	.L15:
 176              		.align	2
 177              	.L14:
 178 006c 00000000 		.word	adc_buffer
 179 0070 00000000 		.word	.LANCHOR0
 180              		.cfi_endproc
 181              	.LFE38:
 183              		.global	adc_buffer
 184              		.global	temperature
 185              		.section	.bss.adc_buffer,"aw",%nobits
 186              		.align	2
 189              	adc_buffer:
 190 0000 00000000 		.space	1024
 190      00000000 
 190      00000000 
ARM GAS  /tmp/ccBrkpHW.s 			page 5


 190      00000000 
 190      00000000 
 191              		.section	.bss.temperature,"aw",%nobits
 192              		.align	2
 193              		.set	.LANCHOR0,. + 0
 196              	temperature:
 197 0000 00000000 		.space	4
 198              		.text
 199              	.Letext0:
 200              		.file 2 "/home/lhaug/Applications/gcc-arm-none-eabi-7-2018-q2-update/arm-none-eabi/include/machine
 201              		.file 3 "/home/lhaug/Applications/gcc-arm-none-eabi-7-2018-q2-update/arm-none-eabi/include/sys/_st
 202              		.file 4 "cube/Drivers/CMSIS/Device/ST/STM32F0xx/Include/system_stm32f0xx.h"
 203              		.file 5 "cube/Drivers/CMSIS/Device/ST/STM32F0xx/Include/stm32f072xb.h"
 204              		.file 6 "/home/lhaug/Applications/gcc-arm-none-eabi-7-2018-q2-update/arm-none-eabi/include/sys/loc
 205              		.file 7 "/home/lhaug/Applications/gcc-arm-none-eabi-7-2018-q2-update/arm-none-eabi/include/sys/_ty
 206              		.file 8 "/home/lhaug/Applications/gcc-arm-none-eabi-7-2018-q2-update/lib/gcc/arm-none-eabi/7.3.1/i
 207              		.file 9 "/home/lhaug/Applications/gcc-arm-none-eabi-7-2018-q2-update/arm-none-eabi/include/sys/ree
 208              		.file 10 "/home/lhaug/Applications/gcc-arm-none-eabi-7-2018-q2-update/arm-none-eabi/include/sys/ty
 209              		.file 11 "cube/Drivers/STM32F0xx_HAL_Driver/Inc/stm32f0xx_hal_def.h"
 210              		.file 12 "cube/Drivers/STM32F0xx_HAL_Driver/Inc/stm32f0xx_hal_dma.h"
 211              		.file 13 "cube/Drivers/STM32F0xx_HAL_Driver/Inc/stm32f0xx_hal_adc.h"
 212              		.file 14 "cube/Inc/adc.h"
 213              		.file 15 "cube/Inc/dma.h"
ARM GAS  /tmp/ccBrkpHW.s 			page 6

