ARM GAS  /tmp/cc4lCQFX.s 			page 1


   1              		.cpu cortex-m0
   2              		.eabi_attribute 20, 1
   3              		.eabi_attribute 21, 1
   4              		.eabi_attribute 23, 3
   5              		.eabi_attribute 24, 1
   6              		.eabi_attribute 25, 1
   7              		.eabi_attribute 26, 1
   8              		.eabi_attribute 30, 6
   9              		.eabi_attribute 34, 0
  10              		.eabi_attribute 18, 4
  11              		.file	"tim.c"
  12              		.text
  13              	.Ltext0:
  14              		.cfi_sections	.debug_frame
  15              		.comm	htim1,64,4
  16              		.section	.rodata
  17              		.align	2
  18              	.LC1:
  19 0000 63756265 		.ascii	"cube/Src/tim.c\000"
  19      2F537263 
  19      2F74696D 
  19      2E6300
  20              		.section	.text.MX_TIM1_Init,"ax",%progbits
  21              		.align	1
  22              		.global	MX_TIM1_Init
  23              		.syntax unified
  24              		.code	16
  25              		.thumb_func
  26              		.fpu softvfp
  28              	MX_TIM1_Init:
  29              	.LFB37:
  30              		.file 1 "cube/Src/tim.c"
   1:cube/Src/tim.c **** /**
   2:cube/Src/tim.c ****   ******************************************************************************
   3:cube/Src/tim.c ****   * File Name          : TIM.c
   4:cube/Src/tim.c ****   * Description        : This file provides code for the configuration
   5:cube/Src/tim.c ****   *                      of the TIM instances.
   6:cube/Src/tim.c ****   ******************************************************************************
   7:cube/Src/tim.c ****   ** This notice applies to any and all portions of this file
   8:cube/Src/tim.c ****   * that are not between comment pairs USER CODE BEGIN and
   9:cube/Src/tim.c ****   * USER CODE END. Other portions of this file, whether 
  10:cube/Src/tim.c ****   * inserted by the user or by software development tools
  11:cube/Src/tim.c ****   * are owned by their respective copyright owners.
  12:cube/Src/tim.c ****   *
  13:cube/Src/tim.c ****   * COPYRIGHT(c) 2018 STMicroelectronics
  14:cube/Src/tim.c ****   *
  15:cube/Src/tim.c ****   * Redistribution and use in source and binary forms, with or without modification,
  16:cube/Src/tim.c ****   * are permitted provided that the following conditions are met:
  17:cube/Src/tim.c ****   *   1. Redistributions of source code must retain the above copyright notice,
  18:cube/Src/tim.c ****   *      this list of conditions and the following disclaimer.
  19:cube/Src/tim.c ****   *   2. Redistributions in binary form must reproduce the above copyright notice,
  20:cube/Src/tim.c ****   *      this list of conditions and the following disclaimer in the documentation
  21:cube/Src/tim.c ****   *      and/or other materials provided with the distribution.
  22:cube/Src/tim.c ****   *   3. Neither the name of STMicroelectronics nor the names of its contributors
  23:cube/Src/tim.c ****   *      may be used to endorse or promote products derived from this software
  24:cube/Src/tim.c ****   *      without specific prior written permission.
  25:cube/Src/tim.c ****   *
ARM GAS  /tmp/cc4lCQFX.s 			page 2


  26:cube/Src/tim.c ****   * THIS SOFTWARE IS PROVIDED BY THE COPYRIGHT HOLDERS AND CONTRIBUTORS "AS IS"
  27:cube/Src/tim.c ****   * AND ANY EXPRESS OR IMPLIED WARRANTIES, INCLUDING, BUT NOT LIMITED TO, THE
  28:cube/Src/tim.c ****   * IMPLIED WARRANTIES OF MERCHANTABILITY AND FITNESS FOR A PARTICULAR PURPOSE ARE
  29:cube/Src/tim.c ****   * DISCLAIMED. IN NO EVENT SHALL THE COPYRIGHT HOLDER OR CONTRIBUTORS BE LIABLE
  30:cube/Src/tim.c ****   * FOR ANY DIRECT, INDIRECT, INCIDENTAL, SPECIAL, EXEMPLARY, OR CONSEQUENTIAL
  31:cube/Src/tim.c ****   * DAMAGES (INCLUDING, BUT NOT LIMITED TO, PROCUREMENT OF SUBSTITUTE GOODS OR
  32:cube/Src/tim.c ****   * SERVICES; LOSS OF USE, DATA, OR PROFITS; OR BUSINESS INTERRUPTION) HOWEVER
  33:cube/Src/tim.c ****   * CAUSED AND ON ANY THEORY OF LIABILITY, WHETHER IN CONTRACT, STRICT LIABILITY,
  34:cube/Src/tim.c ****   * OR TORT (INCLUDING NEGLIGENCE OR OTHERWISE) ARISING IN ANY WAY OUT OF THE USE
  35:cube/Src/tim.c ****   * OF THIS SOFTWARE, EVEN IF ADVISED OF THE POSSIBILITY OF SUCH DAMAGE.
  36:cube/Src/tim.c ****   *
  37:cube/Src/tim.c ****   ******************************************************************************
  38:cube/Src/tim.c ****   */
  39:cube/Src/tim.c **** 
  40:cube/Src/tim.c **** /* Includes ------------------------------------------------------------------*/
  41:cube/Src/tim.c **** #include "tim.h"
  42:cube/Src/tim.c **** 
  43:cube/Src/tim.c **** /* USER CODE BEGIN 0 */
  44:cube/Src/tim.c **** 
  45:cube/Src/tim.c **** /* USER CODE END 0 */
  46:cube/Src/tim.c **** 
  47:cube/Src/tim.c **** TIM_HandleTypeDef htim1;
  48:cube/Src/tim.c **** 
  49:cube/Src/tim.c **** /* TIM1 init function */
  50:cube/Src/tim.c **** void MX_TIM1_Init(void)
  51:cube/Src/tim.c **** {
  31              		.loc 1 51 0
  32              		.cfi_startproc
  33              		@ args = 0, pretend = 0, frame = 64
  34              		@ frame_needed = 1, uses_anonymous_args = 0
  35 0000 80B5     		push	{r7, lr}
  36              		.cfi_def_cfa_offset 8
  37              		.cfi_offset 7, -8
  38              		.cfi_offset 14, -4
  39 0002 90B0     		sub	sp, sp, #64
  40              		.cfi_def_cfa_offset 72
  41 0004 00AF     		add	r7, sp, #0
  42              		.cfi_def_cfa_register 7
  52:cube/Src/tim.c ****   TIM_MasterConfigTypeDef sMasterConfig;
  53:cube/Src/tim.c ****   TIM_OC_InitTypeDef sConfigOC;
  54:cube/Src/tim.c ****   TIM_BreakDeadTimeConfigTypeDef sBreakDeadTimeConfig;
  55:cube/Src/tim.c **** 
  56:cube/Src/tim.c ****   htim1.Instance = TIM1;
  43              		.loc 1 56 0
  44 0006 4A4B     		ldr	r3, .L7
  45 0008 4A4A     		ldr	r2, .L7+4
  46 000a 1A60     		str	r2, [r3]
  57:cube/Src/tim.c ****   htim1.Init.Prescaler = 47;
  47              		.loc 1 57 0
  48 000c 484B     		ldr	r3, .L7
  49 000e 2F22     		movs	r2, #47
  50 0010 5A60     		str	r2, [r3, #4]
  58:cube/Src/tim.c ****   htim1.Init.CounterMode = TIM_COUNTERMODE_UP;
  51              		.loc 1 58 0
  52 0012 474B     		ldr	r3, .L7
  53 0014 0022     		movs	r2, #0
  54 0016 9A60     		str	r2, [r3, #8]
ARM GAS  /tmp/cc4lCQFX.s 			page 3


  59:cube/Src/tim.c ****   htim1.Init.Period = 1000;
  55              		.loc 1 59 0
  56 0018 454B     		ldr	r3, .L7
  57 001a FA22     		movs	r2, #250
  58 001c 9200     		lsls	r2, r2, #2
  59 001e DA60     		str	r2, [r3, #12]
  60:cube/Src/tim.c ****   htim1.Init.ClockDivision = TIM_CLOCKDIVISION_DIV1;
  60              		.loc 1 60 0
  61 0020 434B     		ldr	r3, .L7
  62 0022 0022     		movs	r2, #0
  63 0024 1A61     		str	r2, [r3, #16]
  61:cube/Src/tim.c ****   htim1.Init.RepetitionCounter = 0;
  64              		.loc 1 61 0
  65 0026 424B     		ldr	r3, .L7
  66 0028 0022     		movs	r2, #0
  67 002a 5A61     		str	r2, [r3, #20]
  62:cube/Src/tim.c ****   htim1.Init.AutoReloadPreload = TIM_AUTORELOAD_PRELOAD_DISABLE;
  68              		.loc 1 62 0
  69 002c 404B     		ldr	r3, .L7
  70 002e 0022     		movs	r2, #0
  71 0030 9A61     		str	r2, [r3, #24]
  63:cube/Src/tim.c ****   if (HAL_TIM_PWM_Init(&htim1) != HAL_OK)
  72              		.loc 1 63 0
  73 0032 3F4B     		ldr	r3, .L7
  74 0034 1800     		movs	r0, r3
  75 0036 FFF7FEFF 		bl	HAL_TIM_PWM_Init
  76 003a 031E     		subs	r3, r0, #0
  77 003c 04D0     		beq	.L2
  64:cube/Src/tim.c ****   {
  65:cube/Src/tim.c ****     _Error_Handler(__FILE__, __LINE__);
  78              		.loc 1 65 0
  79 003e 3E4B     		ldr	r3, .L7+8
  80 0040 4121     		movs	r1, #65
  81 0042 1800     		movs	r0, r3
  82 0044 FFF7FEFF 		bl	_Error_Handler
  83              	.L2:
  66:cube/Src/tim.c ****   }
  67:cube/Src/tim.c **** 
  68:cube/Src/tim.c ****   sMasterConfig.MasterOutputTrigger = TIM_TRGO_RESET;
  84              		.loc 1 68 0
  85 0048 3821     		movs	r1, #56
  86 004a 7B18     		adds	r3, r7, r1
  87 004c 0022     		movs	r2, #0
  88 004e 1A60     		str	r2, [r3]
  69:cube/Src/tim.c ****   sMasterConfig.MasterSlaveMode = TIM_MASTERSLAVEMODE_DISABLE;
  89              		.loc 1 69 0
  90 0050 7B18     		adds	r3, r7, r1
  91 0052 0022     		movs	r2, #0
  92 0054 5A60     		str	r2, [r3, #4]
  70:cube/Src/tim.c ****   if (HAL_TIMEx_MasterConfigSynchronization(&htim1, &sMasterConfig) != HAL_OK)
  93              		.loc 1 70 0
  94 0056 7A18     		adds	r2, r7, r1
  95 0058 354B     		ldr	r3, .L7
  96 005a 1100     		movs	r1, r2
  97 005c 1800     		movs	r0, r3
  98 005e FFF7FEFF 		bl	HAL_TIMEx_MasterConfigSynchronization
  99 0062 031E     		subs	r3, r0, #0
ARM GAS  /tmp/cc4lCQFX.s 			page 4


 100 0064 04D0     		beq	.L3
  71:cube/Src/tim.c ****   {
  72:cube/Src/tim.c ****     _Error_Handler(__FILE__, __LINE__);
 101              		.loc 1 72 0
 102 0066 344B     		ldr	r3, .L7+8
 103 0068 4821     		movs	r1, #72
 104 006a 1800     		movs	r0, r3
 105 006c FFF7FEFF 		bl	_Error_Handler
 106              	.L3:
  73:cube/Src/tim.c ****   }
  74:cube/Src/tim.c **** 
  75:cube/Src/tim.c ****   sConfigOC.OCMode = TIM_OCMODE_PWM1;
 107              		.loc 1 75 0
 108 0070 1C21     		movs	r1, #28
 109 0072 7B18     		adds	r3, r7, r1
 110 0074 6022     		movs	r2, #96
 111 0076 1A60     		str	r2, [r3]
  76:cube/Src/tim.c ****   sConfigOC.Pulse = 0;
 112              		.loc 1 76 0
 113 0078 7B18     		adds	r3, r7, r1
 114 007a 0022     		movs	r2, #0
 115 007c 5A60     		str	r2, [r3, #4]
  77:cube/Src/tim.c ****   sConfigOC.OCPolarity = TIM_OCPOLARITY_HIGH;
 116              		.loc 1 77 0
 117 007e 7B18     		adds	r3, r7, r1
 118 0080 0022     		movs	r2, #0
 119 0082 9A60     		str	r2, [r3, #8]
  78:cube/Src/tim.c ****   sConfigOC.OCNPolarity = TIM_OCNPOLARITY_HIGH;
 120              		.loc 1 78 0
 121 0084 7B18     		adds	r3, r7, r1
 122 0086 0022     		movs	r2, #0
 123 0088 DA60     		str	r2, [r3, #12]
  79:cube/Src/tim.c ****   sConfigOC.OCFastMode = TIM_OCFAST_DISABLE;
 124              		.loc 1 79 0
 125 008a 7B18     		adds	r3, r7, r1
 126 008c 0022     		movs	r2, #0
 127 008e 1A61     		str	r2, [r3, #16]
  80:cube/Src/tim.c ****   sConfigOC.OCIdleState = TIM_OCIDLESTATE_RESET;
 128              		.loc 1 80 0
 129 0090 7B18     		adds	r3, r7, r1
 130 0092 0022     		movs	r2, #0
 131 0094 5A61     		str	r2, [r3, #20]
  81:cube/Src/tim.c ****   sConfigOC.OCNIdleState = TIM_OCNIDLESTATE_RESET;
 132              		.loc 1 81 0
 133 0096 7B18     		adds	r3, r7, r1
 134 0098 0022     		movs	r2, #0
 135 009a 9A61     		str	r2, [r3, #24]
  82:cube/Src/tim.c ****   if (HAL_TIM_PWM_ConfigChannel(&htim1, &sConfigOC, TIM_CHANNEL_1) != HAL_OK)
 136              		.loc 1 82 0
 137 009c 7918     		adds	r1, r7, r1
 138 009e 244B     		ldr	r3, .L7
 139 00a0 0022     		movs	r2, #0
 140 00a2 1800     		movs	r0, r3
 141 00a4 FFF7FEFF 		bl	HAL_TIM_PWM_ConfigChannel
 142 00a8 031E     		subs	r3, r0, #0
 143 00aa 04D0     		beq	.L4
  83:cube/Src/tim.c ****   {
ARM GAS  /tmp/cc4lCQFX.s 			page 5


  84:cube/Src/tim.c ****     _Error_Handler(__FILE__, __LINE__);
 144              		.loc 1 84 0
 145 00ac 224B     		ldr	r3, .L7+8
 146 00ae 5421     		movs	r1, #84
 147 00b0 1800     		movs	r0, r3
 148 00b2 FFF7FEFF 		bl	_Error_Handler
 149              	.L4:
  85:cube/Src/tim.c ****   }
  86:cube/Src/tim.c **** 
  87:cube/Src/tim.c ****   sConfigOC.OCFastMode = TIM_OCFAST_ENABLE;
 150              		.loc 1 87 0
 151 00b6 1C21     		movs	r1, #28
 152 00b8 7B18     		adds	r3, r7, r1
 153 00ba 0422     		movs	r2, #4
 154 00bc 1A61     		str	r2, [r3, #16]
  88:cube/Src/tim.c ****   if (HAL_TIM_PWM_ConfigChannel(&htim1, &sConfigOC, TIM_CHANNEL_2) != HAL_OK)
 155              		.loc 1 88 0
 156 00be 7918     		adds	r1, r7, r1
 157 00c0 1B4B     		ldr	r3, .L7
 158 00c2 0422     		movs	r2, #4
 159 00c4 1800     		movs	r0, r3
 160 00c6 FFF7FEFF 		bl	HAL_TIM_PWM_ConfigChannel
 161 00ca 031E     		subs	r3, r0, #0
 162 00cc 04D0     		beq	.L5
  89:cube/Src/tim.c ****   {
  90:cube/Src/tim.c ****     _Error_Handler(__FILE__, __LINE__);
 163              		.loc 1 90 0
 164 00ce 1A4B     		ldr	r3, .L7+8
 165 00d0 5A21     		movs	r1, #90
 166 00d2 1800     		movs	r0, r3
 167 00d4 FFF7FEFF 		bl	_Error_Handler
 168              	.L5:
  91:cube/Src/tim.c ****   }
  92:cube/Src/tim.c **** 
  93:cube/Src/tim.c ****   sBreakDeadTimeConfig.OffStateRunMode = TIM_OSSR_DISABLE;
 169              		.loc 1 93 0
 170 00d8 3B00     		movs	r3, r7
 171 00da 0022     		movs	r2, #0
 172 00dc 1A60     		str	r2, [r3]
  94:cube/Src/tim.c ****   sBreakDeadTimeConfig.OffStateIDLEMode = TIM_OSSI_DISABLE;
 173              		.loc 1 94 0
 174 00de 3B00     		movs	r3, r7
 175 00e0 0022     		movs	r2, #0
 176 00e2 5A60     		str	r2, [r3, #4]
  95:cube/Src/tim.c ****   sBreakDeadTimeConfig.LockLevel = TIM_LOCKLEVEL_OFF;
 177              		.loc 1 95 0
 178 00e4 3B00     		movs	r3, r7
 179 00e6 0022     		movs	r2, #0
 180 00e8 9A60     		str	r2, [r3, #8]
  96:cube/Src/tim.c ****   sBreakDeadTimeConfig.DeadTime = 0;
 181              		.loc 1 96 0
 182 00ea 3B00     		movs	r3, r7
 183 00ec 0022     		movs	r2, #0
 184 00ee DA60     		str	r2, [r3, #12]
  97:cube/Src/tim.c ****   sBreakDeadTimeConfig.BreakState = TIM_BREAK_DISABLE;
 185              		.loc 1 97 0
 186 00f0 3B00     		movs	r3, r7
ARM GAS  /tmp/cc4lCQFX.s 			page 6


 187 00f2 0022     		movs	r2, #0
 188 00f4 1A61     		str	r2, [r3, #16]
  98:cube/Src/tim.c ****   sBreakDeadTimeConfig.BreakPolarity = TIM_BREAKPOLARITY_HIGH;
 189              		.loc 1 98 0
 190 00f6 3B00     		movs	r3, r7
 191 00f8 8022     		movs	r2, #128
 192 00fa 9201     		lsls	r2, r2, #6
 193 00fc 5A61     		str	r2, [r3, #20]
  99:cube/Src/tim.c ****   sBreakDeadTimeConfig.AutomaticOutput = TIM_AUTOMATICOUTPUT_DISABLE;
 194              		.loc 1 99 0
 195 00fe 3B00     		movs	r3, r7
 196 0100 0022     		movs	r2, #0
 197 0102 9A61     		str	r2, [r3, #24]
 100:cube/Src/tim.c ****   if (HAL_TIMEx_ConfigBreakDeadTime(&htim1, &sBreakDeadTimeConfig) != HAL_OK)
 198              		.loc 1 100 0
 199 0104 3A00     		movs	r2, r7
 200 0106 0A4B     		ldr	r3, .L7
 201 0108 1100     		movs	r1, r2
 202 010a 1800     		movs	r0, r3
 203 010c FFF7FEFF 		bl	HAL_TIMEx_ConfigBreakDeadTime
 204 0110 031E     		subs	r3, r0, #0
 205 0112 04D0     		beq	.L6
 101:cube/Src/tim.c ****   {
 102:cube/Src/tim.c ****     _Error_Handler(__FILE__, __LINE__);
 206              		.loc 1 102 0
 207 0114 084B     		ldr	r3, .L7+8
 208 0116 6621     		movs	r1, #102
 209 0118 1800     		movs	r0, r3
 210 011a FFF7FEFF 		bl	_Error_Handler
 211              	.L6:
 103:cube/Src/tim.c ****   }
 104:cube/Src/tim.c **** 
 105:cube/Src/tim.c ****   HAL_TIM_MspPostInit(&htim1);
 212              		.loc 1 105 0
 213 011e 044B     		ldr	r3, .L7
 214 0120 1800     		movs	r0, r3
 215 0122 FFF7FEFF 		bl	HAL_TIM_MspPostInit
 106:cube/Src/tim.c **** 
 107:cube/Src/tim.c **** }
 216              		.loc 1 107 0
 217 0126 C046     		nop
 218 0128 BD46     		mov	sp, r7
 219 012a 10B0     		add	sp, sp, #64
 220              		@ sp needed
 221 012c 80BD     		pop	{r7, pc}
 222              	.L8:
 223 012e C046     		.align	2
 224              	.L7:
 225 0130 00000000 		.word	htim1
 226 0134 002C0140 		.word	1073818624
 227 0138 00000000 		.word	.LC1
 228              		.cfi_endproc
 229              	.LFE37:
 231              		.section	.text.HAL_TIM_PWM_MspInit,"ax",%progbits
 232              		.align	1
 233              		.global	HAL_TIM_PWM_MspInit
 234              		.syntax unified
ARM GAS  /tmp/cc4lCQFX.s 			page 7


 235              		.code	16
 236              		.thumb_func
 237              		.fpu softvfp
 239              	HAL_TIM_PWM_MspInit:
 240              	.LFB38:
 108:cube/Src/tim.c **** 
 109:cube/Src/tim.c **** void HAL_TIM_PWM_MspInit(TIM_HandleTypeDef* tim_pwmHandle)
 110:cube/Src/tim.c **** {
 241              		.loc 1 110 0
 242              		.cfi_startproc
 243              		@ args = 0, pretend = 0, frame = 16
 244              		@ frame_needed = 1, uses_anonymous_args = 0
 245 0000 80B5     		push	{r7, lr}
 246              		.cfi_def_cfa_offset 8
 247              		.cfi_offset 7, -8
 248              		.cfi_offset 14, -4
 249 0002 84B0     		sub	sp, sp, #16
 250              		.cfi_def_cfa_offset 24
 251 0004 00AF     		add	r7, sp, #0
 252              		.cfi_def_cfa_register 7
 253 0006 7860     		str	r0, [r7, #4]
 111:cube/Src/tim.c **** 
 112:cube/Src/tim.c ****   if(tim_pwmHandle->Instance==TIM1)
 254              		.loc 1 112 0
 255 0008 7B68     		ldr	r3, [r7, #4]
 256 000a 1B68     		ldr	r3, [r3]
 257 000c 0A4A     		ldr	r2, .L12
 258 000e 9342     		cmp	r3, r2
 259 0010 0DD1     		bne	.L11
 260              	.LBB2:
 113:cube/Src/tim.c ****   {
 114:cube/Src/tim.c ****   /* USER CODE BEGIN TIM1_MspInit 0 */
 115:cube/Src/tim.c **** 
 116:cube/Src/tim.c ****   /* USER CODE END TIM1_MspInit 0 */
 117:cube/Src/tim.c ****     /* TIM1 clock enable */
 118:cube/Src/tim.c ****     __HAL_RCC_TIM1_CLK_ENABLE();
 261              		.loc 1 118 0
 262 0012 0A4B     		ldr	r3, .L12+4
 263 0014 9A69     		ldr	r2, [r3, #24]
 264 0016 094B     		ldr	r3, .L12+4
 265 0018 8021     		movs	r1, #128
 266 001a 0901     		lsls	r1, r1, #4
 267 001c 0A43     		orrs	r2, r1
 268 001e 9A61     		str	r2, [r3, #24]
 269 0020 064B     		ldr	r3, .L12+4
 270 0022 9A69     		ldr	r2, [r3, #24]
 271 0024 8023     		movs	r3, #128
 272 0026 1B01     		lsls	r3, r3, #4
 273 0028 1340     		ands	r3, r2
 274 002a FB60     		str	r3, [r7, #12]
 275 002c FB68     		ldr	r3, [r7, #12]
 276              	.L11:
 277              	.LBE2:
 119:cube/Src/tim.c ****   /* USER CODE BEGIN TIM1_MspInit 1 */
 120:cube/Src/tim.c **** 
 121:cube/Src/tim.c ****   /* USER CODE END TIM1_MspInit 1 */
 122:cube/Src/tim.c ****   }
ARM GAS  /tmp/cc4lCQFX.s 			page 8


 123:cube/Src/tim.c **** }
 278              		.loc 1 123 0
 279 002e C046     		nop
 280 0030 BD46     		mov	sp, r7
 281 0032 04B0     		add	sp, sp, #16
 282              		@ sp needed
 283 0034 80BD     		pop	{r7, pc}
 284              	.L13:
 285 0036 C046     		.align	2
 286              	.L12:
 287 0038 002C0140 		.word	1073818624
 288 003c 00100240 		.word	1073876992
 289              		.cfi_endproc
 290              	.LFE38:
 292              		.section	.text.HAL_TIM_MspPostInit,"ax",%progbits
 293              		.align	1
 294              		.global	HAL_TIM_MspPostInit
 295              		.syntax unified
 296              		.code	16
 297              		.thumb_func
 298              		.fpu softvfp
 300              	HAL_TIM_MspPostInit:
 301              	.LFB39:
 124:cube/Src/tim.c **** void HAL_TIM_MspPostInit(TIM_HandleTypeDef* timHandle)
 125:cube/Src/tim.c **** {
 302              		.loc 1 125 0
 303              		.cfi_startproc
 304              		@ args = 0, pretend = 0, frame = 32
 305              		@ frame_needed = 1, uses_anonymous_args = 0
 306 0000 90B5     		push	{r4, r7, lr}
 307              		.cfi_def_cfa_offset 12
 308              		.cfi_offset 4, -12
 309              		.cfi_offset 7, -8
 310              		.cfi_offset 14, -4
 311 0002 89B0     		sub	sp, sp, #36
 312              		.cfi_def_cfa_offset 48
 313 0004 00AF     		add	r7, sp, #0
 314              		.cfi_def_cfa_register 7
 315 0006 7860     		str	r0, [r7, #4]
 126:cube/Src/tim.c **** 
 127:cube/Src/tim.c ****   GPIO_InitTypeDef GPIO_InitStruct;
 128:cube/Src/tim.c ****   if(timHandle->Instance==TIM1)
 316              		.loc 1 128 0
 317 0008 7B68     		ldr	r3, [r7, #4]
 318 000a 1B68     		ldr	r3, [r3]
 319 000c 1B4A     		ldr	r2, .L17
 320 000e 9342     		cmp	r3, r2
 321 0010 30D1     		bne	.L16
 129:cube/Src/tim.c ****   {
 130:cube/Src/tim.c ****   /* USER CODE BEGIN TIM1_MspPostInit 0 */
 131:cube/Src/tim.c **** 
 132:cube/Src/tim.c ****   /* USER CODE END TIM1_MspPostInit 0 */
 133:cube/Src/tim.c ****   
 134:cube/Src/tim.c ****     /**TIM1 GPIO Configuration    
 135:cube/Src/tim.c ****     PA8     ------> TIM1_CH1
 136:cube/Src/tim.c ****     PA9     ------> TIM1_CH2 
 137:cube/Src/tim.c ****     */
ARM GAS  /tmp/cc4lCQFX.s 			page 9


 138:cube/Src/tim.c ****     GPIO_InitStruct.Pin = GPIO_PIN_8;
 322              		.loc 1 138 0
 323 0012 0C21     		movs	r1, #12
 324 0014 7B18     		adds	r3, r7, r1
 325 0016 8022     		movs	r2, #128
 326 0018 5200     		lsls	r2, r2, #1
 327 001a 1A60     		str	r2, [r3]
 139:cube/Src/tim.c ****     GPIO_InitStruct.Mode = GPIO_MODE_AF_PP;
 328              		.loc 1 139 0
 329 001c 7B18     		adds	r3, r7, r1
 330 001e 0222     		movs	r2, #2
 331 0020 5A60     		str	r2, [r3, #4]
 140:cube/Src/tim.c ****     GPIO_InitStruct.Pull = GPIO_NOPULL;
 332              		.loc 1 140 0
 333 0022 7B18     		adds	r3, r7, r1
 334 0024 0022     		movs	r2, #0
 335 0026 9A60     		str	r2, [r3, #8]
 141:cube/Src/tim.c ****     GPIO_InitStruct.Speed = GPIO_SPEED_FREQ_LOW;
 336              		.loc 1 141 0
 337 0028 7B18     		adds	r3, r7, r1
 338 002a 0022     		movs	r2, #0
 339 002c DA60     		str	r2, [r3, #12]
 142:cube/Src/tim.c ****     GPIO_InitStruct.Alternate = GPIO_AF2_TIM1;
 340              		.loc 1 142 0
 341 002e 7B18     		adds	r3, r7, r1
 342 0030 0222     		movs	r2, #2
 343 0032 1A61     		str	r2, [r3, #16]
 143:cube/Src/tim.c ****     HAL_GPIO_Init(GPIOA, &GPIO_InitStruct);
 344              		.loc 1 143 0
 345 0034 0C00     		movs	r4, r1
 346 0036 7A18     		adds	r2, r7, r1
 347 0038 9023     		movs	r3, #144
 348 003a DB05     		lsls	r3, r3, #23
 349 003c 1100     		movs	r1, r2
 350 003e 1800     		movs	r0, r3
 351 0040 FFF7FEFF 		bl	HAL_GPIO_Init
 144:cube/Src/tim.c **** 
 145:cube/Src/tim.c ****     GPIO_InitStruct.Pin = GPIO_PIN_9;
 352              		.loc 1 145 0
 353 0044 2100     		movs	r1, r4
 354 0046 7B18     		adds	r3, r7, r1
 355 0048 8022     		movs	r2, #128
 356 004a 9200     		lsls	r2, r2, #2
 357 004c 1A60     		str	r2, [r3]
 146:cube/Src/tim.c ****     GPIO_InitStruct.Mode = GPIO_MODE_AF_PP;
 358              		.loc 1 146 0
 359 004e 7B18     		adds	r3, r7, r1
 360 0050 0222     		movs	r2, #2
 361 0052 5A60     		str	r2, [r3, #4]
 147:cube/Src/tim.c ****     GPIO_InitStruct.Pull = GPIO_PULLDOWN;
 362              		.loc 1 147 0
 363 0054 7B18     		adds	r3, r7, r1
 364 0056 0222     		movs	r2, #2
 365 0058 9A60     		str	r2, [r3, #8]
 148:cube/Src/tim.c ****     GPIO_InitStruct.Speed = GPIO_SPEED_FREQ_LOW;
 366              		.loc 1 148 0
 367 005a 7B18     		adds	r3, r7, r1
ARM GAS  /tmp/cc4lCQFX.s 			page 10


 368 005c 0022     		movs	r2, #0
 369 005e DA60     		str	r2, [r3, #12]
 149:cube/Src/tim.c ****     GPIO_InitStruct.Alternate = GPIO_AF2_TIM1;
 370              		.loc 1 149 0
 371 0060 7B18     		adds	r3, r7, r1
 372 0062 0222     		movs	r2, #2
 373 0064 1A61     		str	r2, [r3, #16]
 150:cube/Src/tim.c ****     HAL_GPIO_Init(GPIOA, &GPIO_InitStruct);
 374              		.loc 1 150 0
 375 0066 7A18     		adds	r2, r7, r1
 376 0068 9023     		movs	r3, #144
 377 006a DB05     		lsls	r3, r3, #23
 378 006c 1100     		movs	r1, r2
 379 006e 1800     		movs	r0, r3
 380 0070 FFF7FEFF 		bl	HAL_GPIO_Init
 381              	.L16:
 151:cube/Src/tim.c **** 
 152:cube/Src/tim.c ****   /* USER CODE BEGIN TIM1_MspPostInit 1 */
 153:cube/Src/tim.c **** 
 154:cube/Src/tim.c ****   /* USER CODE END TIM1_MspPostInit 1 */
 155:cube/Src/tim.c ****   }
 156:cube/Src/tim.c **** 
 157:cube/Src/tim.c **** }
 382              		.loc 1 157 0
 383 0074 C046     		nop
 384 0076 BD46     		mov	sp, r7
 385 0078 09B0     		add	sp, sp, #36
 386              		@ sp needed
 387 007a 90BD     		pop	{r4, r7, pc}
 388              	.L18:
 389              		.align	2
 390              	.L17:
 391 007c 002C0140 		.word	1073818624
 392              		.cfi_endproc
 393              	.LFE39:
 395              		.section	.text.HAL_TIM_PWM_MspDeInit,"ax",%progbits
 396              		.align	1
 397              		.global	HAL_TIM_PWM_MspDeInit
 398              		.syntax unified
 399              		.code	16
 400              		.thumb_func
 401              		.fpu softvfp
 403              	HAL_TIM_PWM_MspDeInit:
 404              	.LFB40:
 158:cube/Src/tim.c **** 
 159:cube/Src/tim.c **** void HAL_TIM_PWM_MspDeInit(TIM_HandleTypeDef* tim_pwmHandle)
 160:cube/Src/tim.c **** {
 405              		.loc 1 160 0
 406              		.cfi_startproc
 407              		@ args = 0, pretend = 0, frame = 8
 408              		@ frame_needed = 1, uses_anonymous_args = 0
 409 0000 80B5     		push	{r7, lr}
 410              		.cfi_def_cfa_offset 8
 411              		.cfi_offset 7, -8
 412              		.cfi_offset 14, -4
 413 0002 82B0     		sub	sp, sp, #8
 414              		.cfi_def_cfa_offset 16
ARM GAS  /tmp/cc4lCQFX.s 			page 11


 415 0004 00AF     		add	r7, sp, #0
 416              		.cfi_def_cfa_register 7
 417 0006 7860     		str	r0, [r7, #4]
 161:cube/Src/tim.c **** 
 162:cube/Src/tim.c ****   if(tim_pwmHandle->Instance==TIM1)
 418              		.loc 1 162 0
 419 0008 7B68     		ldr	r3, [r7, #4]
 420 000a 1B68     		ldr	r3, [r3]
 421 000c 064A     		ldr	r2, .L22
 422 000e 9342     		cmp	r3, r2
 423 0010 05D1     		bne	.L21
 163:cube/Src/tim.c ****   {
 164:cube/Src/tim.c ****   /* USER CODE BEGIN TIM1_MspDeInit 0 */
 165:cube/Src/tim.c **** 
 166:cube/Src/tim.c ****   /* USER CODE END TIM1_MspDeInit 0 */
 167:cube/Src/tim.c ****     /* Peripheral clock disable */
 168:cube/Src/tim.c ****     __HAL_RCC_TIM1_CLK_DISABLE();
 424              		.loc 1 168 0
 425 0012 064B     		ldr	r3, .L22+4
 426 0014 9A69     		ldr	r2, [r3, #24]
 427 0016 054B     		ldr	r3, .L22+4
 428 0018 0549     		ldr	r1, .L22+8
 429 001a 0A40     		ands	r2, r1
 430 001c 9A61     		str	r2, [r3, #24]
 431              	.L21:
 169:cube/Src/tim.c ****   /* USER CODE BEGIN TIM1_MspDeInit 1 */
 170:cube/Src/tim.c **** 
 171:cube/Src/tim.c ****   /* USER CODE END TIM1_MspDeInit 1 */
 172:cube/Src/tim.c ****   }
 173:cube/Src/tim.c **** } 
 432              		.loc 1 173 0
 433 001e C046     		nop
 434 0020 BD46     		mov	sp, r7
 435 0022 02B0     		add	sp, sp, #8
 436              		@ sp needed
 437 0024 80BD     		pop	{r7, pc}
 438              	.L23:
 439 0026 C046     		.align	2
 440              	.L22:
 441 0028 002C0140 		.word	1073818624
 442 002c 00100240 		.word	1073876992
 443 0030 FFF7FFFF 		.word	-2049
 444              		.cfi_endproc
 445              	.LFE40:
 447              		.text
 448              	.Letext0:
 449              		.file 2 "/home/lhaug/Applications/gcc-arm-none-eabi-7-2018-q2-update/arm-none-eabi/include/machine
 450              		.file 3 "/home/lhaug/Applications/gcc-arm-none-eabi-7-2018-q2-update/arm-none-eabi/include/sys/_st
 451              		.file 4 "cube/Drivers/CMSIS/Device/ST/STM32F0xx/Include/system_stm32f0xx.h"
 452              		.file 5 "cube/Drivers/CMSIS/Device/ST/STM32F0xx/Include/stm32f072xb.h"
 453              		.file 6 "/home/lhaug/Applications/gcc-arm-none-eabi-7-2018-q2-update/arm-none-eabi/include/sys/loc
 454              		.file 7 "/home/lhaug/Applications/gcc-arm-none-eabi-7-2018-q2-update/arm-none-eabi/include/sys/_ty
 455              		.file 8 "/home/lhaug/Applications/gcc-arm-none-eabi-7-2018-q2-update/lib/gcc/arm-none-eabi/7.3.1/i
 456              		.file 9 "/home/lhaug/Applications/gcc-arm-none-eabi-7-2018-q2-update/arm-none-eabi/include/sys/ree
 457              		.file 10 "cube/Drivers/STM32F0xx_HAL_Driver/Inc/stm32f0xx_hal_def.h"
 458              		.file 11 "cube/Drivers/STM32F0xx_HAL_Driver/Inc/stm32f0xx_hal_gpio.h"
 459              		.file 12 "cube/Drivers/STM32F0xx_HAL_Driver/Inc/stm32f0xx_hal_dma.h"
ARM GAS  /tmp/cc4lCQFX.s 			page 12


 460              		.file 13 "cube/Drivers/STM32F0xx_HAL_Driver/Inc/stm32f0xx_hal_tim.h"
 461              		.file 14 "cube/Drivers/STM32F0xx_HAL_Driver/Inc/stm32f0xx_hal_tim_ex.h"
 462              		.file 15 "cube/Inc/tim.h"
ARM GAS  /tmp/cc4lCQFX.s 			page 13


DEFINED SYMBOLS
                            *ABS*:0000000000000000 tim.c
                            *COM*:0000000000000040 htim1
     /tmp/cc4lCQFX.s:17     .rodata:0000000000000000 $d
     /tmp/cc4lCQFX.s:21     .text.MX_TIM1_Init:0000000000000000 $t
     /tmp/cc4lCQFX.s:28     .text.MX_TIM1_Init:0000000000000000 MX_TIM1_Init
     /tmp/cc4lCQFX.s:300    .text.HAL_TIM_MspPostInit:0000000000000000 HAL_TIM_MspPostInit
     /tmp/cc4lCQFX.s:225    .text.MX_TIM1_Init:0000000000000130 $d
     /tmp/cc4lCQFX.s:232    .text.HAL_TIM_PWM_MspInit:0000000000000000 $t
     /tmp/cc4lCQFX.s:239    .text.HAL_TIM_PWM_MspInit:0000000000000000 HAL_TIM_PWM_MspInit
     /tmp/cc4lCQFX.s:287    .text.HAL_TIM_PWM_MspInit:0000000000000038 $d
     /tmp/cc4lCQFX.s:293    .text.HAL_TIM_MspPostInit:0000000000000000 $t
     /tmp/cc4lCQFX.s:391    .text.HAL_TIM_MspPostInit:000000000000007c $d
     /tmp/cc4lCQFX.s:396    .text.HAL_TIM_PWM_MspDeInit:0000000000000000 $t
     /tmp/cc4lCQFX.s:403    .text.HAL_TIM_PWM_MspDeInit:0000000000000000 HAL_TIM_PWM_MspDeInit
     /tmp/cc4lCQFX.s:441    .text.HAL_TIM_PWM_MspDeInit:0000000000000028 $d
                           .group:0000000000000000 wm4.0.b7c3d577b02d87ac381ee43eef398462
                           .group:0000000000000000 wm4.main.h.42.3939338cba6ab0a8b761d08be8206d51
                           .group:0000000000000000 wm4.stm32f0xx_hal_conf.h.51.b0c07d2233f75e3b04f03d95093d88ca
                           .group:0000000000000000 wm4.stm32f0xx.h.55.6dda558900ae83b4ddf41af91bcbf2f5
                           .group:0000000000000000 wm4.stm32f072xb.h.53.c99f4c72149ed98740992cfc418a4d39
                           .group:0000000000000000 wm4._newlib_version.h.4.875b979a44719054cd750d0952ad3fd6
                           .group:0000000000000000 wm4.features.h.33.d0b7f3cd6ee95f610104014bb3ed522a
                           .group:0000000000000000 wm4._default_types.h.15.247e5cd201eca3442cbf5404108c4935
                           .group:0000000000000000 wm4._intsup.h.10.cce27fed8484c08a33f522034c30d2b5
                           .group:0000000000000000 wm4._stdint.h.10.c24fa3af3bc1706662bb5593a907e841
                           .group:0000000000000000 wm4.stdint.h.23.d53047a68f4a85177f80b422d52785ed
                           .group:0000000000000000 wm4.core_cm0.h.74.a7f5ed9ff199b3163f5ed99892efe60d
                           .group:0000000000000000 wm4.cmsis_gcc.h.36.5bb14fd68ce7855540fcfe2d9305ae16
                           .group:0000000000000000 wm4.core_cm0.h.175.2353140684a11cc8267b4125ac92735e
                           .group:0000000000000000 wm4.stm32f072xb.h.653.664388dc5ef2a697008be7ff13986fc5
                           .group:0000000000000000 wm4.stm32f0xx.h.186.8a2f1abf0fccd74c76b01fef06350694
                           .group:0000000000000000 wm4.newlib.h.8.f6e543eac3f2f65163ba2ffe3b04987b
                           .group:0000000000000000 wm4.ieeefp.h.77.220d9cccac42cd58761758bee2df4ce6
                           .group:0000000000000000 wm4.config.h.220.6cac6a9685cfce5e83c17784171638d9
                           .group:0000000000000000 wm4._ansi.h.31.de524f58584151836e90d8620a16f8e8
                           .group:0000000000000000 wm4.stdio.h.31.7c0e28c411445f3f9c5b11accf882760
                           .group:0000000000000000 wm4.stddef.h.187.2ff233552538c6ff9b8575ca8ea52cb3
                           .group:0000000000000000 wm4.cdefs.h.47.0bcdf94cb40e176393dd1404056825b4
                           .group:0000000000000000 wm4.stddef.h.39.ec95e8feac892e292b69dc7ae75b0d64
                           .group:0000000000000000 wm4.stdarg.h.34.3a23a216c0c293b3d2ea2e89281481e6
                           .group:0000000000000000 wm4.lock.h.2.1461d1fff82dffe8bfddc23307f6484f
                           .group:0000000000000000 wm4._types.h.125.5cf8a495f1f7ef36777ad868a1e32068
                           .group:0000000000000000 wm4.stddef.h.161.5349cb105733e8777bfb0cf53c4e3f34
                           .group:0000000000000000 wm4._types.h.184.03611d4f6b5bec9997bcf4279eceba07
                           .group:0000000000000000 wm4.reent.h.17.90c2574d4acdcfce933db5cb09ff35fe
                           .group:0000000000000000 wm4.types.h.40.e8c16e7ec36ba55f133d0616070e25fc
                           .group:0000000000000000 wm4.types.h.114.fb65732f4f5f288a036a25898de2c91f
                           .group:0000000000000000 wm4.stdio.h.2.4aa87247282eca6c8f36f9de33d8df1a
                           .group:0000000000000000 wm4.stdio.h.81.2a55589bfa3ee24eeb84e3c79458e4a9
                           .group:0000000000000000 wm4.stm32f0xx_hal_def.h.76.81362c22f1bfa407bb20bdc5ef2fe817
                           .group:0000000000000000 wm4.stm32f0xx_hal_rcc.h.64.1680b96367ed05251327e73e2ef7e0a0
                           .group:0000000000000000 wm4.stm32f0xx_hal_rcc_ex.h.38.fed157297eb0e49fa475a8f4d962b1a1
                           .group:0000000000000000 wm4.stm32f0xx_hal_gpio.h.38.5de46a121e30d1d136216266f57becb9
                           .group:0000000000000000 wm4.stm32f0xx_hal_gpio_ex.h.38.4ae096506dfd35e4cd1e2bfdbf19c71f
                           .group:0000000000000000 wm4.stm32f0xx_hal_dma.h.38.9bc992aa465d2468bc055502b51063f3
                           .group:0000000000000000 wm4.stm32f0xx_hal_dma_ex.h.38.c2269542e0bcc97944af39289a0a60b8
ARM GAS  /tmp/cc4lCQFX.s 			page 14


                           .group:0000000000000000 wm4.stm32f0xx_hal_dma.h.500.3b36a5be41f3e2ac138f4041ccf5cecb
                           .group:0000000000000000 wm4.stm32f0xx_hal_cortex.h.38.61b1088b7495d338bc65ee2571a0bb95
                           .group:0000000000000000 wm4.stm32f0xx_hal_adc.h.38.e3e4bca0d8b91dc0f73ca672bc0e5aca
                           .group:0000000000000000 wm4.stm32f0xx_hal_adc_ex.h.38.79c684f1976d63630feab98f4d82be4a
                           .group:0000000000000000 wm4.stm32f0xx_hal_flash.h.38.752a2d52b6ea91b900355f4ecd0538c0
                           .group:0000000000000000 wm4.stm32f0xx_hal_flash_ex.h.38.8097982a0077322c9b7a892e64a756d8
                           .group:0000000000000000 wm4.stm32f0xx_hal_i2c.h.38.387f38a4bc9cbea958e7081da9f60815
                           .group:0000000000000000 wm4.stm32f0xx_hal_i2c_ex.h.38.9a4523b2ddbaaa2727287ccab47d88d1
                           .group:0000000000000000 wm4.stm32f0xx_hal_i2c.h.625.1e7eff54876bba211f769007bbafd5f1
                           .group:0000000000000000 wm4.stm32f0xx_hal_pwr.h.38.2c4d8c2e90fc76cec57b78b078d485d1
                           .group:0000000000000000 wm4.stm32f0xx_hal_pwr_ex.h.38.e18331c4036598a45f5d1fd3922b2997
                           .group:0000000000000000 wm4.stm32f0xx_hal_tim.h.38.42f3ee0b54a54fc44c665553058edb38
                           .group:0000000000000000 wm4.stm32f0xx_hal_tim_ex.h.38.12cd16a4e412877272e70689edb6b518
                           .group:0000000000000000 wm4.stm32f0xx_hal_uart.h.38.e5eada3cdf37ca88de33bd21ddd21a5e
                           .group:0000000000000000 wm4.stm32f0xx_hal_uart_ex.h.38.9430c2ca5ec832677dbe7308c46115fd
                           .group:0000000000000000 wm4.stm32f0xx_hal.h.70.818459bc3b31dd9e51543930b5b3b8df

UNDEFINED SYMBOLS
HAL_TIM_PWM_Init
_Error_Handler
HAL_TIMEx_MasterConfigSynchronization
HAL_TIM_PWM_ConfigChannel
HAL_TIMEx_ConfigBreakDeadTime
HAL_GPIO_Init
